ltmp3_harness-df4868ea1b5cadad.5qrn0xfhbv2rouh4f52itu55i.rcgu.o
[]
GCC_except_table13
[]
GCC_except_table207
[]
__ZN95_$LT$dioxus_signals..signal..Signal$LT$T$C$S$GT$$u20$as$u20$dioxus_signals..write..Writable$GT$19try_write_unchecked28_$u7b$$u7b$closure$u7d$$u7d$28_$u7b$$u7b$closure$u7d$$u7d$17hbba0ec736f624196E
[
    "__ZN95_$LT$dioxus_signals..signal..Signal$LT$T$C$S$GT$$u20$as$u20$dioxus_signals..write..Writable$GT$19try_write_unchecked28_$u7b$$u7b$closure$u7d$$u7d$28_$u7b$$u7b$closure$u7d$$u7d$17hbba0ec736f624196E",
    "__ZN4core4cell15RefMut$LT$T$GT$3map17h5ffb9c22d13a7447E",
    "__ZN88_$LT$generational_box..unsync..UnsyncStorage$u20$as$u20$generational_box..AnyStorage$GT$7map_mut28_$u7b$$u7b$closure$u7d$$u7d$17hb9968e94e302ccf5E",
    "__ZN16generational_box10references27GenerationalRefMut$LT$R$GT$3map17h554ce2d20c88e3daE",
    "__ZN88_$LT$generational_box..unsync..UnsyncStorage$u20$as$u20$generational_box..AnyStorage$GT$7map_mut17h8d19b4ce2699616eE",
    "__ZN95_$LT$dioxus_signals..signal..Signal$LT$T$C$S$GT$$u20$as$u20$dioxus_signals..write..Writable$GT$19try_write_unchecked28_$u7b$$u7b$closure$u7d$$u7d$17he1b9191098da229cE",
    "__ZN4core6result19Result$LT$T$C$E$GT$3map17he4a924266e5e9d5aE",
    "__ZN95_$LT$dioxus_signals..signal..Signal$LT$T$C$S$GT$$u20$as$u20$dioxus_signals..write..Writable$GT$19try_write_unchecked17h4cba87c5ead1eb17E",
    "__ZN14dioxus_signals6global19Global$LT$T$C$R$GT$5write17h2228387cbea56f90E",
    "__ZN7harness11GlobalInner28_$u7b$$u7b$closure$u7d$$u7d$17hb42c5660948e5f3bE",
    "__ZN11dioxus_core6events26Callback$LT$Args$C$Ret$GT$3new28_$u7b$$u7b$closure$u7d$$u7d$17h6f96a569a9f12b13E",
    "l___unnamed_9_harness-df4868ea1b5cadad.egexdem49eejgynie32zwugcu.rcgu.o",
    "__ZN11dioxus_core6events26Callback$LT$Args$C$Ret$GT$3new17he13b8bd10ebc92d6E",
    "__ZN169_$LT$dioxus_core..events..Callback$LT$Args$C$Ret$GT$$u20$as$u20$dioxus_core..properties..SuperFrom$LT$Function$C$dioxus_core..events..MarkerWrapper$LT$Marker$GT$$GT$$GT$10super_from17h0f0cdd7a8468e271E",
    "__ZN69_$LT$T$u20$as$u20$dioxus_core..properties..SuperInto$LT$O$C$M$GT$$GT$10super_into17he799bb527ae17417E",
    "__ZN11dioxus_html6events5mouse7onclick28_$u7b$$u7b$closure$u7d$$u7d$17hcda8013b3fb0a7b1E",
    "__ZN11dioxus_core16generational_box10with_owner17hb0ca740788bcf0beE",
    "__ZN11dioxus_html6events5mouse7onclick17hcc75453cf267d2c1E",
    "__ZN11dioxus_html6events5mouse7onclick26call_with_explicit_closure17hc65524ea0f855dd4E",
    "__ZN7harness11GlobalInner17h56fe43aa3656219bE",
    "__ZN4core3ops8function2Fn4call17h3c8f851ee4dd175bE",
    "__ZN119_$LT$F$u20$as$u20$dioxus_core..properties..ComponentFunction$LT$$LP$$RP$$C$dioxus_core..properties..EmptyMarker$GT$$GT$7rebuild17hf7f1250efa3fb04cE",
    "__ZN100_$LT$dioxus_core..any_props..VProps$LT$F$C$P$C$M$GT$$u20$as$u20$dioxus_core..any_props..AnyProps$GT$6render28_$u7b$$u7b$closure$u7d$$u7d$17h025de8e22280b207E",
    "__ZN4core3ops8function6FnOnce9call_once17h371dcf20a99f261bE",
    "__ZN115_$LT$core..panic..unwind_safe..AssertUnwindSafe$LT$F$GT$$u20$as$u20$core..ops..function..FnOnce$LT$$LP$$RP$$GT$$GT$9call_once17h25a92dc564e3d7ffE",
    "__ZN3std9panicking3try7do_call17ha023efa9fb2ba8f7E",
    "__ZN3std5panic12catch_unwind17h48b71dec49934bf1E",
    "__ZN100_$LT$dioxus_core..any_props..VProps$LT$F$C$P$C$M$GT$$u20$as$u20$dioxus_core..any_props..AnyProps$GT$6render17h543a97c06bfefa3bE",
    "l___unnamed_4_harness-df4868ea1b5cadad.e382ndox9j839chz9esswif6u.rcgu.o",
    "__ZN100_$LT$dioxus_core..any_props..VProps$LT$F$C$P$C$M$GT$$u20$as$u20$dioxus_core..any_props..AnyProps$GT$9duplicate17h675ac73f4925ce25E",
    "l___unnamed_4_harness-df4868ea1b5cadad.c6wmz0dxwkc7r3o02wr81u9oy.rcgu.o",
    "__ZN11dioxus_core5nodes10VComponent3new17h993f8b3d9eb93954E",
    "__ZN11dioxus_core10properties10Properties15into_vcomponent17h965196ec13444056E",
    "__ZN7harness5Child17h2b32aeaba0b4c00dE",
    "__ZN4core3ops8function2Fn4call17hf86b26e1f09dbfc5E",
    "__ZN73_$LT$F$u20$as$u20$dioxus_core..properties..ComponentFunction$LT$P$GT$$GT$7rebuild17hdcc2e237eec08339E",
    "__ZN100_$LT$dioxus_core..any_props..VProps$LT$F$C$P$C$M$GT$$u20$as$u20$dioxus_core..any_props..AnyProps$GT$6render28_$u7b$$u7b$closure$u7d$$u7d$17hfbf53ec21013c460E",
    "__ZN4core3ops8function6FnOnce9call_once17hb1250f82ab822998E",
    "__ZN115_$LT$core..panic..unwind_safe..AssertUnwindSafe$LT$F$GT$$u20$as$u20$core..ops..function..FnOnce$LT$$LP$$RP$$GT$$GT$9call_once17h156df01ab880499cE",
    "__ZN3std9panicking3try7do_call17h12b00f5c1afca0e5E",
    "__ZN3std5panic12catch_unwind17h9623dc210b33032cE",
    "__ZN100_$LT$dioxus_core..any_props..VProps$LT$F$C$P$C$M$GT$$u20$as$u20$dioxus_core..any_props..AnyProps$GT$6render17h724478bd10ae45abE",
    "l___unnamed_8_harness-df4868ea1b5cadad.e382ndox9j839chz9esswif6u.rcgu.o",
    "__ZN100_$LT$dioxus_core..any_props..VProps$LT$F$C$P$C$M$GT$$u20$as$u20$dioxus_core..any_props..AnyProps$GT$9duplicate17hbcc315160800576aE",
    "l___unnamed_2_harness-df4868ea1b5cadad.c6wmz0dxwkc7r3o02wr81u9oy.rcgu.o",
    "__ZN11dioxus_core5nodes10VComponent3new17h64d3a0812e77f0edE",
    "__ZN11dioxus_core10properties10Properties15into_vcomponent17h7753673354bc1edfE",
    "__ZN7harness13zoom_controls17h3a73844835917e06E",
    "__ZN4core3ops8function2Fn4call17heb220dff9cb64346E",
    "__ZN119_$LT$F$u20$as$u20$dioxus_core..properties..ComponentFunction$LT$$LP$$RP$$C$dioxus_core..properties..EmptyMarker$GT$$GT$7rebuild17h1485b718be4dcc97E",
    "__ZN100_$LT$dioxus_core..any_props..VProps$LT$F$C$P$C$M$GT$$u20$as$u20$dioxus_core..any_props..AnyProps$GT$6render28_$u7b$$u7b$closure$u7d$$u7d$17h5f5c31c2c4fcd3edE",
    "__ZN4core3ops8function6FnOnce9call_once17haf610c889d773240E",
    "__ZN115_$LT$core..panic..unwind_safe..AssertUnwindSafe$LT$F$GT$$u20$as$u20$core..ops..function..FnOnce$LT$$LP$$RP$$GT$$GT$9call_once17he0621d6d235d0c08E",
    "__ZN3std9panicking3try7do_call17h8e7a94c382a5e60cE",
    "__ZN3std5panic12catch_unwind17h1f6291afe955bbfcE",
    "__ZN100_$LT$dioxus_core..any_props..VProps$LT$F$C$P$C$M$GT$$u20$as$u20$dioxus_core..any_props..AnyProps$GT$6render17h45480eba660d5148E",
    "l___unnamed_7_harness-df4868ea1b5cadad.c6wmz0dxwkc7r3o02wr81u9oy.rcgu.o",
    "__ZN11dioxus_core5nodes10VComponent3new17hcaaa6729c16dc137E",
    "__ZN11dioxus_core10properties10Properties15into_vcomponent17h79bafc80aea2aab7E",
    "___hotreload_start_app",
    "__ZN7harness3app17h400735d18e59eec4E",
    "__ZN7harness4main17h4654d77b3f37379bE",
    "_main",
]
__ZN4core3ptr89drop_in_place$LT$core..cell..Ref$LT$dioxus_signals..signal..SignalData$LT$i64$GT$$GT$$GT$17h519314eae469f7a6E
[
    "__ZN4core3ptr89drop_in_place$LT$core..cell..Ref$LT$dioxus_signals..signal..SignalData$LT$i64$GT$$GT$$GT$17h519314eae469f7a6E",
    "__ZN94_$LT$generational_box..unsync..UnsyncStorage$u20$as$u20$generational_box..Storage$LT$T$GT$$GT$8try_read17h016a876643561fa6E",
    "__ZN16generational_box28GenerationalPointer$LT$S$GT$8try_read17hdb8cc3b1a8fdba97E",
    "__ZN16generational_box28GenerationalBox$LT$T$C$S$GT$8try_read17h49094ce29cdca583E",
    "__ZN101_$LT$dioxus_signals..copy_value..CopyValue$LT$T$C$S$GT$$u20$as$u20$dioxus_signals..read..Readable$GT$18try_read_unchecked17hcbacf7f4f84ff432E",
    "__ZN14dioxus_signals4read8Readable8try_read17h3f53ef44cef9d75bE",
    "__ZN14dioxus_signals8warnings41__signal_read_and_write_in_reactive_scope23__Callable$LT$T$C$S$GT$16__run_if_enabled28_$u7b$$u7b$closure$u7d$$u7d$39signal_read_and_write_in_reactive_scope17h1ad309ff6660ea62E",
    "__ZN14dioxus_signals8warnings41__signal_read_and_write_in_reactive_scope23__Callable$LT$T$C$S$GT$16__run_if_enabled28_$u7b$$u7b$closure$u7d$$u7d$17h1b0f83081d19009bE",
    "__ZN8warnings8warnings9WarningId10if_enabled17ha6ef6cba53b085f6E",
    "__ZN14dioxus_signals8warnings41__signal_read_and_write_in_reactive_scope23__Callable$LT$T$C$S$GT$16__run_if_enabled17he99b0af967ae97feE",
    "l___unnamed_2_harness-df4868ea1b5cadad.a64hlspyskaofkyts3cee93he.rcgu.o",
    "__ZN136_$LT$dioxus_signals..warnings..__signal_read_and_write_in_reactive_scope..__Callable$LT$T$C$S$GT$$u20$as$u20$core..ops..deref..Deref$GT$5deref17h86c7f97abc3f6c06E",
    "__ZN99_$LT$dioxus_signals..signal..SignalSubscriberDrop$LT$T$C$S$GT$$u20$as$u20$core..ops..drop..Drop$GT$4drop17h330fbe4f6664ee0bE",
    "__ZN4core3ptr118drop_in_place$LT$dioxus_signals..signal..SignalSubscriberDrop$LT$i64$C$generational_box..unsync..UnsyncStorage$GT$$GT$17h25b2886afdcde067E",
    "l___unnamed_21_harness-df4868ea1b5cadad.5qrn0xfhbv2rouh4f52itu55i.rcgu.o",
    "__ZN95_$LT$dioxus_signals..signal..Signal$LT$T$C$S$GT$$u20$as$u20$dioxus_signals..write..Writable$GT$19try_write_unchecked28_$u7b$$u7b$closure$u7d$$u7d$17he1b9191098da229cE",
    "__ZN4core6result19Result$LT$T$C$E$GT$3map17he4a924266e5e9d5aE",
    "__ZN95_$LT$dioxus_signals..signal..Signal$LT$T$C$S$GT$$u20$as$u20$dioxus_signals..write..Writable$GT$19try_write_unchecked17h4cba87c5ead1eb17E",
    "__ZN14dioxus_signals6global19Global$LT$T$C$R$GT$5write17h2228387cbea56f90E",
    "__ZN7harness11GlobalInner28_$u7b$$u7b$closure$u7d$$u7d$17hb42c5660948e5f3bE",
    "__ZN11dioxus_core6events26Callback$LT$Args$C$Ret$GT$3new28_$u7b$$u7b$closure$u7d$$u7d$17h6f96a569a9f12b13E",
    "l___unnamed_9_harness-df4868ea1b5cadad.egexdem49eejgynie32zwugcu.rcgu.o",
    "__ZN11dioxus_core6events26Callback$LT$Args$C$Ret$GT$3new17he13b8bd10ebc92d6E",
    "__ZN169_$LT$dioxus_core..events..Callback$LT$Args$C$Ret$GT$$u20$as$u20$dioxus_core..properties..SuperFrom$LT$Function$C$dioxus_core..events..MarkerWrapper$LT$Marker$GT$$GT$$GT$10super_from17h0f0cdd7a8468e271E",
    "__ZN69_$LT$T$u20$as$u20$dioxus_core..properties..SuperInto$LT$O$C$M$GT$$GT$10super_into17he799bb527ae17417E",
    "__ZN11dioxus_html6events5mouse7onclick28_$u7b$$u7b$closure$u7d$$u7d$17hcda8013b3fb0a7b1E",
    "__ZN11dioxus_core16generational_box10with_owner17hb0ca740788bcf0beE",
    "__ZN11dioxus_html6events5mouse7onclick17hcc75453cf267d2c1E",
    "__ZN11dioxus_html6events5mouse7onclick26call_with_explicit_closure17hc65524ea0f855dd4E",
    "__ZN7harness11GlobalInner17h56fe43aa3656219bE",
    "__ZN4core3ops8function2Fn4call17h3c8f851ee4dd175bE",
    "__ZN119_$LT$F$u20$as$u20$dioxus_core..properties..ComponentFunction$LT$$LP$$RP$$C$dioxus_core..properties..EmptyMarker$GT$$GT$7rebuild17hf7f1250efa3fb04cE",
    "__ZN100_$LT$dioxus_core..any_props..VProps$LT$F$C$P$C$M$GT$$u20$as$u20$dioxus_core..any_props..AnyProps$GT$6render28_$u7b$$u7b$closure$u7d$$u7d$17h025de8e22280b207E",
    "__ZN4core3ops8function6FnOnce9call_once17h371dcf20a99f261bE",
    "__ZN115_$LT$core..panic..unwind_safe..AssertUnwindSafe$LT$F$GT$$u20$as$u20$core..ops..function..FnOnce$LT$$LP$$RP$$GT$$GT$9call_once17h25a92dc564e3d7ffE",
    "__ZN3std9panicking3try7do_call17ha023efa9fb2ba8f7E",
    "__ZN3std5panic12catch_unwind17h48b71dec49934bf1E",
    "__ZN100_$LT$dioxus_core..any_props..VProps$LT$F$C$P$C$M$GT$$u20$as$u20$dioxus_core..any_props..AnyProps$GT$6render17h543a97c06bfefa3bE",
    "l___unnamed_4_harness-df4868ea1b5cadad.e382ndox9j839chz9esswif6u.rcgu.o",
    "__ZN100_$LT$dioxus_core..any_props..VProps$LT$F$C$P$C$M$GT$$u20$as$u20$dioxus_core..any_props..AnyProps$GT$9duplicate17h675ac73f4925ce25E",
    "l___unnamed_4_harness-df4868ea1b5cadad.c6wmz0dxwkc7r3o02wr81u9oy.rcgu.o",
    "__ZN11dioxus_core5nodes10VComponent3new17h993f8b3d9eb93954E",
    "__ZN11dioxus_core10properties10Properties15into_vcomponent17h965196ec13444056E",
    "__ZN7harness5Child17h2b32aeaba0b4c00dE",
    "__ZN4core3ops8function2Fn4call17hf86b26e1f09dbfc5E",
    "__ZN73_$LT$F$u20$as$u20$dioxus_core..properties..ComponentFunction$LT$P$GT$$GT$7rebuild17hdcc2e237eec08339E",
    "__ZN100_$LT$dioxus_core..any_props..VProps$LT$F$C$P$C$M$GT$$u20$as$u20$dioxus_core..any_props..AnyProps$GT$6render28_$u7b$$u7b$closure$u7d$$u7d$17hfbf53ec21013c460E",
    "__ZN4core3ops8function6FnOnce9call_once17hb1250f82ab822998E",
    "__ZN115_$LT$core..panic..unwind_safe..AssertUnwindSafe$LT$F$GT$$u20$as$u20$core..ops..function..FnOnce$LT$$LP$$RP$$GT$$GT$9call_once17h156df01ab880499cE",
    "__ZN3std9panicking3try7do_call17h12b00f5c1afca0e5E",
    "__ZN3std5panic12catch_unwind17h9623dc210b33032cE",
    "__ZN100_$LT$dioxus_core..any_props..VProps$LT$F$C$P$C$M$GT$$u20$as$u20$dioxus_core..any_props..AnyProps$GT$6render17h724478bd10ae45abE",
    "l___unnamed_8_harness-df4868ea1b5cadad.e382ndox9j839chz9esswif6u.rcgu.o",
    "__ZN100_$LT$dioxus_core..any_props..VProps$LT$F$C$P$C$M$GT$$u20$as$u20$dioxus_core..any_props..AnyProps$GT$9duplicate17hbcc315160800576aE",
    "l___unnamed_2_harness-df4868ea1b5cadad.c6wmz0dxwkc7r3o02wr81u9oy.rcgu.o",
    "__ZN11dioxus_core5nodes10VComponent3new17h64d3a0812e77f0edE",
    "__ZN11dioxus_core10properties10Properties15into_vcomponent17h7753673354bc1edfE",
    "__ZN7harness13zoom_controls17h3a73844835917e06E",
    "__ZN4core3ops8function2Fn4call17heb220dff9cb64346E",
    "__ZN119_$LT$F$u20$as$u20$dioxus_core..properties..ComponentFunction$LT$$LP$$RP$$C$dioxus_core..properties..EmptyMarker$GT$$GT$7rebuild17h1485b718be4dcc97E",
    "__ZN100_$LT$dioxus_core..any_props..VProps$LT$F$C$P$C$M$GT$$u20$as$u20$dioxus_core..any_props..AnyProps$GT$6render28_$u7b$$u7b$closure$u7d$$u7d$17h5f5c31c2c4fcd3edE",
    "__ZN4core3ops8function6FnOnce9call_once17haf610c889d773240E",
    "__ZN115_$LT$core..panic..unwind_safe..AssertUnwindSafe$LT$F$GT$$u20$as$u20$core..ops..function..FnOnce$LT$$LP$$RP$$GT$$GT$9call_once17he0621d6d235d0c08E",
    "__ZN3std9panicking3try7do_call17h8e7a94c382a5e60cE",
    "__ZN3std5panic12catch_unwind17h1f6291afe955bbfcE",
    "__ZN100_$LT$dioxus_core..any_props..VProps$LT$F$C$P$C$M$GT$$u20$as$u20$dioxus_core..any_props..AnyProps$GT$6render17h45480eba660d5148E",
    "l___unnamed_7_harness-df4868ea1b5cadad.c6wmz0dxwkc7r3o02wr81u9oy.rcgu.o",
    "__ZN11dioxus_core5nodes10VComponent3new17hcaaa6729c16dc137E",
    "__ZN11dioxus_core10properties10Properties15into_vcomponent17h79bafc80aea2aab7E",
    "___hotreload_start_app",
    "__ZN7harness3app17h400735d18e59eec4E",
    "__ZN7harness4main17h4654d77b3f37379bE",
    "_main",
]
__ZN14dioxus_signals8warnings41__signal_read_and_write_in_reactive_scope23__Callable$LT$T$C$S$GT$16__run_if_enabled17he99b0af967ae97feE
[
    "__ZN14dioxus_signals8warnings41__signal_read_and_write_in_reactive_scope23__Callable$LT$T$C$S$GT$16__run_if_enabled17he99b0af967ae97feE",
    "l___unnamed_2_harness-df4868ea1b5cadad.a64hlspyskaofkyts3cee93he.rcgu.o",
    "__ZN136_$LT$dioxus_signals..warnings..__signal_read_and_write_in_reactive_scope..__Callable$LT$T$C$S$GT$$u20$as$u20$core..ops..deref..Deref$GT$5deref17h86c7f97abc3f6c06E",
    "__ZN99_$LT$dioxus_signals..signal..SignalSubscriberDrop$LT$T$C$S$GT$$u20$as$u20$core..ops..drop..Drop$GT$4drop17h330fbe4f6664ee0bE",
    "__ZN4core3ptr118drop_in_place$LT$dioxus_signals..signal..SignalSubscriberDrop$LT$i64$C$generational_box..unsync..UnsyncStorage$GT$$GT$17h25b2886afdcde067E",
    "l___unnamed_21_harness-df4868ea1b5cadad.5qrn0xfhbv2rouh4f52itu55i.rcgu.o",
    "__ZN95_$LT$dioxus_signals..signal..Signal$LT$T$C$S$GT$$u20$as$u20$dioxus_signals..write..Writable$GT$19try_write_unchecked28_$u7b$$u7b$closure$u7d$$u7d$17he1b9191098da229cE",
    "__ZN4core6result19Result$LT$T$C$E$GT$3map17he4a924266e5e9d5aE",
    "__ZN95_$LT$dioxus_signals..signal..Signal$LT$T$C$S$GT$$u20$as$u20$dioxus_signals..write..Writable$GT$19try_write_unchecked17h4cba87c5ead1eb17E",
    "__ZN14dioxus_signals6global19Global$LT$T$C$R$GT$5write17h2228387cbea56f90E",
    "__ZN7harness11GlobalInner28_$u7b$$u7b$closure$u7d$$u7d$17hb42c5660948e5f3bE",
    "__ZN11dioxus_core6events26Callback$LT$Args$C$Ret$GT$3new28_$u7b$$u7b$closure$u7d$$u7d$17h6f96a569a9f12b13E",
    "l___unnamed_9_harness-df4868ea1b5cadad.egexdem49eejgynie32zwugcu.rcgu.o",
    "__ZN11dioxus_core6events26Callback$LT$Args$C$Ret$GT$3new17he13b8bd10ebc92d6E",
    "__ZN169_$LT$dioxus_core..events..Callback$LT$Args$C$Ret$GT$$u20$as$u20$dioxus_core..properties..SuperFrom$LT$Function$C$dioxus_core..events..MarkerWrapper$LT$Marker$GT$$GT$$GT$10super_from17h0f0cdd7a8468e271E",
    "__ZN69_$LT$T$u20$as$u20$dioxus_core..properties..SuperInto$LT$O$C$M$GT$$GT$10super_into17he799bb527ae17417E",
    "__ZN11dioxus_html6events5mouse7onclick28_$u7b$$u7b$closure$u7d$$u7d$17hcda8013b3fb0a7b1E",
    "__ZN11dioxus_core16generational_box10with_owner17hb0ca740788bcf0beE",
    "__ZN11dioxus_html6events5mouse7onclick17hcc75453cf267d2c1E",
    "__ZN11dioxus_html6events5mouse7onclick26call_with_explicit_closure17hc65524ea0f855dd4E",
    "__ZN7harness11GlobalInner17h56fe43aa3656219bE",
    "__ZN4core3ops8function2Fn4call17h3c8f851ee4dd175bE",
    "__ZN119_$LT$F$u20$as$u20$dioxus_core..properties..ComponentFunction$LT$$LP$$RP$$C$dioxus_core..properties..EmptyMarker$GT$$GT$7rebuild17hf7f1250efa3fb04cE",
    "__ZN100_$LT$dioxus_core..any_props..VProps$LT$F$C$P$C$M$GT$$u20$as$u20$dioxus_core..any_props..AnyProps$GT$6render28_$u7b$$u7b$closure$u7d$$u7d$17h025de8e22280b207E",
    "__ZN4core3ops8function6FnOnce9call_once17h371dcf20a99f261bE",
    "__ZN115_$LT$core..panic..unwind_safe..AssertUnwindSafe$LT$F$GT$$u20$as$u20$core..ops..function..FnOnce$LT$$LP$$RP$$GT$$GT$9call_once17h25a92dc564e3d7ffE",
    "__ZN3std9panicking3try7do_call17ha023efa9fb2ba8f7E",
    "__ZN3std5panic12catch_unwind17h48b71dec49934bf1E",
    "__ZN100_$LT$dioxus_core..any_props..VProps$LT$F$C$P$C$M$GT$$u20$as$u20$dioxus_core..any_props..AnyProps$GT$6render17h543a97c06bfefa3bE",
    "l___unnamed_4_harness-df4868ea1b5cadad.e382ndox9j839chz9esswif6u.rcgu.o",
    "__ZN100_$LT$dioxus_core..any_props..VProps$LT$F$C$P$C$M$GT$$u20$as$u20$dioxus_core..any_props..AnyProps$GT$9duplicate17h675ac73f4925ce25E",
    "l___unnamed_4_harness-df4868ea1b5cadad.c6wmz0dxwkc7r3o02wr81u9oy.rcgu.o",
    "__ZN11dioxus_core5nodes10VComponent3new17h993f8b3d9eb93954E",
    "__ZN11dioxus_core10properties10Properties15into_vcomponent17h965196ec13444056E",
    "__ZN7harness5Child17h2b32aeaba0b4c00dE",
    "__ZN4core3ops8function2Fn4call17hf86b26e1f09dbfc5E",
    "__ZN73_$LT$F$u20$as$u20$dioxus_core..properties..ComponentFunction$LT$P$GT$$GT$7rebuild17hdcc2e237eec08339E",
    "__ZN100_$LT$dioxus_core..any_props..VProps$LT$F$C$P$C$M$GT$$u20$as$u20$dioxus_core..any_props..AnyProps$GT$6render28_$u7b$$u7b$closure$u7d$$u7d$17hfbf53ec21013c460E",
    "__ZN4core3ops8function6FnOnce9call_once17hb1250f82ab822998E",
    "__ZN115_$LT$core..panic..unwind_safe..AssertUnwindSafe$LT$F$GT$$u20$as$u20$core..ops..function..FnOnce$LT$$LP$$RP$$GT$$GT$9call_once17h156df01ab880499cE",
    "__ZN3std9panicking3try7do_call17h12b00f5c1afca0e5E",
    "__ZN3std5panic12catch_unwind17h9623dc210b33032cE",
    "__ZN100_$LT$dioxus_core..any_props..VProps$LT$F$C$P$C$M$GT$$u20$as$u20$dioxus_core..any_props..AnyProps$GT$6render17h724478bd10ae45abE",
    "l___unnamed_8_harness-df4868ea1b5cadad.e382ndox9j839chz9esswif6u.rcgu.o",
    "__ZN100_$LT$dioxus_core..any_props..VProps$LT$F$C$P$C$M$GT$$u20$as$u20$dioxus_core..any_props..AnyProps$GT$9duplicate17hbcc315160800576aE",
    "l___unnamed_2_harness-df4868ea1b5cadad.c6wmz0dxwkc7r3o02wr81u9oy.rcgu.o",
    "__ZN11dioxus_core5nodes10VComponent3new17h64d3a0812e77f0edE",
    "__ZN11dioxus_core10properties10Properties15into_vcomponent17h7753673354bc1edfE",
    "__ZN7harness13zoom_controls17h3a73844835917e06E",
    "__ZN4core3ops8function2Fn4call17heb220dff9cb64346E",
    "__ZN119_$LT$F$u20$as$u20$dioxus_core..properties..ComponentFunction$LT$$LP$$RP$$C$dioxus_core..properties..EmptyMarker$GT$$GT$7rebuild17h1485b718be4dcc97E",
    "__ZN100_$LT$dioxus_core..any_props..VProps$LT$F$C$P$C$M$GT$$u20$as$u20$dioxus_core..any_props..AnyProps$GT$6render28_$u7b$$u7b$closure$u7d$$u7d$17h5f5c31c2c4fcd3edE",
    "__ZN4core3ops8function6FnOnce9call_once17haf610c889d773240E",
    "__ZN115_$LT$core..panic..unwind_safe..AssertUnwindSafe$LT$F$GT$$u20$as$u20$core..ops..function..FnOnce$LT$$LP$$RP$$GT$$GT$9call_once17he0621d6d235d0c08E",
    "__ZN3std9panicking3try7do_call17h8e7a94c382a5e60cE",
    "__ZN3std5panic12catch_unwind17h1f6291afe955bbfcE",
    "__ZN100_$LT$dioxus_core..any_props..VProps$LT$F$C$P$C$M$GT$$u20$as$u20$dioxus_core..any_props..AnyProps$GT$6render17h45480eba660d5148E",
    "l___unnamed_7_harness-df4868ea1b5cadad.c6wmz0dxwkc7r3o02wr81u9oy.rcgu.o",
    "__ZN11dioxus_core5nodes10VComponent3new17hcaaa6729c16dc137E",
    "__ZN11dioxus_core10properties10Properties15into_vcomponent17h79bafc80aea2aab7E",
    "___hotreload_start_app",
    "__ZN7harness3app17h400735d18e59eec4E",
    "__ZN7harness4main17h4654d77b3f37379bE",
    "_main",
]
__ZN94_$LT$generational_box..unsync..UnsyncStorage$u20$as$u20$generational_box..Storage$LT$T$GT$$GT$6new_rc17h56d8735c63aa68c5E
[
    "__ZN94_$LT$generational_box..unsync..UnsyncStorage$u20$as$u20$generational_box..Storage$LT$T$GT$$GT$6new_rc17h56d8735c63aa68c5E",
    "__ZN16generational_box14Owner$LT$S$GT$21insert_rc_with_caller17h548d0f7f5e72e97eE",
    "__ZN14dioxus_signals10copy_value22CopyValue$LT$T$C$S$GT$15new_with_caller17hcb76596888c447d7E",
    "__ZN14dioxus_signals10copy_value22CopyValue$LT$T$C$S$GT$14new_maybe_sync17h1b6ad78b4df515afE",
    "__ZN14dioxus_signals6signal19Signal$LT$T$C$S$GT$14new_maybe_sync17ha7528862cb9c2381E",
    "__ZN14dioxus_signals6signal15Signal$LT$T$GT$3new17h7b6013ed01240d91E",
    "__ZN14dioxus_signals6global6signal125_$LT$impl$u20$dioxus_signals..global..InitializeFromFunction$LT$T$GT$$u20$for$u20$dioxus_signals..signal..Signal$LT$T$GT$$GT$24initialize_from_function17h7a63303ed51e7775E",
    "__ZN14dioxus_signals6global19Global$LT$T$C$R$GT$7resolve28_$u7b$$u7b$closure$u7d$$u7d$17h36e2699e94ee70c1E",
    "__ZN11dioxus_core7runtime7Runtime8on_scope17hdb6d3a3476122c40E",
    "__ZN11dioxus_core13scope_context46_$LT$impl$u20$dioxus_core..scopes..ScopeId$GT$10in_runtime17h8839846f97dbe1ddE",
    "__ZN14dioxus_signals6global19Global$LT$T$C$R$GT$7resolve17hfca595143252f355E",
    "__ZN94_$LT$dioxus_signals..global..Global$LT$T$C$R$GT$$u20$as$u20$dioxus_signals..read..Readable$GT$18try_read_unchecked17hdf66837701d74a96E",
    "__ZN14dioxus_signals4read8Readable8try_read17h4c98c1be567ce532E",
    "__ZN14dioxus_signals4read8Readable4read17he797328ed7d7b867E",
    "__ZN14dioxus_signals4read8Readable4with17h40ffefba83cf26acE",
    "__ZN14dioxus_signals6global6signal130_$LT$impl$u20$core..fmt..Display$u20$for$u20$dioxus_signals..global..Global$LT$dioxus_signals..signal..Signal$LT$T$GT$$C$T$GT$$GT$3fmt17h9bae2be454d81459E",
    "__ZN14dioxus_signals6global6signal130_$LT$impl$u20$core..fmt..Display$u20$for$u20$dioxus_signals..global..Global$LT$dioxus_signals..signal..Signal$LT$T$GT$$C$T$GT$$GT$33fmt$u7b$$u7b$reify.shim$u7d$$u7d$17h6614528e6ee54eebE",
    "__ZN7harness11GlobalInner17h56fe43aa3656219bE",
    "__ZN4core3ops8function2Fn4call17h3c8f851ee4dd175bE",
    "__ZN119_$LT$F$u20$as$u20$dioxus_core..properties..ComponentFunction$LT$$LP$$RP$$C$dioxus_core..properties..EmptyMarker$GT$$GT$7rebuild17hf7f1250efa3fb04cE",
    "__ZN100_$LT$dioxus_core..any_props..VProps$LT$F$C$P$C$M$GT$$u20$as$u20$dioxus_core..any_props..AnyProps$GT$6render28_$u7b$$u7b$closure$u7d$$u7d$17h025de8e22280b207E",
    "__ZN4core3ops8function6FnOnce9call_once17h371dcf20a99f261bE",
    "__ZN115_$LT$core..panic..unwind_safe..AssertUnwindSafe$LT$F$GT$$u20$as$u20$core..ops..function..FnOnce$LT$$LP$$RP$$GT$$GT$9call_once17h25a92dc564e3d7ffE",
    "__ZN3std9panicking3try7do_call17ha023efa9fb2ba8f7E",
    "__ZN3std5panic12catch_unwind17h48b71dec49934bf1E",
    "__ZN100_$LT$dioxus_core..any_props..VProps$LT$F$C$P$C$M$GT$$u20$as$u20$dioxus_core..any_props..AnyProps$GT$6render17h543a97c06bfefa3bE",
    "l___unnamed_4_harness-df4868ea1b5cadad.e382ndox9j839chz9esswif6u.rcgu.o",
    "__ZN100_$LT$dioxus_core..any_props..VProps$LT$F$C$P$C$M$GT$$u20$as$u20$dioxus_core..any_props..AnyProps$GT$9duplicate17h675ac73f4925ce25E",
    "l___unnamed_4_harness-df4868ea1b5cadad.c6wmz0dxwkc7r3o02wr81u9oy.rcgu.o",
    "__ZN11dioxus_core5nodes10VComponent3new17h993f8b3d9eb93954E",
    "__ZN11dioxus_core10properties10Properties15into_vcomponent17h965196ec13444056E",
    "__ZN7harness5Child17h2b32aeaba0b4c00dE",
    "__ZN4core3ops8function2Fn4call17hf86b26e1f09dbfc5E",
    "__ZN73_$LT$F$u20$as$u20$dioxus_core..properties..ComponentFunction$LT$P$GT$$GT$7rebuild17hdcc2e237eec08339E",
    "__ZN100_$LT$dioxus_core..any_props..VProps$LT$F$C$P$C$M$GT$$u20$as$u20$dioxus_core..any_props..AnyProps$GT$6render28_$u7b$$u7b$closure$u7d$$u7d$17hfbf53ec21013c460E",
    "__ZN4core3ops8function6FnOnce9call_once17hb1250f82ab822998E",
    "__ZN115_$LT$core..panic..unwind_safe..AssertUnwindSafe$LT$F$GT$$u20$as$u20$core..ops..function..FnOnce$LT$$LP$$RP$$GT$$GT$9call_once17h156df01ab880499cE",
    "__ZN3std9panicking3try7do_call17h12b00f5c1afca0e5E",
    "__ZN3std5panic12catch_unwind17h9623dc210b33032cE",
    "__ZN100_$LT$dioxus_core..any_props..VProps$LT$F$C$P$C$M$GT$$u20$as$u20$dioxus_core..any_props..AnyProps$GT$6render17h724478bd10ae45abE",
    "l___unnamed_8_harness-df4868ea1b5cadad.e382ndox9j839chz9esswif6u.rcgu.o",
    "__ZN100_$LT$dioxus_core..any_props..VProps$LT$F$C$P$C$M$GT$$u20$as$u20$dioxus_core..any_props..AnyProps$GT$9duplicate17hbcc315160800576aE",
    "l___unnamed_2_harness-df4868ea1b5cadad.c6wmz0dxwkc7r3o02wr81u9oy.rcgu.o",
    "__ZN11dioxus_core5nodes10VComponent3new17h64d3a0812e77f0edE",
    "__ZN11dioxus_core10properties10Properties15into_vcomponent17h7753673354bc1edfE",
    "__ZN7harness13zoom_controls17h3a73844835917e06E",
    "__ZN4core3ops8function2Fn4call17heb220dff9cb64346E",
    "__ZN119_$LT$F$u20$as$u20$dioxus_core..properties..ComponentFunction$LT$$LP$$RP$$C$dioxus_core..properties..EmptyMarker$GT$$GT$7rebuild17h1485b718be4dcc97E",
    "__ZN100_$LT$dioxus_core..any_props..VProps$LT$F$C$P$C$M$GT$$u20$as$u20$dioxus_core..any_props..AnyProps$GT$6render28_$u7b$$u7b$closure$u7d$$u7d$17h5f5c31c2c4fcd3edE",
    "__ZN4core3ops8function6FnOnce9call_once17haf610c889d773240E",
    "__ZN115_$LT$core..panic..unwind_safe..AssertUnwindSafe$LT$F$GT$$u20$as$u20$core..ops..function..FnOnce$LT$$LP$$RP$$GT$$GT$9call_once17he0621d6d235d0c08E",
    "__ZN3std9panicking3try7do_call17h8e7a94c382a5e60cE",
    "__ZN3std5panic12catch_unwind17h1f6291afe955bbfcE",
    "__ZN100_$LT$dioxus_core..any_props..VProps$LT$F$C$P$C$M$GT$$u20$as$u20$dioxus_core..any_props..AnyProps$GT$6render17h45480eba660d5148E",
    "l___unnamed_7_harness-df4868ea1b5cadad.c6wmz0dxwkc7r3o02wr81u9oy.rcgu.o",
    "__ZN11dioxus_core5nodes10VComponent3new17hcaaa6729c16dc137E",
    "__ZN11dioxus_core10properties10Properties15into_vcomponent17h79bafc80aea2aab7E",
    "___hotreload_start_app",
    "__ZN7harness3app17h400735d18e59eec4E",
    "__ZN7harness4main17h4654d77b3f37379bE",
    "_main",
]
l___unnamed_8_harness-df4868ea1b5cadad.5qrn0xfhbv2rouh4f52itu55i.rcgu.o
[
    "l___unnamed_8_harness-df4868ea1b5cadad.5qrn0xfhbv2rouh4f52itu55i.rcgu.o",
    "__ZN14dioxus_signals6global6signal125_$LT$impl$u20$dioxus_signals..global..InitializeFromFunction$LT$T$GT$$u20$for$u20$dioxus_signals..signal..Signal$LT$T$GT$$GT$24initialize_from_function17h7a63303ed51e7775E",
    "__ZN14dioxus_signals6global19Global$LT$T$C$R$GT$7resolve28_$u7b$$u7b$closure$u7d$$u7d$17h36e2699e94ee70c1E",
    "__ZN11dioxus_core7runtime7Runtime8on_scope17hdb6d3a3476122c40E",
    "__ZN11dioxus_core13scope_context46_$LT$impl$u20$dioxus_core..scopes..ScopeId$GT$10in_runtime17h8839846f97dbe1ddE",
    "__ZN14dioxus_signals6global19Global$LT$T$C$R$GT$7resolve17hfca595143252f355E",
    "__ZN94_$LT$dioxus_signals..global..Global$LT$T$C$R$GT$$u20$as$u20$dioxus_signals..read..Readable$GT$18try_read_unchecked17hdf66837701d74a96E",
    "__ZN14dioxus_signals4read8Readable8try_read17h4c98c1be567ce532E",
    "__ZN14dioxus_signals4read8Readable4read17he797328ed7d7b867E",
    "__ZN14dioxus_signals4read8Readable4with17h40ffefba83cf26acE",
    "__ZN14dioxus_signals6global6signal130_$LT$impl$u20$core..fmt..Display$u20$for$u20$dioxus_signals..global..Global$LT$dioxus_signals..signal..Signal$LT$T$GT$$C$T$GT$$GT$3fmt17h9bae2be454d81459E",
    "__ZN14dioxus_signals6global6signal130_$LT$impl$u20$core..fmt..Display$u20$for$u20$dioxus_signals..global..Global$LT$dioxus_signals..signal..Signal$LT$T$GT$$C$T$GT$$GT$33fmt$u7b$$u7b$reify.shim$u7d$$u7d$17h6614528e6ee54eebE",
    "__ZN7harness11GlobalInner17h56fe43aa3656219bE",
    "__ZN4core3ops8function2Fn4call17h3c8f851ee4dd175bE",
    "__ZN119_$LT$F$u20$as$u20$dioxus_core..properties..ComponentFunction$LT$$LP$$RP$$C$dioxus_core..properties..EmptyMarker$GT$$GT$7rebuild17hf7f1250efa3fb04cE",
    "__ZN100_$LT$dioxus_core..any_props..VProps$LT$F$C$P$C$M$GT$$u20$as$u20$dioxus_core..any_props..AnyProps$GT$6render28_$u7b$$u7b$closure$u7d$$u7d$17h025de8e22280b207E",
    "__ZN4core3ops8function6FnOnce9call_once17h371dcf20a99f261bE",
    "__ZN115_$LT$core..panic..unwind_safe..AssertUnwindSafe$LT$F$GT$$u20$as$u20$core..ops..function..FnOnce$LT$$LP$$RP$$GT$$GT$9call_once17h25a92dc564e3d7ffE",
    "__ZN3std9panicking3try7do_call17ha023efa9fb2ba8f7E",
    "__ZN3std5panic12catch_unwind17h48b71dec49934bf1E",
    "__ZN100_$LT$dioxus_core..any_props..VProps$LT$F$C$P$C$M$GT$$u20$as$u20$dioxus_core..any_props..AnyProps$GT$6render17h543a97c06bfefa3bE",
    "l___unnamed_4_harness-df4868ea1b5cadad.e382ndox9j839chz9esswif6u.rcgu.o",
    "__ZN100_$LT$dioxus_core..any_props..VProps$LT$F$C$P$C$M$GT$$u20$as$u20$dioxus_core..any_props..AnyProps$GT$9duplicate17h675ac73f4925ce25E",
    "l___unnamed_4_harness-df4868ea1b5cadad.c6wmz0dxwkc7r3o02wr81u9oy.rcgu.o",
    "__ZN11dioxus_core5nodes10VComponent3new17h993f8b3d9eb93954E",
    "__ZN11dioxus_core10properties10Properties15into_vcomponent17h965196ec13444056E",
    "__ZN7harness5Child17h2b32aeaba0b4c00dE",
    "__ZN4core3ops8function2Fn4call17hf86b26e1f09dbfc5E",
    "__ZN73_$LT$F$u20$as$u20$dioxus_core..properties..ComponentFunction$LT$P$GT$$GT$7rebuild17hdcc2e237eec08339E",
    "__ZN100_$LT$dioxus_core..any_props..VProps$LT$F$C$P$C$M$GT$$u20$as$u20$dioxus_core..any_props..AnyProps$GT$6render28_$u7b$$u7b$closure$u7d$$u7d$17hfbf53ec21013c460E",
    "__ZN4core3ops8function6FnOnce9call_once17hb1250f82ab822998E",
    "__ZN115_$LT$core..panic..unwind_safe..AssertUnwindSafe$LT$F$GT$$u20$as$u20$core..ops..function..FnOnce$LT$$LP$$RP$$GT$$GT$9call_once17h156df01ab880499cE",
    "__ZN3std9panicking3try7do_call17h12b00f5c1afca0e5E",
    "__ZN3std5panic12catch_unwind17h9623dc210b33032cE",
    "__ZN100_$LT$dioxus_core..any_props..VProps$LT$F$C$P$C$M$GT$$u20$as$u20$dioxus_core..any_props..AnyProps$GT$6render17h724478bd10ae45abE",
    "l___unnamed_8_harness-df4868ea1b5cadad.e382ndox9j839chz9esswif6u.rcgu.o",
    "__ZN100_$LT$dioxus_core..any_props..VProps$LT$F$C$P$C$M$GT$$u20$as$u20$dioxus_core..any_props..AnyProps$GT$9duplicate17hbcc315160800576aE",
    "l___unnamed_2_harness-df4868ea1b5cadad.c6wmz0dxwkc7r3o02wr81u9oy.rcgu.o",
    "__ZN11dioxus_core5nodes10VComponent3new17h64d3a0812e77f0edE",
    "__ZN11dioxus_core10properties10Properties15into_vcomponent17h7753673354bc1edfE",
    "__ZN7harness13zoom_controls17h3a73844835917e06E",
    "__ZN4core3ops8function2Fn4call17heb220dff9cb64346E",
    "__ZN119_$LT$F$u20$as$u20$dioxus_core..properties..ComponentFunction$LT$$LP$$RP$$C$dioxus_core..properties..EmptyMarker$GT$$GT$7rebuild17h1485b718be4dcc97E",
    "__ZN100_$LT$dioxus_core..any_props..VProps$LT$F$C$P$C$M$GT$$u20$as$u20$dioxus_core..any_props..AnyProps$GT$6render28_$u7b$$u7b$closure$u7d$$u7d$17h5f5c31c2c4fcd3edE",
    "__ZN4core3ops8function6FnOnce9call_once17haf610c889d773240E",
    "__ZN115_$LT$core..panic..unwind_safe..AssertUnwindSafe$LT$F$GT$$u20$as$u20$core..ops..function..FnOnce$LT$$LP$$RP$$GT$$GT$9call_once17he0621d6d235d0c08E",
    "__ZN3std9panicking3try7do_call17h8e7a94c382a5e60cE",
    "__ZN3std5panic12catch_unwind17h1f6291afe955bbfcE",
    "__ZN100_$LT$dioxus_core..any_props..VProps$LT$F$C$P$C$M$GT$$u20$as$u20$dioxus_core..any_props..AnyProps$GT$6render17h45480eba660d5148E",
    "l___unnamed_7_harness-df4868ea1b5cadad.c6wmz0dxwkc7r3o02wr81u9oy.rcgu.o",
    "__ZN11dioxus_core5nodes10VComponent3new17hcaaa6729c16dc137E",
    "__ZN11dioxus_core10properties10Properties15into_vcomponent17h79bafc80aea2aab7E",
    "___hotreload_start_app",
    "__ZN7harness3app17h400735d18e59eec4E",
    "__ZN7harness4main17h4654d77b3f37379bE",
    "_main",
]
GCC_except_table22
[]
__ZN14dioxus_signals6signal15Signal$LT$T$GT$3new17h7b6013ed01240d91E
[
    "__ZN14dioxus_signals6signal15Signal$LT$T$GT$3new17h7b6013ed01240d91E",
    "__ZN14dioxus_signals6global6signal125_$LT$impl$u20$dioxus_signals..global..InitializeFromFunction$LT$T$GT$$u20$for$u20$dioxus_signals..signal..Signal$LT$T$GT$$GT$24initialize_from_function17h7a63303ed51e7775E",
    "__ZN14dioxus_signals6global19Global$LT$T$C$R$GT$7resolve28_$u7b$$u7b$closure$u7d$$u7d$17h36e2699e94ee70c1E",
    "__ZN11dioxus_core7runtime7Runtime8on_scope17hdb6d3a3476122c40E",
    "__ZN11dioxus_core13scope_context46_$LT$impl$u20$dioxus_core..scopes..ScopeId$GT$10in_runtime17h8839846f97dbe1ddE",
    "__ZN14dioxus_signals6global19Global$LT$T$C$R$GT$7resolve17hfca595143252f355E",
    "__ZN94_$LT$dioxus_signals..global..Global$LT$T$C$R$GT$$u20$as$u20$dioxus_signals..read..Readable$GT$18try_read_unchecked17hdf66837701d74a96E",
    "__ZN14dioxus_signals4read8Readable8try_read17h4c98c1be567ce532E",
    "__ZN14dioxus_signals4read8Readable4read17he797328ed7d7b867E",
    "__ZN14dioxus_signals4read8Readable4with17h40ffefba83cf26acE",
    "__ZN14dioxus_signals6global6signal130_$LT$impl$u20$core..fmt..Display$u20$for$u20$dioxus_signals..global..Global$LT$dioxus_signals..signal..Signal$LT$T$GT$$C$T$GT$$GT$3fmt17h9bae2be454d81459E",
    "__ZN14dioxus_signals6global6signal130_$LT$impl$u20$core..fmt..Display$u20$for$u20$dioxus_signals..global..Global$LT$dioxus_signals..signal..Signal$LT$T$GT$$C$T$GT$$GT$33fmt$u7b$$u7b$reify.shim$u7d$$u7d$17h6614528e6ee54eebE",
    "__ZN7harness11GlobalInner17h56fe43aa3656219bE",
    "__ZN4core3ops8function2Fn4call17h3c8f851ee4dd175bE",
    "__ZN119_$LT$F$u20$as$u20$dioxus_core..properties..ComponentFunction$LT$$LP$$RP$$C$dioxus_core..properties..EmptyMarker$GT$$GT$7rebuild17hf7f1250efa3fb04cE",
    "__ZN100_$LT$dioxus_core..any_props..VProps$LT$F$C$P$C$M$GT$$u20$as$u20$dioxus_core..any_props..AnyProps$GT$6render28_$u7b$$u7b$closure$u7d$$u7d$17h025de8e22280b207E",
    "__ZN4core3ops8function6FnOnce9call_once17h371dcf20a99f261bE",
    "__ZN115_$LT$core..panic..unwind_safe..AssertUnwindSafe$LT$F$GT$$u20$as$u20$core..ops..function..FnOnce$LT$$LP$$RP$$GT$$GT$9call_once17h25a92dc564e3d7ffE",
    "__ZN3std9panicking3try7do_call17ha023efa9fb2ba8f7E",
    "__ZN3std5panic12catch_unwind17h48b71dec49934bf1E",
    "__ZN100_$LT$dioxus_core..any_props..VProps$LT$F$C$P$C$M$GT$$u20$as$u20$dioxus_core..any_props..AnyProps$GT$6render17h543a97c06bfefa3bE",
    "l___unnamed_4_harness-df4868ea1b5cadad.e382ndox9j839chz9esswif6u.rcgu.o",
    "__ZN100_$LT$dioxus_core..any_props..VProps$LT$F$C$P$C$M$GT$$u20$as$u20$dioxus_core..any_props..AnyProps$GT$9duplicate17h675ac73f4925ce25E",
    "l___unnamed_4_harness-df4868ea1b5cadad.c6wmz0dxwkc7r3o02wr81u9oy.rcgu.o",
    "__ZN11dioxus_core5nodes10VComponent3new17h993f8b3d9eb93954E",
    "__ZN11dioxus_core10properties10Properties15into_vcomponent17h965196ec13444056E",
    "__ZN7harness5Child17h2b32aeaba0b4c00dE",
    "__ZN4core3ops8function2Fn4call17hf86b26e1f09dbfc5E",
    "__ZN73_$LT$F$u20$as$u20$dioxus_core..properties..ComponentFunction$LT$P$GT$$GT$7rebuild17hdcc2e237eec08339E",
    "__ZN100_$LT$dioxus_core..any_props..VProps$LT$F$C$P$C$M$GT$$u20$as$u20$dioxus_core..any_props..AnyProps$GT$6render28_$u7b$$u7b$closure$u7d$$u7d$17hfbf53ec21013c460E",
    "__ZN4core3ops8function6FnOnce9call_once17hb1250f82ab822998E",
    "__ZN115_$LT$core..panic..unwind_safe..AssertUnwindSafe$LT$F$GT$$u20$as$u20$core..ops..function..FnOnce$LT$$LP$$RP$$GT$$GT$9call_once17h156df01ab880499cE",
    "__ZN3std9panicking3try7do_call17h12b00f5c1afca0e5E",
    "__ZN3std5panic12catch_unwind17h9623dc210b33032cE",
    "__ZN100_$LT$dioxus_core..any_props..VProps$LT$F$C$P$C$M$GT$$u20$as$u20$dioxus_core..any_props..AnyProps$GT$6render17h724478bd10ae45abE",
    "l___unnamed_8_harness-df4868ea1b5cadad.e382ndox9j839chz9esswif6u.rcgu.o",
    "__ZN100_$LT$dioxus_core..any_props..VProps$LT$F$C$P$C$M$GT$$u20$as$u20$dioxus_core..any_props..AnyProps$GT$9duplicate17hbcc315160800576aE",
    "l___unnamed_2_harness-df4868ea1b5cadad.c6wmz0dxwkc7r3o02wr81u9oy.rcgu.o",
    "__ZN11dioxus_core5nodes10VComponent3new17h64d3a0812e77f0edE",
    "__ZN11dioxus_core10properties10Properties15into_vcomponent17h7753673354bc1edfE",
    "__ZN7harness13zoom_controls17h3a73844835917e06E",
    "__ZN4core3ops8function2Fn4call17heb220dff9cb64346E",
    "__ZN119_$LT$F$u20$as$u20$dioxus_core..properties..ComponentFunction$LT$$LP$$RP$$C$dioxus_core..properties..EmptyMarker$GT$$GT$7rebuild17h1485b718be4dcc97E",
    "__ZN100_$LT$dioxus_core..any_props..VProps$LT$F$C$P$C$M$GT$$u20$as$u20$dioxus_core..any_props..AnyProps$GT$6render28_$u7b$$u7b$closure$u7d$$u7d$17h5f5c31c2c4fcd3edE",
    "__ZN4core3ops8function6FnOnce9call_once17haf610c889d773240E",
    "__ZN115_$LT$core..panic..unwind_safe..AssertUnwindSafe$LT$F$GT$$u20$as$u20$core..ops..function..FnOnce$LT$$LP$$RP$$GT$$GT$9call_once17he0621d6d235d0c08E",
    "__ZN3std9panicking3try7do_call17h8e7a94c382a5e60cE",
    "__ZN3std5panic12catch_unwind17h1f6291afe955bbfcE",
    "__ZN100_$LT$dioxus_core..any_props..VProps$LT$F$C$P$C$M$GT$$u20$as$u20$dioxus_core..any_props..AnyProps$GT$6render17h45480eba660d5148E",
    "l___unnamed_7_harness-df4868ea1b5cadad.c6wmz0dxwkc7r3o02wr81u9oy.rcgu.o",
    "__ZN11dioxus_core5nodes10VComponent3new17hcaaa6729c16dc137E",
    "__ZN11dioxus_core10properties10Properties15into_vcomponent17h79bafc80aea2aab7E",
    "___hotreload_start_app",
    "__ZN7harness3app17h400735d18e59eec4E",
    "__ZN7harness4main17h4654d77b3f37379bE",
    "_main",
]
l___unnamed_13_harness-df4868ea1b5cadad.57p783wz0mdr6vmpci89msrb7.rcgu.o
[
    "l___unnamed_13_harness-df4868ea1b5cadad.57p783wz0mdr6vmpci89msrb7.rcgu.o",
    "__ZN14dioxus_signals8warnings20__copy_value_hoisted23__Callable$LT$T$C$S$GT$16__run_if_enabled28_$u7b$$u7b$closure$u7d$$u7d$18copy_value_hoisted17h0527a627c5bd33efE",
    "__ZN14dioxus_signals8warnings20__copy_value_hoisted23__Callable$LT$T$C$S$GT$16__run_if_enabled28_$u7b$$u7b$closure$u7d$$u7d$17h34ba434c7e412c6eE",
    "__ZN8warnings8warnings9WarningId10if_enabled17h1c488e65130df26eE",
    "__ZN14dioxus_signals8warnings20__copy_value_hoisted23__Callable$LT$T$C$S$GT$16__run_if_enabled17ha36d84debd7d7620E",
    "l___unnamed_5_harness-df4868ea1b5cadad.57p783wz0mdr6vmpci89msrb7.rcgu.o",
    "__ZN115_$LT$dioxus_signals..warnings..__copy_value_hoisted..__Callable$LT$T$C$S$GT$$u20$as$u20$core..ops..deref..Deref$GT$5deref17hab58e9f55bd3c5deE",
    "__ZN101_$LT$dioxus_signals..copy_value..CopyValue$LT$T$C$S$GT$$u20$as$u20$dioxus_signals..read..Readable$GT$18try_read_unchecked17hcbacf7f4f84ff432E",
    "__ZN14dioxus_signals4read8Readable8try_read17h3f53ef44cef9d75bE",
    "__ZN14dioxus_signals8warnings41__signal_read_and_write_in_reactive_scope23__Callable$LT$T$C$S$GT$16__run_if_enabled28_$u7b$$u7b$closure$u7d$$u7d$39signal_read_and_write_in_reactive_scope17h1ad309ff6660ea62E",
    "__ZN14dioxus_signals8warnings41__signal_read_and_write_in_reactive_scope23__Callable$LT$T$C$S$GT$16__run_if_enabled28_$u7b$$u7b$closure$u7d$$u7d$17h1b0f83081d19009bE",
    "__ZN8warnings8warnings9WarningId10if_enabled17ha6ef6cba53b085f6E",
    "__ZN14dioxus_signals8warnings41__signal_read_and_write_in_reactive_scope23__Callable$LT$T$C$S$GT$16__run_if_enabled17he99b0af967ae97feE",
    "l___unnamed_2_harness-df4868ea1b5cadad.a64hlspyskaofkyts3cee93he.rcgu.o",
    "__ZN136_$LT$dioxus_signals..warnings..__signal_read_and_write_in_reactive_scope..__Callable$LT$T$C$S$GT$$u20$as$u20$core..ops..deref..Deref$GT$5deref17h86c7f97abc3f6c06E",
    "__ZN99_$LT$dioxus_signals..signal..SignalSubscriberDrop$LT$T$C$S$GT$$u20$as$u20$core..ops..drop..Drop$GT$4drop17h330fbe4f6664ee0bE",
    "__ZN4core3ptr118drop_in_place$LT$dioxus_signals..signal..SignalSubscriberDrop$LT$i64$C$generational_box..unsync..UnsyncStorage$GT$$GT$17h25b2886afdcde067E",
    "l___unnamed_21_harness-df4868ea1b5cadad.5qrn0xfhbv2rouh4f52itu55i.rcgu.o",
    "__ZN95_$LT$dioxus_signals..signal..Signal$LT$T$C$S$GT$$u20$as$u20$dioxus_signals..write..Writable$GT$19try_write_unchecked28_$u7b$$u7b$closure$u7d$$u7d$17he1b9191098da229cE",
    "__ZN4core6result19Result$LT$T$C$E$GT$3map17he4a924266e5e9d5aE",
    "__ZN95_$LT$dioxus_signals..signal..Signal$LT$T$C$S$GT$$u20$as$u20$dioxus_signals..write..Writable$GT$19try_write_unchecked17h4cba87c5ead1eb17E",
    "__ZN14dioxus_signals6global19Global$LT$T$C$R$GT$5write17h2228387cbea56f90E",
    "__ZN7harness11GlobalInner28_$u7b$$u7b$closure$u7d$$u7d$17hb42c5660948e5f3bE",
    "__ZN11dioxus_core6events26Callback$LT$Args$C$Ret$GT$3new28_$u7b$$u7b$closure$u7d$$u7d$17h6f96a569a9f12b13E",
    "l___unnamed_9_harness-df4868ea1b5cadad.egexdem49eejgynie32zwugcu.rcgu.o",
    "__ZN11dioxus_core6events26Callback$LT$Args$C$Ret$GT$3new17he13b8bd10ebc92d6E",
    "__ZN169_$LT$dioxus_core..events..Callback$LT$Args$C$Ret$GT$$u20$as$u20$dioxus_core..properties..SuperFrom$LT$Function$C$dioxus_core..events..MarkerWrapper$LT$Marker$GT$$GT$$GT$10super_from17h0f0cdd7a8468e271E",
    "__ZN69_$LT$T$u20$as$u20$dioxus_core..properties..SuperInto$LT$O$C$M$GT$$GT$10super_into17he799bb527ae17417E",
    "__ZN11dioxus_html6events5mouse7onclick28_$u7b$$u7b$closure$u7d$$u7d$17hcda8013b3fb0a7b1E",
    "__ZN11dioxus_core16generational_box10with_owner17hb0ca740788bcf0beE",
    "__ZN11dioxus_html6events5mouse7onclick17hcc75453cf267d2c1E",
    "__ZN11dioxus_html6events5mouse7onclick26call_with_explicit_closure17hc65524ea0f855dd4E",
    "__ZN7harness11GlobalInner17h56fe43aa3656219bE",
    "__ZN4core3ops8function2Fn4call17h3c8f851ee4dd175bE",
    "__ZN119_$LT$F$u20$as$u20$dioxus_core..properties..ComponentFunction$LT$$LP$$RP$$C$dioxus_core..properties..EmptyMarker$GT$$GT$7rebuild17hf7f1250efa3fb04cE",
    "__ZN100_$LT$dioxus_core..any_props..VProps$LT$F$C$P$C$M$GT$$u20$as$u20$dioxus_core..any_props..AnyProps$GT$6render28_$u7b$$u7b$closure$u7d$$u7d$17h025de8e22280b207E",
    "__ZN4core3ops8function6FnOnce9call_once17h371dcf20a99f261bE",
    "__ZN115_$LT$core..panic..unwind_safe..AssertUnwindSafe$LT$F$GT$$u20$as$u20$core..ops..function..FnOnce$LT$$LP$$RP$$GT$$GT$9call_once17h25a92dc564e3d7ffE",
    "__ZN3std9panicking3try7do_call17ha023efa9fb2ba8f7E",
    "__ZN3std5panic12catch_unwind17h48b71dec49934bf1E",
    "__ZN100_$LT$dioxus_core..any_props..VProps$LT$F$C$P$C$M$GT$$u20$as$u20$dioxus_core..any_props..AnyProps$GT$6render17h543a97c06bfefa3bE",
    "l___unnamed_4_harness-df4868ea1b5cadad.e382ndox9j839chz9esswif6u.rcgu.o",
    "__ZN100_$LT$dioxus_core..any_props..VProps$LT$F$C$P$C$M$GT$$u20$as$u20$dioxus_core..any_props..AnyProps$GT$9duplicate17h675ac73f4925ce25E",
    "l___unnamed_4_harness-df4868ea1b5cadad.c6wmz0dxwkc7r3o02wr81u9oy.rcgu.o",
    "__ZN11dioxus_core5nodes10VComponent3new17h993f8b3d9eb93954E",
    "__ZN11dioxus_core10properties10Properties15into_vcomponent17h965196ec13444056E",
    "__ZN7harness5Child17h2b32aeaba0b4c00dE",
    "__ZN4core3ops8function2Fn4call17hf86b26e1f09dbfc5E",
    "__ZN73_$LT$F$u20$as$u20$dioxus_core..properties..ComponentFunction$LT$P$GT$$GT$7rebuild17hdcc2e237eec08339E",
    "__ZN100_$LT$dioxus_core..any_props..VProps$LT$F$C$P$C$M$GT$$u20$as$u20$dioxus_core..any_props..AnyProps$GT$6render28_$u7b$$u7b$closure$u7d$$u7d$17hfbf53ec21013c460E",
    "__ZN4core3ops8function6FnOnce9call_once17hb1250f82ab822998E",
    "__ZN115_$LT$core..panic..unwind_safe..AssertUnwindSafe$LT$F$GT$$u20$as$u20$core..ops..function..FnOnce$LT$$LP$$RP$$GT$$GT$9call_once17h156df01ab880499cE",
    "__ZN3std9panicking3try7do_call17h12b00f5c1afca0e5E",
    "__ZN3std5panic12catch_unwind17h9623dc210b33032cE",
    "__ZN100_$LT$dioxus_core..any_props..VProps$LT$F$C$P$C$M$GT$$u20$as$u20$dioxus_core..any_props..AnyProps$GT$6render17h724478bd10ae45abE",
    "l___unnamed_8_harness-df4868ea1b5cadad.e382ndox9j839chz9esswif6u.rcgu.o",
    "__ZN100_$LT$dioxus_core..any_props..VProps$LT$F$C$P$C$M$GT$$u20$as$u20$dioxus_core..any_props..AnyProps$GT$9duplicate17hbcc315160800576aE",
    "l___unnamed_2_harness-df4868ea1b5cadad.c6wmz0dxwkc7r3o02wr81u9oy.rcgu.o",
    "__ZN11dioxus_core5nodes10VComponent3new17h64d3a0812e77f0edE",
    "__ZN11dioxus_core10properties10Properties15into_vcomponent17h7753673354bc1edfE",
    "__ZN7harness13zoom_controls17h3a73844835917e06E",
    "__ZN4core3ops8function2Fn4call17heb220dff9cb64346E",
    "__ZN119_$LT$F$u20$as$u20$dioxus_core..properties..ComponentFunction$LT$$LP$$RP$$C$dioxus_core..properties..EmptyMarker$GT$$GT$7rebuild17h1485b718be4dcc97E",
    "__ZN100_$LT$dioxus_core..any_props..VProps$LT$F$C$P$C$M$GT$$u20$as$u20$dioxus_core..any_props..AnyProps$GT$6render28_$u7b$$u7b$closure$u7d$$u7d$17h5f5c31c2c4fcd3edE",
    "__ZN4core3ops8function6FnOnce9call_once17haf610c889d773240E",
    "__ZN115_$LT$core..panic..unwind_safe..AssertUnwindSafe$LT$F$GT$$u20$as$u20$core..ops..function..FnOnce$LT$$LP$$RP$$GT$$GT$9call_once17he0621d6d235d0c08E",
    "__ZN3std9panicking3try7do_call17h8e7a94c382a5e60cE",
    "__ZN3std5panic12catch_unwind17h1f6291afe955bbfcE",
    "__ZN100_$LT$dioxus_core..any_props..VProps$LT$F$C$P$C$M$GT$$u20$as$u20$dioxus_core..any_props..AnyProps$GT$6render17h45480eba660d5148E",
    "l___unnamed_7_harness-df4868ea1b5cadad.c6wmz0dxwkc7r3o02wr81u9oy.rcgu.o",
    "__ZN11dioxus_core5nodes10VComponent3new17hcaaa6729c16dc137E",
    "__ZN11dioxus_core10properties10Properties15into_vcomponent17h79bafc80aea2aab7E",
    "___hotreload_start_app",
    "__ZN7harness3app17h400735d18e59eec4E",
    "__ZN7harness4main17h4654d77b3f37379bE",
    "_main",
]
l___unnamed_22_harness-df4868ea1b5cadad.5qrn0xfhbv2rouh4f52itu55i.rcgu.o
[]
__ZN4core3ptr118drop_in_place$LT$dioxus_signals..signal..SignalSubscriberDrop$LT$i64$C$generational_box..unsync..UnsyncStorage$GT$$GT$17h25b2886afdcde067E
[
    "__ZN4core3ptr118drop_in_place$LT$dioxus_signals..signal..SignalSubscriberDrop$LT$i64$C$generational_box..unsync..UnsyncStorage$GT$$GT$17h25b2886afdcde067E",
    "l___unnamed_21_harness-df4868ea1b5cadad.5qrn0xfhbv2rouh4f52itu55i.rcgu.o",
    "__ZN95_$LT$dioxus_signals..signal..Signal$LT$T$C$S$GT$$u20$as$u20$dioxus_signals..write..Writable$GT$19try_write_unchecked28_$u7b$$u7b$closure$u7d$$u7d$17he1b9191098da229cE",
    "__ZN4core6result19Result$LT$T$C$E$GT$3map17he4a924266e5e9d5aE",
    "__ZN95_$LT$dioxus_signals..signal..Signal$LT$T$C$S$GT$$u20$as$u20$dioxus_signals..write..Writable$GT$19try_write_unchecked17h4cba87c5ead1eb17E",
    "__ZN14dioxus_signals6global19Global$LT$T$C$R$GT$5write17h2228387cbea56f90E",
    "__ZN7harness11GlobalInner28_$u7b$$u7b$closure$u7d$$u7d$17hb42c5660948e5f3bE",
    "__ZN11dioxus_core6events26Callback$LT$Args$C$Ret$GT$3new28_$u7b$$u7b$closure$u7d$$u7d$17h6f96a569a9f12b13E",
    "l___unnamed_9_harness-df4868ea1b5cadad.egexdem49eejgynie32zwugcu.rcgu.o",
    "__ZN11dioxus_core6events26Callback$LT$Args$C$Ret$GT$3new17he13b8bd10ebc92d6E",
    "__ZN169_$LT$dioxus_core..events..Callback$LT$Args$C$Ret$GT$$u20$as$u20$dioxus_core..properties..SuperFrom$LT$Function$C$dioxus_core..events..MarkerWrapper$LT$Marker$GT$$GT$$GT$10super_from17h0f0cdd7a8468e271E",
    "__ZN69_$LT$T$u20$as$u20$dioxus_core..properties..SuperInto$LT$O$C$M$GT$$GT$10super_into17he799bb527ae17417E",
    "__ZN11dioxus_html6events5mouse7onclick28_$u7b$$u7b$closure$u7d$$u7d$17hcda8013b3fb0a7b1E",
    "__ZN11dioxus_core16generational_box10with_owner17hb0ca740788bcf0beE",
    "__ZN11dioxus_html6events5mouse7onclick17hcc75453cf267d2c1E",
    "__ZN11dioxus_html6events5mouse7onclick26call_with_explicit_closure17hc65524ea0f855dd4E",
    "__ZN7harness11GlobalInner17h56fe43aa3656219bE",
    "__ZN4core3ops8function2Fn4call17h3c8f851ee4dd175bE",
    "__ZN119_$LT$F$u20$as$u20$dioxus_core..properties..ComponentFunction$LT$$LP$$RP$$C$dioxus_core..properties..EmptyMarker$GT$$GT$7rebuild17hf7f1250efa3fb04cE",
    "__ZN100_$LT$dioxus_core..any_props..VProps$LT$F$C$P$C$M$GT$$u20$as$u20$dioxus_core..any_props..AnyProps$GT$6render28_$u7b$$u7b$closure$u7d$$u7d$17h025de8e22280b207E",
    "__ZN4core3ops8function6FnOnce9call_once17h371dcf20a99f261bE",
    "__ZN115_$LT$core..panic..unwind_safe..AssertUnwindSafe$LT$F$GT$$u20$as$u20$core..ops..function..FnOnce$LT$$LP$$RP$$GT$$GT$9call_once17h25a92dc564e3d7ffE",
    "__ZN3std9panicking3try7do_call17ha023efa9fb2ba8f7E",
    "__ZN3std5panic12catch_unwind17h48b71dec49934bf1E",
    "__ZN100_$LT$dioxus_core..any_props..VProps$LT$F$C$P$C$M$GT$$u20$as$u20$dioxus_core..any_props..AnyProps$GT$6render17h543a97c06bfefa3bE",
    "l___unnamed_4_harness-df4868ea1b5cadad.e382ndox9j839chz9esswif6u.rcgu.o",
    "__ZN100_$LT$dioxus_core..any_props..VProps$LT$F$C$P$C$M$GT$$u20$as$u20$dioxus_core..any_props..AnyProps$GT$9duplicate17h675ac73f4925ce25E",
    "l___unnamed_4_harness-df4868ea1b5cadad.c6wmz0dxwkc7r3o02wr81u9oy.rcgu.o",
    "__ZN11dioxus_core5nodes10VComponent3new17h993f8b3d9eb93954E",
    "__ZN11dioxus_core10properties10Properties15into_vcomponent17h965196ec13444056E",
    "__ZN7harness5Child17h2b32aeaba0b4c00dE",
    "__ZN4core3ops8function2Fn4call17hf86b26e1f09dbfc5E",
    "__ZN73_$LT$F$u20$as$u20$dioxus_core..properties..ComponentFunction$LT$P$GT$$GT$7rebuild17hdcc2e237eec08339E",
    "__ZN100_$LT$dioxus_core..any_props..VProps$LT$F$C$P$C$M$GT$$u20$as$u20$dioxus_core..any_props..AnyProps$GT$6render28_$u7b$$u7b$closure$u7d$$u7d$17hfbf53ec21013c460E",
    "__ZN4core3ops8function6FnOnce9call_once17hb1250f82ab822998E",
    "__ZN115_$LT$core..panic..unwind_safe..AssertUnwindSafe$LT$F$GT$$u20$as$u20$core..ops..function..FnOnce$LT$$LP$$RP$$GT$$GT$9call_once17h156df01ab880499cE",
    "__ZN3std9panicking3try7do_call17h12b00f5c1afca0e5E",
    "__ZN3std5panic12catch_unwind17h9623dc210b33032cE",
    "__ZN100_$LT$dioxus_core..any_props..VProps$LT$F$C$P$C$M$GT$$u20$as$u20$dioxus_core..any_props..AnyProps$GT$6render17h724478bd10ae45abE",
    "l___unnamed_8_harness-df4868ea1b5cadad.e382ndox9j839chz9esswif6u.rcgu.o",
    "__ZN100_$LT$dioxus_core..any_props..VProps$LT$F$C$P$C$M$GT$$u20$as$u20$dioxus_core..any_props..AnyProps$GT$9duplicate17hbcc315160800576aE",
    "l___unnamed_2_harness-df4868ea1b5cadad.c6wmz0dxwkc7r3o02wr81u9oy.rcgu.o",
    "__ZN11dioxus_core5nodes10VComponent3new17h64d3a0812e77f0edE",
    "__ZN11dioxus_core10properties10Properties15into_vcomponent17h7753673354bc1edfE",
    "__ZN7harness13zoom_controls17h3a73844835917e06E",
    "__ZN4core3ops8function2Fn4call17heb220dff9cb64346E",
    "__ZN119_$LT$F$u20$as$u20$dioxus_core..properties..ComponentFunction$LT$$LP$$RP$$C$dioxus_core..properties..EmptyMarker$GT$$GT$7rebuild17h1485b718be4dcc97E",
    "__ZN100_$LT$dioxus_core..any_props..VProps$LT$F$C$P$C$M$GT$$u20$as$u20$dioxus_core..any_props..AnyProps$GT$6render28_$u7b$$u7b$closure$u7d$$u7d$17h5f5c31c2c4fcd3edE",
    "__ZN4core3ops8function6FnOnce9call_once17haf610c889d773240E",
    "__ZN115_$LT$core..panic..unwind_safe..AssertUnwindSafe$LT$F$GT$$u20$as$u20$core..ops..function..FnOnce$LT$$LP$$RP$$GT$$GT$9call_once17he0621d6d235d0c08E",
    "__ZN3std9panicking3try7do_call17h8e7a94c382a5e60cE",
    "__ZN3std5panic12catch_unwind17h1f6291afe955bbfcE",
    "__ZN100_$LT$dioxus_core..any_props..VProps$LT$F$C$P$C$M$GT$$u20$as$u20$dioxus_core..any_props..AnyProps$GT$6render17h45480eba660d5148E",
    "l___unnamed_7_harness-df4868ea1b5cadad.c6wmz0dxwkc7r3o02wr81u9oy.rcgu.o",
    "__ZN11dioxus_core5nodes10VComponent3new17hcaaa6729c16dc137E",
    "__ZN11dioxus_core10properties10Properties15into_vcomponent17h79bafc80aea2aab7E",
    "___hotreload_start_app",
    "__ZN7harness3app17h400735d18e59eec4E",
    "__ZN7harness4main17h4654d77b3f37379bE",
    "_main",
]
__ZN14dioxus_signals6global6signal130_$LT$impl$u20$core..fmt..Display$u20$for$u20$dioxus_signals..global..Global$LT$dioxus_signals..signal..Signal$LT$T$GT$$C$T$GT$$GT$3fmt28_$u7b$$u7b$closure$u7d$$u7d$17h2aa13a3ee1623ec1E
[
    "__ZN14dioxus_signals6global6signal130_$LT$impl$u20$core..fmt..Display$u20$for$u20$dioxus_signals..global..Global$LT$dioxus_signals..signal..Signal$LT$T$GT$$C$T$GT$$GT$3fmt28_$u7b$$u7b$closure$u7d$$u7d$17h2aa13a3ee1623ec1E",
    "__ZN14dioxus_signals4read8Readable4with17h40ffefba83cf26acE",
    "__ZN14dioxus_signals6global6signal130_$LT$impl$u20$core..fmt..Display$u20$for$u20$dioxus_signals..global..Global$LT$dioxus_signals..signal..Signal$LT$T$GT$$C$T$GT$$GT$3fmt17h9bae2be454d81459E",
    "__ZN14dioxus_signals6global6signal130_$LT$impl$u20$core..fmt..Display$u20$for$u20$dioxus_signals..global..Global$LT$dioxus_signals..signal..Signal$LT$T$GT$$C$T$GT$$GT$33fmt$u7b$$u7b$reify.shim$u7d$$u7d$17h6614528e6ee54eebE",
    "__ZN7harness11GlobalInner17h56fe43aa3656219bE",
    "__ZN4core3ops8function2Fn4call17h3c8f851ee4dd175bE",
    "__ZN119_$LT$F$u20$as$u20$dioxus_core..properties..ComponentFunction$LT$$LP$$RP$$C$dioxus_core..properties..EmptyMarker$GT$$GT$7rebuild17hf7f1250efa3fb04cE",
    "__ZN100_$LT$dioxus_core..any_props..VProps$LT$F$C$P$C$M$GT$$u20$as$u20$dioxus_core..any_props..AnyProps$GT$6render28_$u7b$$u7b$closure$u7d$$u7d$17h025de8e22280b207E",
    "__ZN4core3ops8function6FnOnce9call_once17h371dcf20a99f261bE",
    "__ZN115_$LT$core..panic..unwind_safe..AssertUnwindSafe$LT$F$GT$$u20$as$u20$core..ops..function..FnOnce$LT$$LP$$RP$$GT$$GT$9call_once17h25a92dc564e3d7ffE",
    "__ZN3std9panicking3try7do_call17ha023efa9fb2ba8f7E",
    "__ZN3std5panic12catch_unwind17h48b71dec49934bf1E",
    "__ZN100_$LT$dioxus_core..any_props..VProps$LT$F$C$P$C$M$GT$$u20$as$u20$dioxus_core..any_props..AnyProps$GT$6render17h543a97c06bfefa3bE",
    "l___unnamed_4_harness-df4868ea1b5cadad.e382ndox9j839chz9esswif6u.rcgu.o",
    "__ZN100_$LT$dioxus_core..any_props..VProps$LT$F$C$P$C$M$GT$$u20$as$u20$dioxus_core..any_props..AnyProps$GT$9duplicate17h675ac73f4925ce25E",
    "l___unnamed_4_harness-df4868ea1b5cadad.c6wmz0dxwkc7r3o02wr81u9oy.rcgu.o",
    "__ZN11dioxus_core5nodes10VComponent3new17h993f8b3d9eb93954E",
    "__ZN11dioxus_core10properties10Properties15into_vcomponent17h965196ec13444056E",
    "__ZN7harness5Child17h2b32aeaba0b4c00dE",
    "__ZN4core3ops8function2Fn4call17hf86b26e1f09dbfc5E",
    "__ZN73_$LT$F$u20$as$u20$dioxus_core..properties..ComponentFunction$LT$P$GT$$GT$7rebuild17hdcc2e237eec08339E",
    "__ZN100_$LT$dioxus_core..any_props..VProps$LT$F$C$P$C$M$GT$$u20$as$u20$dioxus_core..any_props..AnyProps$GT$6render28_$u7b$$u7b$closure$u7d$$u7d$17hfbf53ec21013c460E",
    "__ZN4core3ops8function6FnOnce9call_once17hb1250f82ab822998E",
    "__ZN115_$LT$core..panic..unwind_safe..AssertUnwindSafe$LT$F$GT$$u20$as$u20$core..ops..function..FnOnce$LT$$LP$$RP$$GT$$GT$9call_once17h156df01ab880499cE",
    "__ZN3std9panicking3try7do_call17h12b00f5c1afca0e5E",
    "__ZN3std5panic12catch_unwind17h9623dc210b33032cE",
    "__ZN100_$LT$dioxus_core..any_props..VProps$LT$F$C$P$C$M$GT$$u20$as$u20$dioxus_core..any_props..AnyProps$GT$6render17h724478bd10ae45abE",
    "l___unnamed_8_harness-df4868ea1b5cadad.e382ndox9j839chz9esswif6u.rcgu.o",
    "__ZN100_$LT$dioxus_core..any_props..VProps$LT$F$C$P$C$M$GT$$u20$as$u20$dioxus_core..any_props..AnyProps$GT$9duplicate17hbcc315160800576aE",
    "l___unnamed_2_harness-df4868ea1b5cadad.c6wmz0dxwkc7r3o02wr81u9oy.rcgu.o",
    "__ZN11dioxus_core5nodes10VComponent3new17h64d3a0812e77f0edE",
    "__ZN11dioxus_core10properties10Properties15into_vcomponent17h7753673354bc1edfE",
    "__ZN7harness13zoom_controls17h3a73844835917e06E",
    "__ZN4core3ops8function2Fn4call17heb220dff9cb64346E",
    "__ZN119_$LT$F$u20$as$u20$dioxus_core..properties..ComponentFunction$LT$$LP$$RP$$C$dioxus_core..properties..EmptyMarker$GT$$GT$7rebuild17h1485b718be4dcc97E",
    "__ZN100_$LT$dioxus_core..any_props..VProps$LT$F$C$P$C$M$GT$$u20$as$u20$dioxus_core..any_props..AnyProps$GT$6render28_$u7b$$u7b$closure$u7d$$u7d$17h5f5c31c2c4fcd3edE",
    "__ZN4core3ops8function6FnOnce9call_once17haf610c889d773240E",
    "__ZN115_$LT$core..panic..unwind_safe..AssertUnwindSafe$LT$F$GT$$u20$as$u20$core..ops..function..FnOnce$LT$$LP$$RP$$GT$$GT$9call_once17he0621d6d235d0c08E",
    "__ZN3std9panicking3try7do_call17h8e7a94c382a5e60cE",
    "__ZN3std5panic12catch_unwind17h1f6291afe955bbfcE",
    "__ZN100_$LT$dioxus_core..any_props..VProps$LT$F$C$P$C$M$GT$$u20$as$u20$dioxus_core..any_props..AnyProps$GT$6render17h45480eba660d5148E",
    "l___unnamed_7_harness-df4868ea1b5cadad.c6wmz0dxwkc7r3o02wr81u9oy.rcgu.o",
    "__ZN11dioxus_core5nodes10VComponent3new17hcaaa6729c16dc137E",
    "__ZN11dioxus_core10properties10Properties15into_vcomponent17h79bafc80aea2aab7E",
    "___hotreload_start_app",
    "__ZN7harness3app17h400735d18e59eec4E",
    "__ZN7harness4main17h4654d77b3f37379bE",
    "_main",
]
__ZN4core3ptr142drop_in_place$LT$generational_box..references..GenerationalRef$LT$core..cell..Ref$LT$dioxus_signals..signal..SignalData$LT$i64$GT$$GT$$GT$$GT$17h983a430c983b2758E
[
    "__ZN4core3ptr142drop_in_place$LT$generational_box..references..GenerationalRef$LT$core..cell..Ref$LT$dioxus_signals..signal..SignalData$LT$i64$GT$$GT$$GT$$GT$17h983a430c983b2758E",
    "__ZN94_$LT$dioxus_signals..signal..Signal$LT$T$C$S$GT$$u20$as$u20$dioxus_signals..read..Readable$GT$18try_read_unchecked17h9b44c3b9dae81db5E",
    "__ZN94_$LT$dioxus_signals..global..Global$LT$T$C$R$GT$$u20$as$u20$dioxus_signals..read..Readable$GT$18try_read_unchecked17hdf66837701d74a96E",
    "__ZN14dioxus_signals4read8Readable8try_read17h4c98c1be567ce532E",
    "__ZN14dioxus_signals4read8Readable4read17he797328ed7d7b867E",
    "__ZN14dioxus_signals4read8Readable4with17h40ffefba83cf26acE",
    "__ZN14dioxus_signals6global6signal130_$LT$impl$u20$core..fmt..Display$u20$for$u20$dioxus_signals..global..Global$LT$dioxus_signals..signal..Signal$LT$T$GT$$C$T$GT$$GT$3fmt17h9bae2be454d81459E",
    "__ZN14dioxus_signals6global6signal130_$LT$impl$u20$core..fmt..Display$u20$for$u20$dioxus_signals..global..Global$LT$dioxus_signals..signal..Signal$LT$T$GT$$C$T$GT$$GT$33fmt$u7b$$u7b$reify.shim$u7d$$u7d$17h6614528e6ee54eebE",
    "__ZN7harness11GlobalInner17h56fe43aa3656219bE",
    "__ZN4core3ops8function2Fn4call17h3c8f851ee4dd175bE",
    "__ZN119_$LT$F$u20$as$u20$dioxus_core..properties..ComponentFunction$LT$$LP$$RP$$C$dioxus_core..properties..EmptyMarker$GT$$GT$7rebuild17hf7f1250efa3fb04cE",
    "__ZN100_$LT$dioxus_core..any_props..VProps$LT$F$C$P$C$M$GT$$u20$as$u20$dioxus_core..any_props..AnyProps$GT$6render28_$u7b$$u7b$closure$u7d$$u7d$17h025de8e22280b207E",
    "__ZN4core3ops8function6FnOnce9call_once17h371dcf20a99f261bE",
    "__ZN115_$LT$core..panic..unwind_safe..AssertUnwindSafe$LT$F$GT$$u20$as$u20$core..ops..function..FnOnce$LT$$LP$$RP$$GT$$GT$9call_once17h25a92dc564e3d7ffE",
    "__ZN3std9panicking3try7do_call17ha023efa9fb2ba8f7E",
    "__ZN3std5panic12catch_unwind17h48b71dec49934bf1E",
    "__ZN100_$LT$dioxus_core..any_props..VProps$LT$F$C$P$C$M$GT$$u20$as$u20$dioxus_core..any_props..AnyProps$GT$6render17h543a97c06bfefa3bE",
    "l___unnamed_4_harness-df4868ea1b5cadad.e382ndox9j839chz9esswif6u.rcgu.o",
    "__ZN100_$LT$dioxus_core..any_props..VProps$LT$F$C$P$C$M$GT$$u20$as$u20$dioxus_core..any_props..AnyProps$GT$9duplicate17h675ac73f4925ce25E",
    "l___unnamed_4_harness-df4868ea1b5cadad.c6wmz0dxwkc7r3o02wr81u9oy.rcgu.o",
    "__ZN11dioxus_core5nodes10VComponent3new17h993f8b3d9eb93954E",
    "__ZN11dioxus_core10properties10Properties15into_vcomponent17h965196ec13444056E",
    "__ZN7harness5Child17h2b32aeaba0b4c00dE",
    "__ZN4core3ops8function2Fn4call17hf86b26e1f09dbfc5E",
    "__ZN73_$LT$F$u20$as$u20$dioxus_core..properties..ComponentFunction$LT$P$GT$$GT$7rebuild17hdcc2e237eec08339E",
    "__ZN100_$LT$dioxus_core..any_props..VProps$LT$F$C$P$C$M$GT$$u20$as$u20$dioxus_core..any_props..AnyProps$GT$6render28_$u7b$$u7b$closure$u7d$$u7d$17hfbf53ec21013c460E",
    "__ZN4core3ops8function6FnOnce9call_once17hb1250f82ab822998E",
    "__ZN115_$LT$core..panic..unwind_safe..AssertUnwindSafe$LT$F$GT$$u20$as$u20$core..ops..function..FnOnce$LT$$LP$$RP$$GT$$GT$9call_once17h156df01ab880499cE",
    "__ZN3std9panicking3try7do_call17h12b00f5c1afca0e5E",
    "__ZN3std5panic12catch_unwind17h9623dc210b33032cE",
    "__ZN100_$LT$dioxus_core..any_props..VProps$LT$F$C$P$C$M$GT$$u20$as$u20$dioxus_core..any_props..AnyProps$GT$6render17h724478bd10ae45abE",
    "l___unnamed_8_harness-df4868ea1b5cadad.e382ndox9j839chz9esswif6u.rcgu.o",
    "__ZN100_$LT$dioxus_core..any_props..VProps$LT$F$C$P$C$M$GT$$u20$as$u20$dioxus_core..any_props..AnyProps$GT$9duplicate17hbcc315160800576aE",
    "l___unnamed_2_harness-df4868ea1b5cadad.c6wmz0dxwkc7r3o02wr81u9oy.rcgu.o",
    "__ZN11dioxus_core5nodes10VComponent3new17h64d3a0812e77f0edE",
    "__ZN11dioxus_core10properties10Properties15into_vcomponent17h7753673354bc1edfE",
    "__ZN7harness13zoom_controls17h3a73844835917e06E",
    "__ZN4core3ops8function2Fn4call17heb220dff9cb64346E",
    "__ZN119_$LT$F$u20$as$u20$dioxus_core..properties..ComponentFunction$LT$$LP$$RP$$C$dioxus_core..properties..EmptyMarker$GT$$GT$7rebuild17h1485b718be4dcc97E",
    "__ZN100_$LT$dioxus_core..any_props..VProps$LT$F$C$P$C$M$GT$$u20$as$u20$dioxus_core..any_props..AnyProps$GT$6render28_$u7b$$u7b$closure$u7d$$u7d$17h5f5c31c2c4fcd3edE",
    "__ZN4core3ops8function6FnOnce9call_once17haf610c889d773240E",
    "__ZN115_$LT$core..panic..unwind_safe..AssertUnwindSafe$LT$F$GT$$u20$as$u20$core..ops..function..FnOnce$LT$$LP$$RP$$GT$$GT$9call_once17he0621d6d235d0c08E",
    "__ZN3std9panicking3try7do_call17h8e7a94c382a5e60cE",
    "__ZN3std5panic12catch_unwind17h1f6291afe955bbfcE",
    "__ZN100_$LT$dioxus_core..any_props..VProps$LT$F$C$P$C$M$GT$$u20$as$u20$dioxus_core..any_props..AnyProps$GT$6render17h45480eba660d5148E",
    "l___unnamed_7_harness-df4868ea1b5cadad.c6wmz0dxwkc7r3o02wr81u9oy.rcgu.o",
    "__ZN11dioxus_core5nodes10VComponent3new17hcaaa6729c16dc137E",
    "__ZN11dioxus_core10properties10Properties15into_vcomponent17h79bafc80aea2aab7E",
    "___hotreload_start_app",
    "__ZN7harness3app17h400735d18e59eec4E",
    "__ZN7harness4main17h4654d77b3f37379bE",
    "_main",
]
__ZN4core4cell12Ref$LT$T$GT$10filter_map17hf2076a169800ff1fE
[
    "__ZN4core4cell12Ref$LT$T$GT$10filter_map17hf2076a169800ff1fE",
    "__ZN94_$LT$generational_box..unsync..UnsyncStorage$u20$as$u20$generational_box..Storage$LT$T$GT$$GT$8try_read17h016a876643561fa6E",
    "__ZN16generational_box28GenerationalPointer$LT$S$GT$8try_read17hdb8cc3b1a8fdba97E",
    "__ZN16generational_box28GenerationalBox$LT$T$C$S$GT$8try_read17h49094ce29cdca583E",
    "__ZN101_$LT$dioxus_signals..copy_value..CopyValue$LT$T$C$S$GT$$u20$as$u20$dioxus_signals..read..Readable$GT$18try_read_unchecked17hcbacf7f4f84ff432E",
    "__ZN14dioxus_signals4read8Readable8try_read17h3f53ef44cef9d75bE",
    "__ZN14dioxus_signals8warnings41__signal_read_and_write_in_reactive_scope23__Callable$LT$T$C$S$GT$16__run_if_enabled28_$u7b$$u7b$closure$u7d$$u7d$39signal_read_and_write_in_reactive_scope17h1ad309ff6660ea62E",
    "__ZN14dioxus_signals8warnings41__signal_read_and_write_in_reactive_scope23__Callable$LT$T$C$S$GT$16__run_if_enabled28_$u7b$$u7b$closure$u7d$$u7d$17h1b0f83081d19009bE",
    "__ZN8warnings8warnings9WarningId10if_enabled17ha6ef6cba53b085f6E",
    "__ZN14dioxus_signals8warnings41__signal_read_and_write_in_reactive_scope23__Callable$LT$T$C$S$GT$16__run_if_enabled17he99b0af967ae97feE",
    "l___unnamed_2_harness-df4868ea1b5cadad.a64hlspyskaofkyts3cee93he.rcgu.o",
    "__ZN136_$LT$dioxus_signals..warnings..__signal_read_and_write_in_reactive_scope..__Callable$LT$T$C$S$GT$$u20$as$u20$core..ops..deref..Deref$GT$5deref17h86c7f97abc3f6c06E",
    "__ZN99_$LT$dioxus_signals..signal..SignalSubscriberDrop$LT$T$C$S$GT$$u20$as$u20$core..ops..drop..Drop$GT$4drop17h330fbe4f6664ee0bE",
    "__ZN4core3ptr118drop_in_place$LT$dioxus_signals..signal..SignalSubscriberDrop$LT$i64$C$generational_box..unsync..UnsyncStorage$GT$$GT$17h25b2886afdcde067E",
    "l___unnamed_21_harness-df4868ea1b5cadad.5qrn0xfhbv2rouh4f52itu55i.rcgu.o",
    "__ZN95_$LT$dioxus_signals..signal..Signal$LT$T$C$S$GT$$u20$as$u20$dioxus_signals..write..Writable$GT$19try_write_unchecked28_$u7b$$u7b$closure$u7d$$u7d$17he1b9191098da229cE",
    "__ZN4core6result19Result$LT$T$C$E$GT$3map17he4a924266e5e9d5aE",
    "__ZN95_$LT$dioxus_signals..signal..Signal$LT$T$C$S$GT$$u20$as$u20$dioxus_signals..write..Writable$GT$19try_write_unchecked17h4cba87c5ead1eb17E",
    "__ZN14dioxus_signals6global19Global$LT$T$C$R$GT$5write17h2228387cbea56f90E",
    "__ZN7harness11GlobalInner28_$u7b$$u7b$closure$u7d$$u7d$17hb42c5660948e5f3bE",
    "__ZN11dioxus_core6events26Callback$LT$Args$C$Ret$GT$3new28_$u7b$$u7b$closure$u7d$$u7d$17h6f96a569a9f12b13E",
    "l___unnamed_9_harness-df4868ea1b5cadad.egexdem49eejgynie32zwugcu.rcgu.o",
    "__ZN11dioxus_core6events26Callback$LT$Args$C$Ret$GT$3new17he13b8bd10ebc92d6E",
    "__ZN169_$LT$dioxus_core..events..Callback$LT$Args$C$Ret$GT$$u20$as$u20$dioxus_core..properties..SuperFrom$LT$Function$C$dioxus_core..events..MarkerWrapper$LT$Marker$GT$$GT$$GT$10super_from17h0f0cdd7a8468e271E",
    "__ZN69_$LT$T$u20$as$u20$dioxus_core..properties..SuperInto$LT$O$C$M$GT$$GT$10super_into17he799bb527ae17417E",
    "__ZN11dioxus_html6events5mouse7onclick28_$u7b$$u7b$closure$u7d$$u7d$17hcda8013b3fb0a7b1E",
    "__ZN11dioxus_core16generational_box10with_owner17hb0ca740788bcf0beE",
    "__ZN11dioxus_html6events5mouse7onclick17hcc75453cf267d2c1E",
    "__ZN11dioxus_html6events5mouse7onclick26call_with_explicit_closure17hc65524ea0f855dd4E",
    "__ZN7harness11GlobalInner17h56fe43aa3656219bE",
    "__ZN4core3ops8function2Fn4call17h3c8f851ee4dd175bE",
    "__ZN119_$LT$F$u20$as$u20$dioxus_core..properties..ComponentFunction$LT$$LP$$RP$$C$dioxus_core..properties..EmptyMarker$GT$$GT$7rebuild17hf7f1250efa3fb04cE",
    "__ZN100_$LT$dioxus_core..any_props..VProps$LT$F$C$P$C$M$GT$$u20$as$u20$dioxus_core..any_props..AnyProps$GT$6render28_$u7b$$u7b$closure$u7d$$u7d$17h025de8e22280b207E",
    "__ZN4core3ops8function6FnOnce9call_once17h371dcf20a99f261bE",
    "__ZN115_$LT$core..panic..unwind_safe..AssertUnwindSafe$LT$F$GT$$u20$as$u20$core..ops..function..FnOnce$LT$$LP$$RP$$GT$$GT$9call_once17h25a92dc564e3d7ffE",
    "__ZN3std9panicking3try7do_call17ha023efa9fb2ba8f7E",
    "__ZN3std5panic12catch_unwind17h48b71dec49934bf1E",
    "__ZN100_$LT$dioxus_core..any_props..VProps$LT$F$C$P$C$M$GT$$u20$as$u20$dioxus_core..any_props..AnyProps$GT$6render17h543a97c06bfefa3bE",
    "l___unnamed_4_harness-df4868ea1b5cadad.e382ndox9j839chz9esswif6u.rcgu.o",
    "__ZN100_$LT$dioxus_core..any_props..VProps$LT$F$C$P$C$M$GT$$u20$as$u20$dioxus_core..any_props..AnyProps$GT$9duplicate17h675ac73f4925ce25E",
    "l___unnamed_4_harness-df4868ea1b5cadad.c6wmz0dxwkc7r3o02wr81u9oy.rcgu.o",
    "__ZN11dioxus_core5nodes10VComponent3new17h993f8b3d9eb93954E",
    "__ZN11dioxus_core10properties10Properties15into_vcomponent17h965196ec13444056E",
    "__ZN7harness5Child17h2b32aeaba0b4c00dE",
    "__ZN4core3ops8function2Fn4call17hf86b26e1f09dbfc5E",
    "__ZN73_$LT$F$u20$as$u20$dioxus_core..properties..ComponentFunction$LT$P$GT$$GT$7rebuild17hdcc2e237eec08339E",
    "__ZN100_$LT$dioxus_core..any_props..VProps$LT$F$C$P$C$M$GT$$u20$as$u20$dioxus_core..any_props..AnyProps$GT$6render28_$u7b$$u7b$closure$u7d$$u7d$17hfbf53ec21013c460E",
    "__ZN4core3ops8function6FnOnce9call_once17hb1250f82ab822998E",
    "__ZN115_$LT$core..panic..unwind_safe..AssertUnwindSafe$LT$F$GT$$u20$as$u20$core..ops..function..FnOnce$LT$$LP$$RP$$GT$$GT$9call_once17h156df01ab880499cE",
    "__ZN3std9panicking3try7do_call17h12b00f5c1afca0e5E",
    "__ZN3std5panic12catch_unwind17h9623dc210b33032cE",
    "__ZN100_$LT$dioxus_core..any_props..VProps$LT$F$C$P$C$M$GT$$u20$as$u20$dioxus_core..any_props..AnyProps$GT$6render17h724478bd10ae45abE",
    "l___unnamed_8_harness-df4868ea1b5cadad.e382ndox9j839chz9esswif6u.rcgu.o",
    "__ZN100_$LT$dioxus_core..any_props..VProps$LT$F$C$P$C$M$GT$$u20$as$u20$dioxus_core..any_props..AnyProps$GT$9duplicate17hbcc315160800576aE",
    "l___unnamed_2_harness-df4868ea1b5cadad.c6wmz0dxwkc7r3o02wr81u9oy.rcgu.o",
    "__ZN11dioxus_core5nodes10VComponent3new17h64d3a0812e77f0edE",
    "__ZN11dioxus_core10properties10Properties15into_vcomponent17h7753673354bc1edfE",
    "__ZN7harness13zoom_controls17h3a73844835917e06E",
    "__ZN4core3ops8function2Fn4call17heb220dff9cb64346E",
    "__ZN119_$LT$F$u20$as$u20$dioxus_core..properties..ComponentFunction$LT$$LP$$RP$$C$dioxus_core..properties..EmptyMarker$GT$$GT$7rebuild17h1485b718be4dcc97E",
    "__ZN100_$LT$dioxus_core..any_props..VProps$LT$F$C$P$C$M$GT$$u20$as$u20$dioxus_core..any_props..AnyProps$GT$6render28_$u7b$$u7b$closure$u7d$$u7d$17h5f5c31c2c4fcd3edE",
    "__ZN4core3ops8function6FnOnce9call_once17haf610c889d773240E",
    "__ZN115_$LT$core..panic..unwind_safe..AssertUnwindSafe$LT$F$GT$$u20$as$u20$core..ops..function..FnOnce$LT$$LP$$RP$$GT$$GT$9call_once17he0621d6d235d0c08E",
    "__ZN3std9panicking3try7do_call17h8e7a94c382a5e60cE",
    "__ZN3std5panic12catch_unwind17h1f6291afe955bbfcE",
    "__ZN100_$LT$dioxus_core..any_props..VProps$LT$F$C$P$C$M$GT$$u20$as$u20$dioxus_core..any_props..AnyProps$GT$6render17h45480eba660d5148E",
    "l___unnamed_7_harness-df4868ea1b5cadad.c6wmz0dxwkc7r3o02wr81u9oy.rcgu.o",
    "__ZN11dioxus_core5nodes10VComponent3new17hcaaa6729c16dc137E",
    "__ZN11dioxus_core10properties10Properties15into_vcomponent17h79bafc80aea2aab7E",
    "___hotreload_start_app",
    "__ZN7harness3app17h400735d18e59eec4E",
    "__ZN7harness4main17h4654d77b3f37379bE",
    "_main",
]
l___unnamed_8_harness-df4868ea1b5cadad.cvbn14ab4uo17p1ckzp14p9v7.rcgu.o
[
    "l___unnamed_8_harness-df4868ea1b5cadad.cvbn14ab4uo17p1ckzp14p9v7.rcgu.o",
    "__ZN14dioxus_signals6global19Global$LT$T$C$R$GT$7resolve17hfca595143252f355E",
    "__ZN94_$LT$dioxus_signals..global..Global$LT$T$C$R$GT$$u20$as$u20$dioxus_signals..read..Readable$GT$18try_read_unchecked17hdf66837701d74a96E",
    "__ZN14dioxus_signals4read8Readable8try_read17h4c98c1be567ce532E",
    "__ZN14dioxus_signals4read8Readable4read17he797328ed7d7b867E",
    "__ZN14dioxus_signals4read8Readable4with17h40ffefba83cf26acE",
    "__ZN14dioxus_signals6global6signal130_$LT$impl$u20$core..fmt..Display$u20$for$u20$dioxus_signals..global..Global$LT$dioxus_signals..signal..Signal$LT$T$GT$$C$T$GT$$GT$3fmt17h9bae2be454d81459E",
    "__ZN14dioxus_signals6global6signal130_$LT$impl$u20$core..fmt..Display$u20$for$u20$dioxus_signals..global..Global$LT$dioxus_signals..signal..Signal$LT$T$GT$$C$T$GT$$GT$33fmt$u7b$$u7b$reify.shim$u7d$$u7d$17h6614528e6ee54eebE",
    "__ZN7harness11GlobalInner17h56fe43aa3656219bE",
    "__ZN4core3ops8function2Fn4call17h3c8f851ee4dd175bE",
    "__ZN119_$LT$F$u20$as$u20$dioxus_core..properties..ComponentFunction$LT$$LP$$RP$$C$dioxus_core..properties..EmptyMarker$GT$$GT$7rebuild17hf7f1250efa3fb04cE",
    "__ZN100_$LT$dioxus_core..any_props..VProps$LT$F$C$P$C$M$GT$$u20$as$u20$dioxus_core..any_props..AnyProps$GT$6render28_$u7b$$u7b$closure$u7d$$u7d$17h025de8e22280b207E",
    "__ZN4core3ops8function6FnOnce9call_once17h371dcf20a99f261bE",
    "__ZN115_$LT$core..panic..unwind_safe..AssertUnwindSafe$LT$F$GT$$u20$as$u20$core..ops..function..FnOnce$LT$$LP$$RP$$GT$$GT$9call_once17h25a92dc564e3d7ffE",
    "__ZN3std9panicking3try7do_call17ha023efa9fb2ba8f7E",
    "__ZN3std5panic12catch_unwind17h48b71dec49934bf1E",
    "__ZN100_$LT$dioxus_core..any_props..VProps$LT$F$C$P$C$M$GT$$u20$as$u20$dioxus_core..any_props..AnyProps$GT$6render17h543a97c06bfefa3bE",
    "l___unnamed_4_harness-df4868ea1b5cadad.e382ndox9j839chz9esswif6u.rcgu.o",
    "__ZN100_$LT$dioxus_core..any_props..VProps$LT$F$C$P$C$M$GT$$u20$as$u20$dioxus_core..any_props..AnyProps$GT$9duplicate17h675ac73f4925ce25E",
    "l___unnamed_4_harness-df4868ea1b5cadad.c6wmz0dxwkc7r3o02wr81u9oy.rcgu.o",
    "__ZN11dioxus_core5nodes10VComponent3new17h993f8b3d9eb93954E",
    "__ZN11dioxus_core10properties10Properties15into_vcomponent17h965196ec13444056E",
    "__ZN7harness5Child17h2b32aeaba0b4c00dE",
    "__ZN4core3ops8function2Fn4call17hf86b26e1f09dbfc5E",
    "__ZN73_$LT$F$u20$as$u20$dioxus_core..properties..ComponentFunction$LT$P$GT$$GT$7rebuild17hdcc2e237eec08339E",
    "__ZN100_$LT$dioxus_core..any_props..VProps$LT$F$C$P$C$M$GT$$u20$as$u20$dioxus_core..any_props..AnyProps$GT$6render28_$u7b$$u7b$closure$u7d$$u7d$17hfbf53ec21013c460E",
    "__ZN4core3ops8function6FnOnce9call_once17hb1250f82ab822998E",
    "__ZN115_$LT$core..panic..unwind_safe..AssertUnwindSafe$LT$F$GT$$u20$as$u20$core..ops..function..FnOnce$LT$$LP$$RP$$GT$$GT$9call_once17h156df01ab880499cE",
    "__ZN3std9panicking3try7do_call17h12b00f5c1afca0e5E",
    "__ZN3std5panic12catch_unwind17h9623dc210b33032cE",
    "__ZN100_$LT$dioxus_core..any_props..VProps$LT$F$C$P$C$M$GT$$u20$as$u20$dioxus_core..any_props..AnyProps$GT$6render17h724478bd10ae45abE",
    "l___unnamed_8_harness-df4868ea1b5cadad.e382ndox9j839chz9esswif6u.rcgu.o",
    "__ZN100_$LT$dioxus_core..any_props..VProps$LT$F$C$P$C$M$GT$$u20$as$u20$dioxus_core..any_props..AnyProps$GT$9duplicate17hbcc315160800576aE",
    "l___unnamed_2_harness-df4868ea1b5cadad.c6wmz0dxwkc7r3o02wr81u9oy.rcgu.o",
    "__ZN11dioxus_core5nodes10VComponent3new17h64d3a0812e77f0edE",
    "__ZN11dioxus_core10properties10Properties15into_vcomponent17h7753673354bc1edfE",
    "__ZN7harness13zoom_controls17h3a73844835917e06E",
    "__ZN4core3ops8function2Fn4call17heb220dff9cb64346E",
    "__ZN119_$LT$F$u20$as$u20$dioxus_core..properties..ComponentFunction$LT$$LP$$RP$$C$dioxus_core..properties..EmptyMarker$GT$$GT$7rebuild17h1485b718be4dcc97E",
    "__ZN100_$LT$dioxus_core..any_props..VProps$LT$F$C$P$C$M$GT$$u20$as$u20$dioxus_core..any_props..AnyProps$GT$6render28_$u7b$$u7b$closure$u7d$$u7d$17h5f5c31c2c4fcd3edE",
    "__ZN4core3ops8function6FnOnce9call_once17haf610c889d773240E",
    "__ZN115_$LT$core..panic..unwind_safe..AssertUnwindSafe$LT$F$GT$$u20$as$u20$core..ops..function..FnOnce$LT$$LP$$RP$$GT$$GT$9call_once17he0621d6d235d0c08E",
    "__ZN3std9panicking3try7do_call17h8e7a94c382a5e60cE",
    "__ZN3std5panic12catch_unwind17h1f6291afe955bbfcE",
    "__ZN100_$LT$dioxus_core..any_props..VProps$LT$F$C$P$C$M$GT$$u20$as$u20$dioxus_core..any_props..AnyProps$GT$6render17h45480eba660d5148E",
    "l___unnamed_7_harness-df4868ea1b5cadad.c6wmz0dxwkc7r3o02wr81u9oy.rcgu.o",
    "__ZN11dioxus_core5nodes10VComponent3new17hcaaa6729c16dc137E",
    "__ZN11dioxus_core10properties10Properties15into_vcomponent17h79bafc80aea2aab7E",
    "___hotreload_start_app",
    "__ZN7harness3app17h400735d18e59eec4E",
    "__ZN7harness4main17h4654d77b3f37379bE",
    "_main",
]
__ZN14dioxus_signals8warnings41__signal_read_and_write_in_reactive_scope23__Callable$LT$T$C$S$GT$16__run_if_enabled28_$u7b$$u7b$closure$u7d$$u7d$17h1b0f83081d19009bE
[
    "__ZN14dioxus_signals8warnings41__signal_read_and_write_in_reactive_scope23__Callable$LT$T$C$S$GT$16__run_if_enabled28_$u7b$$u7b$closure$u7d$$u7d$17h1b0f83081d19009bE",
    "__ZN8warnings8warnings9WarningId10if_enabled17ha6ef6cba53b085f6E",
    "__ZN14dioxus_signals8warnings41__signal_read_and_write_in_reactive_scope23__Callable$LT$T$C$S$GT$16__run_if_enabled17he99b0af967ae97feE",
    "l___unnamed_2_harness-df4868ea1b5cadad.a64hlspyskaofkyts3cee93he.rcgu.o",
    "__ZN136_$LT$dioxus_signals..warnings..__signal_read_and_write_in_reactive_scope..__Callable$LT$T$C$S$GT$$u20$as$u20$core..ops..deref..Deref$GT$5deref17h86c7f97abc3f6c06E",
    "__ZN99_$LT$dioxus_signals..signal..SignalSubscriberDrop$LT$T$C$S$GT$$u20$as$u20$core..ops..drop..Drop$GT$4drop17h330fbe4f6664ee0bE",
    "__ZN4core3ptr118drop_in_place$LT$dioxus_signals..signal..SignalSubscriberDrop$LT$i64$C$generational_box..unsync..UnsyncStorage$GT$$GT$17h25b2886afdcde067E",
    "l___unnamed_21_harness-df4868ea1b5cadad.5qrn0xfhbv2rouh4f52itu55i.rcgu.o",
    "__ZN95_$LT$dioxus_signals..signal..Signal$LT$T$C$S$GT$$u20$as$u20$dioxus_signals..write..Writable$GT$19try_write_unchecked28_$u7b$$u7b$closure$u7d$$u7d$17he1b9191098da229cE",
    "__ZN4core6result19Result$LT$T$C$E$GT$3map17he4a924266e5e9d5aE",
    "__ZN95_$LT$dioxus_signals..signal..Signal$LT$T$C$S$GT$$u20$as$u20$dioxus_signals..write..Writable$GT$19try_write_unchecked17h4cba87c5ead1eb17E",
    "__ZN14dioxus_signals6global19Global$LT$T$C$R$GT$5write17h2228387cbea56f90E",
    "__ZN7harness11GlobalInner28_$u7b$$u7b$closure$u7d$$u7d$17hb42c5660948e5f3bE",
    "__ZN11dioxus_core6events26Callback$LT$Args$C$Ret$GT$3new28_$u7b$$u7b$closure$u7d$$u7d$17h6f96a569a9f12b13E",
    "l___unnamed_9_harness-df4868ea1b5cadad.egexdem49eejgynie32zwugcu.rcgu.o",
    "__ZN11dioxus_core6events26Callback$LT$Args$C$Ret$GT$3new17he13b8bd10ebc92d6E",
    "__ZN169_$LT$dioxus_core..events..Callback$LT$Args$C$Ret$GT$$u20$as$u20$dioxus_core..properties..SuperFrom$LT$Function$C$dioxus_core..events..MarkerWrapper$LT$Marker$GT$$GT$$GT$10super_from17h0f0cdd7a8468e271E",
    "__ZN69_$LT$T$u20$as$u20$dioxus_core..properties..SuperInto$LT$O$C$M$GT$$GT$10super_into17he799bb527ae17417E",
    "__ZN11dioxus_html6events5mouse7onclick28_$u7b$$u7b$closure$u7d$$u7d$17hcda8013b3fb0a7b1E",
    "__ZN11dioxus_core16generational_box10with_owner17hb0ca740788bcf0beE",
    "__ZN11dioxus_html6events5mouse7onclick17hcc75453cf267d2c1E",
    "__ZN11dioxus_html6events5mouse7onclick26call_with_explicit_closure17hc65524ea0f855dd4E",
    "__ZN7harness11GlobalInner17h56fe43aa3656219bE",
    "__ZN4core3ops8function2Fn4call17h3c8f851ee4dd175bE",
    "__ZN119_$LT$F$u20$as$u20$dioxus_core..properties..ComponentFunction$LT$$LP$$RP$$C$dioxus_core..properties..EmptyMarker$GT$$GT$7rebuild17hf7f1250efa3fb04cE",
    "__ZN100_$LT$dioxus_core..any_props..VProps$LT$F$C$P$C$M$GT$$u20$as$u20$dioxus_core..any_props..AnyProps$GT$6render28_$u7b$$u7b$closure$u7d$$u7d$17h025de8e22280b207E",
    "__ZN4core3ops8function6FnOnce9call_once17h371dcf20a99f261bE",
    "__ZN115_$LT$core..panic..unwind_safe..AssertUnwindSafe$LT$F$GT$$u20$as$u20$core..ops..function..FnOnce$LT$$LP$$RP$$GT$$GT$9call_once17h25a92dc564e3d7ffE",
    "__ZN3std9panicking3try7do_call17ha023efa9fb2ba8f7E",
    "__ZN3std5panic12catch_unwind17h48b71dec49934bf1E",
    "__ZN100_$LT$dioxus_core..any_props..VProps$LT$F$C$P$C$M$GT$$u20$as$u20$dioxus_core..any_props..AnyProps$GT$6render17h543a97c06bfefa3bE",
    "l___unnamed_4_harness-df4868ea1b5cadad.e382ndox9j839chz9esswif6u.rcgu.o",
    "__ZN100_$LT$dioxus_core..any_props..VProps$LT$F$C$P$C$M$GT$$u20$as$u20$dioxus_core..any_props..AnyProps$GT$9duplicate17h675ac73f4925ce25E",
    "l___unnamed_4_harness-df4868ea1b5cadad.c6wmz0dxwkc7r3o02wr81u9oy.rcgu.o",
    "__ZN11dioxus_core5nodes10VComponent3new17h993f8b3d9eb93954E",
    "__ZN11dioxus_core10properties10Properties15into_vcomponent17h965196ec13444056E",
    "__ZN7harness5Child17h2b32aeaba0b4c00dE",
    "__ZN4core3ops8function2Fn4call17hf86b26e1f09dbfc5E",
    "__ZN73_$LT$F$u20$as$u20$dioxus_core..properties..ComponentFunction$LT$P$GT$$GT$7rebuild17hdcc2e237eec08339E",
    "__ZN100_$LT$dioxus_core..any_props..VProps$LT$F$C$P$C$M$GT$$u20$as$u20$dioxus_core..any_props..AnyProps$GT$6render28_$u7b$$u7b$closure$u7d$$u7d$17hfbf53ec21013c460E",
    "__ZN4core3ops8function6FnOnce9call_once17hb1250f82ab822998E",
    "__ZN115_$LT$core..panic..unwind_safe..AssertUnwindSafe$LT$F$GT$$u20$as$u20$core..ops..function..FnOnce$LT$$LP$$RP$$GT$$GT$9call_once17h156df01ab880499cE",
    "__ZN3std9panicking3try7do_call17h12b00f5c1afca0e5E",
    "__ZN3std5panic12catch_unwind17h9623dc210b33032cE",
    "__ZN100_$LT$dioxus_core..any_props..VProps$LT$F$C$P$C$M$GT$$u20$as$u20$dioxus_core..any_props..AnyProps$GT$6render17h724478bd10ae45abE",
    "l___unnamed_8_harness-df4868ea1b5cadad.e382ndox9j839chz9esswif6u.rcgu.o",
    "__ZN100_$LT$dioxus_core..any_props..VProps$LT$F$C$P$C$M$GT$$u20$as$u20$dioxus_core..any_props..AnyProps$GT$9duplicate17hbcc315160800576aE",
    "l___unnamed_2_harness-df4868ea1b5cadad.c6wmz0dxwkc7r3o02wr81u9oy.rcgu.o",
    "__ZN11dioxus_core5nodes10VComponent3new17h64d3a0812e77f0edE",
    "__ZN11dioxus_core10properties10Properties15into_vcomponent17h7753673354bc1edfE",
    "__ZN7harness13zoom_controls17h3a73844835917e06E",
    "__ZN4core3ops8function2Fn4call17heb220dff9cb64346E",
    "__ZN119_$LT$F$u20$as$u20$dioxus_core..properties..ComponentFunction$LT$$LP$$RP$$C$dioxus_core..properties..EmptyMarker$GT$$GT$7rebuild17h1485b718be4dcc97E",
    "__ZN100_$LT$dioxus_core..any_props..VProps$LT$F$C$P$C$M$GT$$u20$as$u20$dioxus_core..any_props..AnyProps$GT$6render28_$u7b$$u7b$closure$u7d$$u7d$17h5f5c31c2c4fcd3edE",
    "__ZN4core3ops8function6FnOnce9call_once17haf610c889d773240E",
    "__ZN115_$LT$core..panic..unwind_safe..AssertUnwindSafe$LT$F$GT$$u20$as$u20$core..ops..function..FnOnce$LT$$LP$$RP$$GT$$GT$9call_once17he0621d6d235d0c08E",
    "__ZN3std9panicking3try7do_call17h8e7a94c382a5e60cE",
    "__ZN3std5panic12catch_unwind17h1f6291afe955bbfcE",
    "__ZN100_$LT$dioxus_core..any_props..VProps$LT$F$C$P$C$M$GT$$u20$as$u20$dioxus_core..any_props..AnyProps$GT$6render17h45480eba660d5148E",
    "l___unnamed_7_harness-df4868ea1b5cadad.c6wmz0dxwkc7r3o02wr81u9oy.rcgu.o",
    "__ZN11dioxus_core5nodes10VComponent3new17hcaaa6729c16dc137E",
    "__ZN11dioxus_core10properties10Properties15into_vcomponent17h79bafc80aea2aab7E",
    "___hotreload_start_app",
    "__ZN7harness3app17h400735d18e59eec4E",
    "__ZN7harness4main17h4654d77b3f37379bE",
    "_main",
]
__ZN14dioxus_signals4read8Readable8try_read17h3f53ef44cef9d75bE
[
    "__ZN14dioxus_signals4read8Readable8try_read17h3f53ef44cef9d75bE",
    "__ZN14dioxus_signals8warnings41__signal_read_and_write_in_reactive_scope23__Callable$LT$T$C$S$GT$16__run_if_enabled28_$u7b$$u7b$closure$u7d$$u7d$39signal_read_and_write_in_reactive_scope17h1ad309ff6660ea62E",
    "__ZN14dioxus_signals8warnings41__signal_read_and_write_in_reactive_scope23__Callable$LT$T$C$S$GT$16__run_if_enabled28_$u7b$$u7b$closure$u7d$$u7d$17h1b0f83081d19009bE",
    "__ZN8warnings8warnings9WarningId10if_enabled17ha6ef6cba53b085f6E",
    "__ZN14dioxus_signals8warnings41__signal_read_and_write_in_reactive_scope23__Callable$LT$T$C$S$GT$16__run_if_enabled17he99b0af967ae97feE",
    "l___unnamed_2_harness-df4868ea1b5cadad.a64hlspyskaofkyts3cee93he.rcgu.o",
    "__ZN136_$LT$dioxus_signals..warnings..__signal_read_and_write_in_reactive_scope..__Callable$LT$T$C$S$GT$$u20$as$u20$core..ops..deref..Deref$GT$5deref17h86c7f97abc3f6c06E",
    "__ZN99_$LT$dioxus_signals..signal..SignalSubscriberDrop$LT$T$C$S$GT$$u20$as$u20$core..ops..drop..Drop$GT$4drop17h330fbe4f6664ee0bE",
    "__ZN4core3ptr118drop_in_place$LT$dioxus_signals..signal..SignalSubscriberDrop$LT$i64$C$generational_box..unsync..UnsyncStorage$GT$$GT$17h25b2886afdcde067E",
    "l___unnamed_21_harness-df4868ea1b5cadad.5qrn0xfhbv2rouh4f52itu55i.rcgu.o",
    "__ZN95_$LT$dioxus_signals..signal..Signal$LT$T$C$S$GT$$u20$as$u20$dioxus_signals..write..Writable$GT$19try_write_unchecked28_$u7b$$u7b$closure$u7d$$u7d$17he1b9191098da229cE",
    "__ZN4core6result19Result$LT$T$C$E$GT$3map17he4a924266e5e9d5aE",
    "__ZN95_$LT$dioxus_signals..signal..Signal$LT$T$C$S$GT$$u20$as$u20$dioxus_signals..write..Writable$GT$19try_write_unchecked17h4cba87c5ead1eb17E",
    "__ZN14dioxus_signals6global19Global$LT$T$C$R$GT$5write17h2228387cbea56f90E",
    "__ZN7harness11GlobalInner28_$u7b$$u7b$closure$u7d$$u7d$17hb42c5660948e5f3bE",
    "__ZN11dioxus_core6events26Callback$LT$Args$C$Ret$GT$3new28_$u7b$$u7b$closure$u7d$$u7d$17h6f96a569a9f12b13E",
    "l___unnamed_9_harness-df4868ea1b5cadad.egexdem49eejgynie32zwugcu.rcgu.o",
    "__ZN11dioxus_core6events26Callback$LT$Args$C$Ret$GT$3new17he13b8bd10ebc92d6E",
    "__ZN169_$LT$dioxus_core..events..Callback$LT$Args$C$Ret$GT$$u20$as$u20$dioxus_core..properties..SuperFrom$LT$Function$C$dioxus_core..events..MarkerWrapper$LT$Marker$GT$$GT$$GT$10super_from17h0f0cdd7a8468e271E",
    "__ZN69_$LT$T$u20$as$u20$dioxus_core..properties..SuperInto$LT$O$C$M$GT$$GT$10super_into17he799bb527ae17417E",
    "__ZN11dioxus_html6events5mouse7onclick28_$u7b$$u7b$closure$u7d$$u7d$17hcda8013b3fb0a7b1E",
    "__ZN11dioxus_core16generational_box10with_owner17hb0ca740788bcf0beE",
    "__ZN11dioxus_html6events5mouse7onclick17hcc75453cf267d2c1E",
    "__ZN11dioxus_html6events5mouse7onclick26call_with_explicit_closure17hc65524ea0f855dd4E",
    "__ZN7harness11GlobalInner17h56fe43aa3656219bE",
    "__ZN4core3ops8function2Fn4call17h3c8f851ee4dd175bE",
    "__ZN119_$LT$F$u20$as$u20$dioxus_core..properties..ComponentFunction$LT$$LP$$RP$$C$dioxus_core..properties..EmptyMarker$GT$$GT$7rebuild17hf7f1250efa3fb04cE",
    "__ZN100_$LT$dioxus_core..any_props..VProps$LT$F$C$P$C$M$GT$$u20$as$u20$dioxus_core..any_props..AnyProps$GT$6render28_$u7b$$u7b$closure$u7d$$u7d$17h025de8e22280b207E",
    "__ZN4core3ops8function6FnOnce9call_once17h371dcf20a99f261bE",
    "__ZN115_$LT$core..panic..unwind_safe..AssertUnwindSafe$LT$F$GT$$u20$as$u20$core..ops..function..FnOnce$LT$$LP$$RP$$GT$$GT$9call_once17h25a92dc564e3d7ffE",
    "__ZN3std9panicking3try7do_call17ha023efa9fb2ba8f7E",
    "__ZN3std5panic12catch_unwind17h48b71dec49934bf1E",
    "__ZN100_$LT$dioxus_core..any_props..VProps$LT$F$C$P$C$M$GT$$u20$as$u20$dioxus_core..any_props..AnyProps$GT$6render17h543a97c06bfefa3bE",
    "l___unnamed_4_harness-df4868ea1b5cadad.e382ndox9j839chz9esswif6u.rcgu.o",
    "__ZN100_$LT$dioxus_core..any_props..VProps$LT$F$C$P$C$M$GT$$u20$as$u20$dioxus_core..any_props..AnyProps$GT$9duplicate17h675ac73f4925ce25E",
    "l___unnamed_4_harness-df4868ea1b5cadad.c6wmz0dxwkc7r3o02wr81u9oy.rcgu.o",
    "__ZN11dioxus_core5nodes10VComponent3new17h993f8b3d9eb93954E",
    "__ZN11dioxus_core10properties10Properties15into_vcomponent17h965196ec13444056E",
    "__ZN7harness5Child17h2b32aeaba0b4c00dE",
    "__ZN4core3ops8function2Fn4call17hf86b26e1f09dbfc5E",
    "__ZN73_$LT$F$u20$as$u20$dioxus_core..properties..ComponentFunction$LT$P$GT$$GT$7rebuild17hdcc2e237eec08339E",
    "__ZN100_$LT$dioxus_core..any_props..VProps$LT$F$C$P$C$M$GT$$u20$as$u20$dioxus_core..any_props..AnyProps$GT$6render28_$u7b$$u7b$closure$u7d$$u7d$17hfbf53ec21013c460E",
    "__ZN4core3ops8function6FnOnce9call_once17hb1250f82ab822998E",
    "__ZN115_$LT$core..panic..unwind_safe..AssertUnwindSafe$LT$F$GT$$u20$as$u20$core..ops..function..FnOnce$LT$$LP$$RP$$GT$$GT$9call_once17h156df01ab880499cE",
    "__ZN3std9panicking3try7do_call17h12b00f5c1afca0e5E",
    "__ZN3std5panic12catch_unwind17h9623dc210b33032cE",
    "__ZN100_$LT$dioxus_core..any_props..VProps$LT$F$C$P$C$M$GT$$u20$as$u20$dioxus_core..any_props..AnyProps$GT$6render17h724478bd10ae45abE",
    "l___unnamed_8_harness-df4868ea1b5cadad.e382ndox9j839chz9esswif6u.rcgu.o",
    "__ZN100_$LT$dioxus_core..any_props..VProps$LT$F$C$P$C$M$GT$$u20$as$u20$dioxus_core..any_props..AnyProps$GT$9duplicate17hbcc315160800576aE",
    "l___unnamed_2_harness-df4868ea1b5cadad.c6wmz0dxwkc7r3o02wr81u9oy.rcgu.o",
    "__ZN11dioxus_core5nodes10VComponent3new17h64d3a0812e77f0edE",
    "__ZN11dioxus_core10properties10Properties15into_vcomponent17h7753673354bc1edfE",
    "__ZN7harness13zoom_controls17h3a73844835917e06E",
    "__ZN4core3ops8function2Fn4call17heb220dff9cb64346E",
    "__ZN119_$LT$F$u20$as$u20$dioxus_core..properties..ComponentFunction$LT$$LP$$RP$$C$dioxus_core..properties..EmptyMarker$GT$$GT$7rebuild17h1485b718be4dcc97E",
    "__ZN100_$LT$dioxus_core..any_props..VProps$LT$F$C$P$C$M$GT$$u20$as$u20$dioxus_core..any_props..AnyProps$GT$6render28_$u7b$$u7b$closure$u7d$$u7d$17h5f5c31c2c4fcd3edE",
    "__ZN4core3ops8function6FnOnce9call_once17haf610c889d773240E",
    "__ZN115_$LT$core..panic..unwind_safe..AssertUnwindSafe$LT$F$GT$$u20$as$u20$core..ops..function..FnOnce$LT$$LP$$RP$$GT$$GT$9call_once17he0621d6d235d0c08E",
    "__ZN3std9panicking3try7do_call17h8e7a94c382a5e60cE",
    "__ZN3std5panic12catch_unwind17h1f6291afe955bbfcE",
    "__ZN100_$LT$dioxus_core..any_props..VProps$LT$F$C$P$C$M$GT$$u20$as$u20$dioxus_core..any_props..AnyProps$GT$6render17h45480eba660d5148E",
    "l___unnamed_7_harness-df4868ea1b5cadad.c6wmz0dxwkc7r3o02wr81u9oy.rcgu.o",
    "__ZN11dioxus_core5nodes10VComponent3new17hcaaa6729c16dc137E",
    "__ZN11dioxus_core10properties10Properties15into_vcomponent17h79bafc80aea2aab7E",
    "___hotreload_start_app",
    "__ZN7harness3app17h400735d18e59eec4E",
    "__ZN7harness4main17h4654d77b3f37379bE",
    "_main",
]
l___unnamed_6_harness-df4868ea1b5cadad.82ypsbytozw3vin3um71rau5z.rcgu.o
[
    "l___unnamed_6_harness-df4868ea1b5cadad.82ypsbytozw3vin3um71rau5z.rcgu.o",
    "__ZN94_$LT$generational_box..unsync..UnsyncStorage$u20$as$u20$generational_box..Storage$LT$T$GT$$GT$6new_rc17h56d8735c63aa68c5E",
    "__ZN16generational_box14Owner$LT$S$GT$21insert_rc_with_caller17h548d0f7f5e72e97eE",
    "__ZN14dioxus_signals10copy_value22CopyValue$LT$T$C$S$GT$15new_with_caller17hcb76596888c447d7E",
    "__ZN14dioxus_signals10copy_value22CopyValue$LT$T$C$S$GT$14new_maybe_sync17h1b6ad78b4df515afE",
    "__ZN14dioxus_signals6signal19Signal$LT$T$C$S$GT$14new_maybe_sync17ha7528862cb9c2381E",
    "__ZN14dioxus_signals6signal15Signal$LT$T$GT$3new17h7b6013ed01240d91E",
    "__ZN14dioxus_signals6global6signal125_$LT$impl$u20$dioxus_signals..global..InitializeFromFunction$LT$T$GT$$u20$for$u20$dioxus_signals..signal..Signal$LT$T$GT$$GT$24initialize_from_function17h7a63303ed51e7775E",
    "__ZN14dioxus_signals6global19Global$LT$T$C$R$GT$7resolve28_$u7b$$u7b$closure$u7d$$u7d$17h36e2699e94ee70c1E",
    "__ZN11dioxus_core7runtime7Runtime8on_scope17hdb6d3a3476122c40E",
    "__ZN11dioxus_core13scope_context46_$LT$impl$u20$dioxus_core..scopes..ScopeId$GT$10in_runtime17h8839846f97dbe1ddE",
    "__ZN14dioxus_signals6global19Global$LT$T$C$R$GT$7resolve17hfca595143252f355E",
    "__ZN94_$LT$dioxus_signals..global..Global$LT$T$C$R$GT$$u20$as$u20$dioxus_signals..read..Readable$GT$18try_read_unchecked17hdf66837701d74a96E",
    "__ZN14dioxus_signals4read8Readable8try_read17h4c98c1be567ce532E",
    "__ZN14dioxus_signals4read8Readable4read17he797328ed7d7b867E",
    "__ZN14dioxus_signals4read8Readable4with17h40ffefba83cf26acE",
    "__ZN14dioxus_signals6global6signal130_$LT$impl$u20$core..fmt..Display$u20$for$u20$dioxus_signals..global..Global$LT$dioxus_signals..signal..Signal$LT$T$GT$$C$T$GT$$GT$3fmt17h9bae2be454d81459E",
    "__ZN14dioxus_signals6global6signal130_$LT$impl$u20$core..fmt..Display$u20$for$u20$dioxus_signals..global..Global$LT$dioxus_signals..signal..Signal$LT$T$GT$$C$T$GT$$GT$33fmt$u7b$$u7b$reify.shim$u7d$$u7d$17h6614528e6ee54eebE",
    "__ZN7harness11GlobalInner17h56fe43aa3656219bE",
    "__ZN4core3ops8function2Fn4call17h3c8f851ee4dd175bE",
    "__ZN119_$LT$F$u20$as$u20$dioxus_core..properties..ComponentFunction$LT$$LP$$RP$$C$dioxus_core..properties..EmptyMarker$GT$$GT$7rebuild17hf7f1250efa3fb04cE",
    "__ZN100_$LT$dioxus_core..any_props..VProps$LT$F$C$P$C$M$GT$$u20$as$u20$dioxus_core..any_props..AnyProps$GT$6render28_$u7b$$u7b$closure$u7d$$u7d$17h025de8e22280b207E",
    "__ZN4core3ops8function6FnOnce9call_once17h371dcf20a99f261bE",
    "__ZN115_$LT$core..panic..unwind_safe..AssertUnwindSafe$LT$F$GT$$u20$as$u20$core..ops..function..FnOnce$LT$$LP$$RP$$GT$$GT$9call_once17h25a92dc564e3d7ffE",
    "__ZN3std9panicking3try7do_call17ha023efa9fb2ba8f7E",
    "__ZN3std5panic12catch_unwind17h48b71dec49934bf1E",
    "__ZN100_$LT$dioxus_core..any_props..VProps$LT$F$C$P$C$M$GT$$u20$as$u20$dioxus_core..any_props..AnyProps$GT$6render17h543a97c06bfefa3bE",
    "l___unnamed_4_harness-df4868ea1b5cadad.e382ndox9j839chz9esswif6u.rcgu.o",
    "__ZN100_$LT$dioxus_core..any_props..VProps$LT$F$C$P$C$M$GT$$u20$as$u20$dioxus_core..any_props..AnyProps$GT$9duplicate17h675ac73f4925ce25E",
    "l___unnamed_4_harness-df4868ea1b5cadad.c6wmz0dxwkc7r3o02wr81u9oy.rcgu.o",
    "__ZN11dioxus_core5nodes10VComponent3new17h993f8b3d9eb93954E",
    "__ZN11dioxus_core10properties10Properties15into_vcomponent17h965196ec13444056E",
    "__ZN7harness5Child17h2b32aeaba0b4c00dE",
    "__ZN4core3ops8function2Fn4call17hf86b26e1f09dbfc5E",
    "__ZN73_$LT$F$u20$as$u20$dioxus_core..properties..ComponentFunction$LT$P$GT$$GT$7rebuild17hdcc2e237eec08339E",
    "__ZN100_$LT$dioxus_core..any_props..VProps$LT$F$C$P$C$M$GT$$u20$as$u20$dioxus_core..any_props..AnyProps$GT$6render28_$u7b$$u7b$closure$u7d$$u7d$17hfbf53ec21013c460E",
    "__ZN4core3ops8function6FnOnce9call_once17hb1250f82ab822998E",
    "__ZN115_$LT$core..panic..unwind_safe..AssertUnwindSafe$LT$F$GT$$u20$as$u20$core..ops..function..FnOnce$LT$$LP$$RP$$GT$$GT$9call_once17h156df01ab880499cE",
    "__ZN3std9panicking3try7do_call17h12b00f5c1afca0e5E",
    "__ZN3std5panic12catch_unwind17h9623dc210b33032cE",
    "__ZN100_$LT$dioxus_core..any_props..VProps$LT$F$C$P$C$M$GT$$u20$as$u20$dioxus_core..any_props..AnyProps$GT$6render17h724478bd10ae45abE",
    "l___unnamed_8_harness-df4868ea1b5cadad.e382ndox9j839chz9esswif6u.rcgu.o",
    "__ZN100_$LT$dioxus_core..any_props..VProps$LT$F$C$P$C$M$GT$$u20$as$u20$dioxus_core..any_props..AnyProps$GT$9duplicate17hbcc315160800576aE",
    "l___unnamed_2_harness-df4868ea1b5cadad.c6wmz0dxwkc7r3o02wr81u9oy.rcgu.o",
    "__ZN11dioxus_core5nodes10VComponent3new17h64d3a0812e77f0edE",
    "__ZN11dioxus_core10properties10Properties15into_vcomponent17h7753673354bc1edfE",
    "__ZN7harness13zoom_controls17h3a73844835917e06E",
    "__ZN4core3ops8function2Fn4call17heb220dff9cb64346E",
    "__ZN119_$LT$F$u20$as$u20$dioxus_core..properties..ComponentFunction$LT$$LP$$RP$$C$dioxus_core..properties..EmptyMarker$GT$$GT$7rebuild17h1485b718be4dcc97E",
    "__ZN100_$LT$dioxus_core..any_props..VProps$LT$F$C$P$C$M$GT$$u20$as$u20$dioxus_core..any_props..AnyProps$GT$6render28_$u7b$$u7b$closure$u7d$$u7d$17h5f5c31c2c4fcd3edE",
    "__ZN4core3ops8function6FnOnce9call_once17haf610c889d773240E",
    "__ZN115_$LT$core..panic..unwind_safe..AssertUnwindSafe$LT$F$GT$$u20$as$u20$core..ops..function..FnOnce$LT$$LP$$RP$$GT$$GT$9call_once17he0621d6d235d0c08E",
    "__ZN3std9panicking3try7do_call17h8e7a94c382a5e60cE",
    "__ZN3std5panic12catch_unwind17h1f6291afe955bbfcE",
    "__ZN100_$LT$dioxus_core..any_props..VProps$LT$F$C$P$C$M$GT$$u20$as$u20$dioxus_core..any_props..AnyProps$GT$6render17h45480eba660d5148E",
    "l___unnamed_7_harness-df4868ea1b5cadad.c6wmz0dxwkc7r3o02wr81u9oy.rcgu.o",
    "__ZN11dioxus_core5nodes10VComponent3new17hcaaa6729c16dc137E",
    "__ZN11dioxus_core10properties10Properties15into_vcomponent17h79bafc80aea2aab7E",
    "___hotreload_start_app",
    "__ZN7harness3app17h400735d18e59eec4E",
    "__ZN7harness4main17h4654d77b3f37379bE",
    "_main",
]
l___unnamed_2_harness-df4868ea1b5cadad.a64hlspyskaofkyts3cee93he.rcgu.o
[
    "l___unnamed_2_harness-df4868ea1b5cadad.a64hlspyskaofkyts3cee93he.rcgu.o",
    "__ZN136_$LT$dioxus_signals..warnings..__signal_read_and_write_in_reactive_scope..__Callable$LT$T$C$S$GT$$u20$as$u20$core..ops..deref..Deref$GT$5deref17h86c7f97abc3f6c06E",
    "__ZN99_$LT$dioxus_signals..signal..SignalSubscriberDrop$LT$T$C$S$GT$$u20$as$u20$core..ops..drop..Drop$GT$4drop17h330fbe4f6664ee0bE",
    "__ZN4core3ptr118drop_in_place$LT$dioxus_signals..signal..SignalSubscriberDrop$LT$i64$C$generational_box..unsync..UnsyncStorage$GT$$GT$17h25b2886afdcde067E",
    "l___unnamed_21_harness-df4868ea1b5cadad.5qrn0xfhbv2rouh4f52itu55i.rcgu.o",
    "__ZN95_$LT$dioxus_signals..signal..Signal$LT$T$C$S$GT$$u20$as$u20$dioxus_signals..write..Writable$GT$19try_write_unchecked28_$u7b$$u7b$closure$u7d$$u7d$17he1b9191098da229cE",
    "__ZN4core6result19Result$LT$T$C$E$GT$3map17he4a924266e5e9d5aE",
    "__ZN95_$LT$dioxus_signals..signal..Signal$LT$T$C$S$GT$$u20$as$u20$dioxus_signals..write..Writable$GT$19try_write_unchecked17h4cba87c5ead1eb17E",
    "__ZN14dioxus_signals6global19Global$LT$T$C$R$GT$5write17h2228387cbea56f90E",
    "__ZN7harness11GlobalInner28_$u7b$$u7b$closure$u7d$$u7d$17hb42c5660948e5f3bE",
    "__ZN11dioxus_core6events26Callback$LT$Args$C$Ret$GT$3new28_$u7b$$u7b$closure$u7d$$u7d$17h6f96a569a9f12b13E",
    "l___unnamed_9_harness-df4868ea1b5cadad.egexdem49eejgynie32zwugcu.rcgu.o",
    "__ZN11dioxus_core6events26Callback$LT$Args$C$Ret$GT$3new17he13b8bd10ebc92d6E",
    "__ZN169_$LT$dioxus_core..events..Callback$LT$Args$C$Ret$GT$$u20$as$u20$dioxus_core..properties..SuperFrom$LT$Function$C$dioxus_core..events..MarkerWrapper$LT$Marker$GT$$GT$$GT$10super_from17h0f0cdd7a8468e271E",
    "__ZN69_$LT$T$u20$as$u20$dioxus_core..properties..SuperInto$LT$O$C$M$GT$$GT$10super_into17he799bb527ae17417E",
    "__ZN11dioxus_html6events5mouse7onclick28_$u7b$$u7b$closure$u7d$$u7d$17hcda8013b3fb0a7b1E",
    "__ZN11dioxus_core16generational_box10with_owner17hb0ca740788bcf0beE",
    "__ZN11dioxus_html6events5mouse7onclick17hcc75453cf267d2c1E",
    "__ZN11dioxus_html6events5mouse7onclick26call_with_explicit_closure17hc65524ea0f855dd4E",
    "__ZN7harness11GlobalInner17h56fe43aa3656219bE",
    "__ZN4core3ops8function2Fn4call17h3c8f851ee4dd175bE",
    "__ZN119_$LT$F$u20$as$u20$dioxus_core..properties..ComponentFunction$LT$$LP$$RP$$C$dioxus_core..properties..EmptyMarker$GT$$GT$7rebuild17hf7f1250efa3fb04cE",
    "__ZN100_$LT$dioxus_core..any_props..VProps$LT$F$C$P$C$M$GT$$u20$as$u20$dioxus_core..any_props..AnyProps$GT$6render28_$u7b$$u7b$closure$u7d$$u7d$17h025de8e22280b207E",
    "__ZN4core3ops8function6FnOnce9call_once17h371dcf20a99f261bE",
    "__ZN115_$LT$core..panic..unwind_safe..AssertUnwindSafe$LT$F$GT$$u20$as$u20$core..ops..function..FnOnce$LT$$LP$$RP$$GT$$GT$9call_once17h25a92dc564e3d7ffE",
    "__ZN3std9panicking3try7do_call17ha023efa9fb2ba8f7E",
    "__ZN3std5panic12catch_unwind17h48b71dec49934bf1E",
    "__ZN100_$LT$dioxus_core..any_props..VProps$LT$F$C$P$C$M$GT$$u20$as$u20$dioxus_core..any_props..AnyProps$GT$6render17h543a97c06bfefa3bE",
    "l___unnamed_4_harness-df4868ea1b5cadad.e382ndox9j839chz9esswif6u.rcgu.o",
    "__ZN100_$LT$dioxus_core..any_props..VProps$LT$F$C$P$C$M$GT$$u20$as$u20$dioxus_core..any_props..AnyProps$GT$9duplicate17h675ac73f4925ce25E",
    "l___unnamed_4_harness-df4868ea1b5cadad.c6wmz0dxwkc7r3o02wr81u9oy.rcgu.o",
    "__ZN11dioxus_core5nodes10VComponent3new17h993f8b3d9eb93954E",
    "__ZN11dioxus_core10properties10Properties15into_vcomponent17h965196ec13444056E",
    "__ZN7harness5Child17h2b32aeaba0b4c00dE",
    "__ZN4core3ops8function2Fn4call17hf86b26e1f09dbfc5E",
    "__ZN73_$LT$F$u20$as$u20$dioxus_core..properties..ComponentFunction$LT$P$GT$$GT$7rebuild17hdcc2e237eec08339E",
    "__ZN100_$LT$dioxus_core..any_props..VProps$LT$F$C$P$C$M$GT$$u20$as$u20$dioxus_core..any_props..AnyProps$GT$6render28_$u7b$$u7b$closure$u7d$$u7d$17hfbf53ec21013c460E",
    "__ZN4core3ops8function6FnOnce9call_once17hb1250f82ab822998E",
    "__ZN115_$LT$core..panic..unwind_safe..AssertUnwindSafe$LT$F$GT$$u20$as$u20$core..ops..function..FnOnce$LT$$LP$$RP$$GT$$GT$9call_once17h156df01ab880499cE",
    "__ZN3std9panicking3try7do_call17h12b00f5c1afca0e5E",
    "__ZN3std5panic12catch_unwind17h9623dc210b33032cE",
    "__ZN100_$LT$dioxus_core..any_props..VProps$LT$F$C$P$C$M$GT$$u20$as$u20$dioxus_core..any_props..AnyProps$GT$6render17h724478bd10ae45abE",
    "l___unnamed_8_harness-df4868ea1b5cadad.e382ndox9j839chz9esswif6u.rcgu.o",
    "__ZN100_$LT$dioxus_core..any_props..VProps$LT$F$C$P$C$M$GT$$u20$as$u20$dioxus_core..any_props..AnyProps$GT$9duplicate17hbcc315160800576aE",
    "l___unnamed_2_harness-df4868ea1b5cadad.c6wmz0dxwkc7r3o02wr81u9oy.rcgu.o",
    "__ZN11dioxus_core5nodes10VComponent3new17h64d3a0812e77f0edE",
    "__ZN11dioxus_core10properties10Properties15into_vcomponent17h7753673354bc1edfE",
    "__ZN7harness13zoom_controls17h3a73844835917e06E",
    "__ZN4core3ops8function2Fn4call17heb220dff9cb64346E",
    "__ZN119_$LT$F$u20$as$u20$dioxus_core..properties..ComponentFunction$LT$$LP$$RP$$C$dioxus_core..properties..EmptyMarker$GT$$GT$7rebuild17h1485b718be4dcc97E",
    "__ZN100_$LT$dioxus_core..any_props..VProps$LT$F$C$P$C$M$GT$$u20$as$u20$dioxus_core..any_props..AnyProps$GT$6render28_$u7b$$u7b$closure$u7d$$u7d$17h5f5c31c2c4fcd3edE",
    "__ZN4core3ops8function6FnOnce9call_once17haf610c889d773240E",
    "__ZN115_$LT$core..panic..unwind_safe..AssertUnwindSafe$LT$F$GT$$u20$as$u20$core..ops..function..FnOnce$LT$$LP$$RP$$GT$$GT$9call_once17he0621d6d235d0c08E",
    "__ZN3std9panicking3try7do_call17h8e7a94c382a5e60cE",
    "__ZN3std5panic12catch_unwind17h1f6291afe955bbfcE",
    "__ZN100_$LT$dioxus_core..any_props..VProps$LT$F$C$P$C$M$GT$$u20$as$u20$dioxus_core..any_props..AnyProps$GT$6render17h45480eba660d5148E",
    "l___unnamed_7_harness-df4868ea1b5cadad.c6wmz0dxwkc7r3o02wr81u9oy.rcgu.o",
    "__ZN11dioxus_core5nodes10VComponent3new17hcaaa6729c16dc137E",
    "__ZN11dioxus_core10properties10Properties15into_vcomponent17h79bafc80aea2aab7E",
    "___hotreload_start_app",
    "__ZN7harness3app17h400735d18e59eec4E",
    "__ZN7harness4main17h4654d77b3f37379bE",
    "_main",
]
__ZN4core3ptr50drop_in_place$LT$core..cell..RefMut$LT$i64$GT$$GT$17hdb0273274858cd15E
[
    "__ZN4core3ptr50drop_in_place$LT$core..cell..RefMut$LT$i64$GT$$GT$17hdb0273274858cd15E",
    "__ZN4core3ptr106drop_in_place$LT$generational_box..references..GenerationalRefMut$LT$core..cell..RefMut$LT$i64$GT$$GT$$GT$17h40e0a72c4d4c9f8dE",
    "__ZN95_$LT$dioxus_signals..signal..Signal$LT$T$C$S$GT$$u20$as$u20$dioxus_signals..write..Writable$GT$19try_write_unchecked28_$u7b$$u7b$closure$u7d$$u7d$17he1b9191098da229cE",
    "__ZN4core6result19Result$LT$T$C$E$GT$3map17he4a924266e5e9d5aE",
    "__ZN95_$LT$dioxus_signals..signal..Signal$LT$T$C$S$GT$$u20$as$u20$dioxus_signals..write..Writable$GT$19try_write_unchecked17h4cba87c5ead1eb17E",
    "__ZN14dioxus_signals6global19Global$LT$T$C$R$GT$5write17h2228387cbea56f90E",
    "__ZN7harness11GlobalInner28_$u7b$$u7b$closure$u7d$$u7d$17hb42c5660948e5f3bE",
    "__ZN11dioxus_core6events26Callback$LT$Args$C$Ret$GT$3new28_$u7b$$u7b$closure$u7d$$u7d$17h6f96a569a9f12b13E",
    "l___unnamed_9_harness-df4868ea1b5cadad.egexdem49eejgynie32zwugcu.rcgu.o",
    "__ZN11dioxus_core6events26Callback$LT$Args$C$Ret$GT$3new17he13b8bd10ebc92d6E",
    "__ZN169_$LT$dioxus_core..events..Callback$LT$Args$C$Ret$GT$$u20$as$u20$dioxus_core..properties..SuperFrom$LT$Function$C$dioxus_core..events..MarkerWrapper$LT$Marker$GT$$GT$$GT$10super_from17h0f0cdd7a8468e271E",
    "__ZN69_$LT$T$u20$as$u20$dioxus_core..properties..SuperInto$LT$O$C$M$GT$$GT$10super_into17he799bb527ae17417E",
    "__ZN11dioxus_html6events5mouse7onclick28_$u7b$$u7b$closure$u7d$$u7d$17hcda8013b3fb0a7b1E",
    "__ZN11dioxus_core16generational_box10with_owner17hb0ca740788bcf0beE",
    "__ZN11dioxus_html6events5mouse7onclick17hcc75453cf267d2c1E",
    "__ZN11dioxus_html6events5mouse7onclick26call_with_explicit_closure17hc65524ea0f855dd4E",
    "__ZN7harness11GlobalInner17h56fe43aa3656219bE",
    "__ZN4core3ops8function2Fn4call17h3c8f851ee4dd175bE",
    "__ZN119_$LT$F$u20$as$u20$dioxus_core..properties..ComponentFunction$LT$$LP$$RP$$C$dioxus_core..properties..EmptyMarker$GT$$GT$7rebuild17hf7f1250efa3fb04cE",
    "__ZN100_$LT$dioxus_core..any_props..VProps$LT$F$C$P$C$M$GT$$u20$as$u20$dioxus_core..any_props..AnyProps$GT$6render28_$u7b$$u7b$closure$u7d$$u7d$17h025de8e22280b207E",
    "__ZN4core3ops8function6FnOnce9call_once17h371dcf20a99f261bE",
    "__ZN115_$LT$core..panic..unwind_safe..AssertUnwindSafe$LT$F$GT$$u20$as$u20$core..ops..function..FnOnce$LT$$LP$$RP$$GT$$GT$9call_once17h25a92dc564e3d7ffE",
    "__ZN3std9panicking3try7do_call17ha023efa9fb2ba8f7E",
    "__ZN3std5panic12catch_unwind17h48b71dec49934bf1E",
    "__ZN100_$LT$dioxus_core..any_props..VProps$LT$F$C$P$C$M$GT$$u20$as$u20$dioxus_core..any_props..AnyProps$GT$6render17h543a97c06bfefa3bE",
    "l___unnamed_4_harness-df4868ea1b5cadad.e382ndox9j839chz9esswif6u.rcgu.o",
    "__ZN100_$LT$dioxus_core..any_props..VProps$LT$F$C$P$C$M$GT$$u20$as$u20$dioxus_core..any_props..AnyProps$GT$9duplicate17h675ac73f4925ce25E",
    "l___unnamed_4_harness-df4868ea1b5cadad.c6wmz0dxwkc7r3o02wr81u9oy.rcgu.o",
    "__ZN11dioxus_core5nodes10VComponent3new17h993f8b3d9eb93954E",
    "__ZN11dioxus_core10properties10Properties15into_vcomponent17h965196ec13444056E",
    "__ZN7harness5Child17h2b32aeaba0b4c00dE",
    "__ZN4core3ops8function2Fn4call17hf86b26e1f09dbfc5E",
    "__ZN73_$LT$F$u20$as$u20$dioxus_core..properties..ComponentFunction$LT$P$GT$$GT$7rebuild17hdcc2e237eec08339E",
    "__ZN100_$LT$dioxus_core..any_props..VProps$LT$F$C$P$C$M$GT$$u20$as$u20$dioxus_core..any_props..AnyProps$GT$6render28_$u7b$$u7b$closure$u7d$$u7d$17hfbf53ec21013c460E",
    "__ZN4core3ops8function6FnOnce9call_once17hb1250f82ab822998E",
    "__ZN115_$LT$core..panic..unwind_safe..AssertUnwindSafe$LT$F$GT$$u20$as$u20$core..ops..function..FnOnce$LT$$LP$$RP$$GT$$GT$9call_once17h156df01ab880499cE",
    "__ZN3std9panicking3try7do_call17h12b00f5c1afca0e5E",
    "__ZN3std5panic12catch_unwind17h9623dc210b33032cE",
    "__ZN100_$LT$dioxus_core..any_props..VProps$LT$F$C$P$C$M$GT$$u20$as$u20$dioxus_core..any_props..AnyProps$GT$6render17h724478bd10ae45abE",
    "l___unnamed_8_harness-df4868ea1b5cadad.e382ndox9j839chz9esswif6u.rcgu.o",
    "__ZN100_$LT$dioxus_core..any_props..VProps$LT$F$C$P$C$M$GT$$u20$as$u20$dioxus_core..any_props..AnyProps$GT$9duplicate17hbcc315160800576aE",
    "l___unnamed_2_harness-df4868ea1b5cadad.c6wmz0dxwkc7r3o02wr81u9oy.rcgu.o",
    "__ZN11dioxus_core5nodes10VComponent3new17h64d3a0812e77f0edE",
    "__ZN11dioxus_core10properties10Properties15into_vcomponent17h7753673354bc1edfE",
    "__ZN7harness13zoom_controls17h3a73844835917e06E",
    "__ZN4core3ops8function2Fn4call17heb220dff9cb64346E",
    "__ZN119_$LT$F$u20$as$u20$dioxus_core..properties..ComponentFunction$LT$$LP$$RP$$C$dioxus_core..properties..EmptyMarker$GT$$GT$7rebuild17h1485b718be4dcc97E",
    "__ZN100_$LT$dioxus_core..any_props..VProps$LT$F$C$P$C$M$GT$$u20$as$u20$dioxus_core..any_props..AnyProps$GT$6render28_$u7b$$u7b$closure$u7d$$u7d$17h5f5c31c2c4fcd3edE",
    "__ZN4core3ops8function6FnOnce9call_once17haf610c889d773240E",
    "__ZN115_$LT$core..panic..unwind_safe..AssertUnwindSafe$LT$F$GT$$u20$as$u20$core..ops..function..FnOnce$LT$$LP$$RP$$GT$$GT$9call_once17he0621d6d235d0c08E",
    "__ZN3std9panicking3try7do_call17h8e7a94c382a5e60cE",
    "__ZN3std5panic12catch_unwind17h1f6291afe955bbfcE",
    "__ZN100_$LT$dioxus_core..any_props..VProps$LT$F$C$P$C$M$GT$$u20$as$u20$dioxus_core..any_props..AnyProps$GT$6render17h45480eba660d5148E",
    "l___unnamed_7_harness-df4868ea1b5cadad.c6wmz0dxwkc7r3o02wr81u9oy.rcgu.o",
    "__ZN11dioxus_core5nodes10VComponent3new17hcaaa6729c16dc137E",
    "__ZN11dioxus_core10properties10Properties15into_vcomponent17h79bafc80aea2aab7E",
    "___hotreload_start_app",
    "__ZN7harness3app17h400735d18e59eec4E",
    "__ZN7harness4main17h4654d77b3f37379bE",
    "_main",
]
ltmp7_harness-df4868ea1b5cadad.5qrn0xfhbv2rouh4f52itu55i.rcgu.o
[]
ltmp2_harness-df4868ea1b5cadad.b49gcyyo2jyzfqsfrr79kgnha.rcgu.o
[]
GCC_except_table380
[]
__ZN14dioxus_signals6global19Global$LT$T$C$R$GT$7resolve17hfca595143252f355E
[
    "__ZN14dioxus_signals6global19Global$LT$T$C$R$GT$7resolve17hfca595143252f355E",
    "__ZN94_$LT$dioxus_signals..global..Global$LT$T$C$R$GT$$u20$as$u20$dioxus_signals..read..Readable$GT$18try_read_unchecked17hdf66837701d74a96E",
    "__ZN14dioxus_signals4read8Readable8try_read17h4c98c1be567ce532E",
    "__ZN14dioxus_signals4read8Readable4read17he797328ed7d7b867E",
    "__ZN14dioxus_signals4read8Readable4with17h40ffefba83cf26acE",
    "__ZN14dioxus_signals6global6signal130_$LT$impl$u20$core..fmt..Display$u20$for$u20$dioxus_signals..global..Global$LT$dioxus_signals..signal..Signal$LT$T$GT$$C$T$GT$$GT$3fmt17h9bae2be454d81459E",
    "__ZN14dioxus_signals6global6signal130_$LT$impl$u20$core..fmt..Display$u20$for$u20$dioxus_signals..global..Global$LT$dioxus_signals..signal..Signal$LT$T$GT$$C$T$GT$$GT$33fmt$u7b$$u7b$reify.shim$u7d$$u7d$17h6614528e6ee54eebE",
    "__ZN7harness11GlobalInner17h56fe43aa3656219bE",
    "__ZN4core3ops8function2Fn4call17h3c8f851ee4dd175bE",
    "__ZN119_$LT$F$u20$as$u20$dioxus_core..properties..ComponentFunction$LT$$LP$$RP$$C$dioxus_core..properties..EmptyMarker$GT$$GT$7rebuild17hf7f1250efa3fb04cE",
    "__ZN100_$LT$dioxus_core..any_props..VProps$LT$F$C$P$C$M$GT$$u20$as$u20$dioxus_core..any_props..AnyProps$GT$6render28_$u7b$$u7b$closure$u7d$$u7d$17h025de8e22280b207E",
    "__ZN4core3ops8function6FnOnce9call_once17h371dcf20a99f261bE",
    "__ZN115_$LT$core..panic..unwind_safe..AssertUnwindSafe$LT$F$GT$$u20$as$u20$core..ops..function..FnOnce$LT$$LP$$RP$$GT$$GT$9call_once17h25a92dc564e3d7ffE",
    "__ZN3std9panicking3try7do_call17ha023efa9fb2ba8f7E",
    "__ZN3std5panic12catch_unwind17h48b71dec49934bf1E",
    "__ZN100_$LT$dioxus_core..any_props..VProps$LT$F$C$P$C$M$GT$$u20$as$u20$dioxus_core..any_props..AnyProps$GT$6render17h543a97c06bfefa3bE",
    "l___unnamed_4_harness-df4868ea1b5cadad.e382ndox9j839chz9esswif6u.rcgu.o",
    "__ZN100_$LT$dioxus_core..any_props..VProps$LT$F$C$P$C$M$GT$$u20$as$u20$dioxus_core..any_props..AnyProps$GT$9duplicate17h675ac73f4925ce25E",
    "l___unnamed_4_harness-df4868ea1b5cadad.c6wmz0dxwkc7r3o02wr81u9oy.rcgu.o",
    "__ZN11dioxus_core5nodes10VComponent3new17h993f8b3d9eb93954E",
    "__ZN11dioxus_core10properties10Properties15into_vcomponent17h965196ec13444056E",
    "__ZN7harness5Child17h2b32aeaba0b4c00dE",
    "__ZN4core3ops8function2Fn4call17hf86b26e1f09dbfc5E",
    "__ZN73_$LT$F$u20$as$u20$dioxus_core..properties..ComponentFunction$LT$P$GT$$GT$7rebuild17hdcc2e237eec08339E",
    "__ZN100_$LT$dioxus_core..any_props..VProps$LT$F$C$P$C$M$GT$$u20$as$u20$dioxus_core..any_props..AnyProps$GT$6render28_$u7b$$u7b$closure$u7d$$u7d$17hfbf53ec21013c460E",
    "__ZN4core3ops8function6FnOnce9call_once17hb1250f82ab822998E",
    "__ZN115_$LT$core..panic..unwind_safe..AssertUnwindSafe$LT$F$GT$$u20$as$u20$core..ops..function..FnOnce$LT$$LP$$RP$$GT$$GT$9call_once17h156df01ab880499cE",
    "__ZN3std9panicking3try7do_call17h12b00f5c1afca0e5E",
    "__ZN3std5panic12catch_unwind17h9623dc210b33032cE",
    "__ZN100_$LT$dioxus_core..any_props..VProps$LT$F$C$P$C$M$GT$$u20$as$u20$dioxus_core..any_props..AnyProps$GT$6render17h724478bd10ae45abE",
    "l___unnamed_8_harness-df4868ea1b5cadad.e382ndox9j839chz9esswif6u.rcgu.o",
    "__ZN100_$LT$dioxus_core..any_props..VProps$LT$F$C$P$C$M$GT$$u20$as$u20$dioxus_core..any_props..AnyProps$GT$9duplicate17hbcc315160800576aE",
    "l___unnamed_2_harness-df4868ea1b5cadad.c6wmz0dxwkc7r3o02wr81u9oy.rcgu.o",
    "__ZN11dioxus_core5nodes10VComponent3new17h64d3a0812e77f0edE",
    "__ZN11dioxus_core10properties10Properties15into_vcomponent17h7753673354bc1edfE",
    "__ZN7harness13zoom_controls17h3a73844835917e06E",
    "__ZN4core3ops8function2Fn4call17heb220dff9cb64346E",
    "__ZN119_$LT$F$u20$as$u20$dioxus_core..properties..ComponentFunction$LT$$LP$$RP$$C$dioxus_core..properties..EmptyMarker$GT$$GT$7rebuild17h1485b718be4dcc97E",
    "__ZN100_$LT$dioxus_core..any_props..VProps$LT$F$C$P$C$M$GT$$u20$as$u20$dioxus_core..any_props..AnyProps$GT$6render28_$u7b$$u7b$closure$u7d$$u7d$17h5f5c31c2c4fcd3edE",
    "__ZN4core3ops8function6FnOnce9call_once17haf610c889d773240E",
    "__ZN115_$LT$core..panic..unwind_safe..AssertUnwindSafe$LT$F$GT$$u20$as$u20$core..ops..function..FnOnce$LT$$LP$$RP$$GT$$GT$9call_once17he0621d6d235d0c08E",
    "__ZN3std9panicking3try7do_call17h8e7a94c382a5e60cE",
    "__ZN3std5panic12catch_unwind17h1f6291afe955bbfcE",
    "__ZN100_$LT$dioxus_core..any_props..VProps$LT$F$C$P$C$M$GT$$u20$as$u20$dioxus_core..any_props..AnyProps$GT$6render17h45480eba660d5148E",
    "l___unnamed_7_harness-df4868ea1b5cadad.c6wmz0dxwkc7r3o02wr81u9oy.rcgu.o",
    "__ZN11dioxus_core5nodes10VComponent3new17hcaaa6729c16dc137E",
    "__ZN11dioxus_core10properties10Properties15into_vcomponent17h79bafc80aea2aab7E",
    "___hotreload_start_app",
    "__ZN7harness3app17h400735d18e59eec4E",
    "__ZN7harness4main17h4654d77b3f37379bE",
    "_main",
]
GCC_except_table213
[]
GCC_except_table10
[]
__ZN16generational_box10references27GenerationalRefMut$LT$R$GT$3map17h554ce2d20c88e3daE
[
    "__ZN16generational_box10references27GenerationalRefMut$LT$R$GT$3map17h554ce2d20c88e3daE",
    "__ZN88_$LT$generational_box..unsync..UnsyncStorage$u20$as$u20$generational_box..AnyStorage$GT$7map_mut17h8d19b4ce2699616eE",
    "__ZN95_$LT$dioxus_signals..signal..Signal$LT$T$C$S$GT$$u20$as$u20$dioxus_signals..write..Writable$GT$19try_write_unchecked28_$u7b$$u7b$closure$u7d$$u7d$17he1b9191098da229cE",
    "__ZN4core6result19Result$LT$T$C$E$GT$3map17he4a924266e5e9d5aE",
    "__ZN95_$LT$dioxus_signals..signal..Signal$LT$T$C$S$GT$$u20$as$u20$dioxus_signals..write..Writable$GT$19try_write_unchecked17h4cba87c5ead1eb17E",
    "__ZN14dioxus_signals6global19Global$LT$T$C$R$GT$5write17h2228387cbea56f90E",
    "__ZN7harness11GlobalInner28_$u7b$$u7b$closure$u7d$$u7d$17hb42c5660948e5f3bE",
    "__ZN11dioxus_core6events26Callback$LT$Args$C$Ret$GT$3new28_$u7b$$u7b$closure$u7d$$u7d$17h6f96a569a9f12b13E",
    "l___unnamed_9_harness-df4868ea1b5cadad.egexdem49eejgynie32zwugcu.rcgu.o",
    "__ZN11dioxus_core6events26Callback$LT$Args$C$Ret$GT$3new17he13b8bd10ebc92d6E",
    "__ZN169_$LT$dioxus_core..events..Callback$LT$Args$C$Ret$GT$$u20$as$u20$dioxus_core..properties..SuperFrom$LT$Function$C$dioxus_core..events..MarkerWrapper$LT$Marker$GT$$GT$$GT$10super_from17h0f0cdd7a8468e271E",
    "__ZN69_$LT$T$u20$as$u20$dioxus_core..properties..SuperInto$LT$O$C$M$GT$$GT$10super_into17he799bb527ae17417E",
    "__ZN11dioxus_html6events5mouse7onclick28_$u7b$$u7b$closure$u7d$$u7d$17hcda8013b3fb0a7b1E",
    "__ZN11dioxus_core16generational_box10with_owner17hb0ca740788bcf0beE",
    "__ZN11dioxus_html6events5mouse7onclick17hcc75453cf267d2c1E",
    "__ZN11dioxus_html6events5mouse7onclick26call_with_explicit_closure17hc65524ea0f855dd4E",
    "__ZN7harness11GlobalInner17h56fe43aa3656219bE",
    "__ZN4core3ops8function2Fn4call17h3c8f851ee4dd175bE",
    "__ZN119_$LT$F$u20$as$u20$dioxus_core..properties..ComponentFunction$LT$$LP$$RP$$C$dioxus_core..properties..EmptyMarker$GT$$GT$7rebuild17hf7f1250efa3fb04cE",
    "__ZN100_$LT$dioxus_core..any_props..VProps$LT$F$C$P$C$M$GT$$u20$as$u20$dioxus_core..any_props..AnyProps$GT$6render28_$u7b$$u7b$closure$u7d$$u7d$17h025de8e22280b207E",
    "__ZN4core3ops8function6FnOnce9call_once17h371dcf20a99f261bE",
    "__ZN115_$LT$core..panic..unwind_safe..AssertUnwindSafe$LT$F$GT$$u20$as$u20$core..ops..function..FnOnce$LT$$LP$$RP$$GT$$GT$9call_once17h25a92dc564e3d7ffE",
    "__ZN3std9panicking3try7do_call17ha023efa9fb2ba8f7E",
    "__ZN3std5panic12catch_unwind17h48b71dec49934bf1E",
    "__ZN100_$LT$dioxus_core..any_props..VProps$LT$F$C$P$C$M$GT$$u20$as$u20$dioxus_core..any_props..AnyProps$GT$6render17h543a97c06bfefa3bE",
    "l___unnamed_4_harness-df4868ea1b5cadad.e382ndox9j839chz9esswif6u.rcgu.o",
    "__ZN100_$LT$dioxus_core..any_props..VProps$LT$F$C$P$C$M$GT$$u20$as$u20$dioxus_core..any_props..AnyProps$GT$9duplicate17h675ac73f4925ce25E",
    "l___unnamed_4_harness-df4868ea1b5cadad.c6wmz0dxwkc7r3o02wr81u9oy.rcgu.o",
    "__ZN11dioxus_core5nodes10VComponent3new17h993f8b3d9eb93954E",
    "__ZN11dioxus_core10properties10Properties15into_vcomponent17h965196ec13444056E",
    "__ZN7harness5Child17h2b32aeaba0b4c00dE",
    "__ZN4core3ops8function2Fn4call17hf86b26e1f09dbfc5E",
    "__ZN73_$LT$F$u20$as$u20$dioxus_core..properties..ComponentFunction$LT$P$GT$$GT$7rebuild17hdcc2e237eec08339E",
    "__ZN100_$LT$dioxus_core..any_props..VProps$LT$F$C$P$C$M$GT$$u20$as$u20$dioxus_core..any_props..AnyProps$GT$6render28_$u7b$$u7b$closure$u7d$$u7d$17hfbf53ec21013c460E",
    "__ZN4core3ops8function6FnOnce9call_once17hb1250f82ab822998E",
    "__ZN115_$LT$core..panic..unwind_safe..AssertUnwindSafe$LT$F$GT$$u20$as$u20$core..ops..function..FnOnce$LT$$LP$$RP$$GT$$GT$9call_once17h156df01ab880499cE",
    "__ZN3std9panicking3try7do_call17h12b00f5c1afca0e5E",
    "__ZN3std5panic12catch_unwind17h9623dc210b33032cE",
    "__ZN100_$LT$dioxus_core..any_props..VProps$LT$F$C$P$C$M$GT$$u20$as$u20$dioxus_core..any_props..AnyProps$GT$6render17h724478bd10ae45abE",
    "l___unnamed_8_harness-df4868ea1b5cadad.e382ndox9j839chz9esswif6u.rcgu.o",
    "__ZN100_$LT$dioxus_core..any_props..VProps$LT$F$C$P$C$M$GT$$u20$as$u20$dioxus_core..any_props..AnyProps$GT$9duplicate17hbcc315160800576aE",
    "l___unnamed_2_harness-df4868ea1b5cadad.c6wmz0dxwkc7r3o02wr81u9oy.rcgu.o",
    "__ZN11dioxus_core5nodes10VComponent3new17h64d3a0812e77f0edE",
    "__ZN11dioxus_core10properties10Properties15into_vcomponent17h7753673354bc1edfE",
    "__ZN7harness13zoom_controls17h3a73844835917e06E",
    "__ZN4core3ops8function2Fn4call17heb220dff9cb64346E",
    "__ZN119_$LT$F$u20$as$u20$dioxus_core..properties..ComponentFunction$LT$$LP$$RP$$C$dioxus_core..properties..EmptyMarker$GT$$GT$7rebuild17h1485b718be4dcc97E",
    "__ZN100_$LT$dioxus_core..any_props..VProps$LT$F$C$P$C$M$GT$$u20$as$u20$dioxus_core..any_props..AnyProps$GT$6render28_$u7b$$u7b$closure$u7d$$u7d$17h5f5c31c2c4fcd3edE",
    "__ZN4core3ops8function6FnOnce9call_once17haf610c889d773240E",
    "__ZN115_$LT$core..panic..unwind_safe..AssertUnwindSafe$LT$F$GT$$u20$as$u20$core..ops..function..FnOnce$LT$$LP$$RP$$GT$$GT$9call_once17he0621d6d235d0c08E",
    "__ZN3std9panicking3try7do_call17h8e7a94c382a5e60cE",
    "__ZN3std5panic12catch_unwind17h1f6291afe955bbfcE",
    "__ZN100_$LT$dioxus_core..any_props..VProps$LT$F$C$P$C$M$GT$$u20$as$u20$dioxus_core..any_props..AnyProps$GT$6render17h45480eba660d5148E",
    "l___unnamed_7_harness-df4868ea1b5cadad.c6wmz0dxwkc7r3o02wr81u9oy.rcgu.o",
    "__ZN11dioxus_core5nodes10VComponent3new17hcaaa6729c16dc137E",
    "__ZN11dioxus_core10properties10Properties15into_vcomponent17h79bafc80aea2aab7E",
    "___hotreload_start_app",
    "__ZN7harness3app17h400735d18e59eec4E",
    "__ZN7harness4main17h4654d77b3f37379bE",
    "_main",
]
GCC_except_table353
[]
ltmp4_harness-df4868ea1b5cadad.82ypsbytozw3vin3um71rau5z.rcgu.o
[]
__ZN36_$LT$T$u20$as$u20$core..any..Any$GT$7type_id17h4253fa70e10144afE
[
    "__ZN36_$LT$T$u20$as$u20$core..any..Any$GT$7type_id17h4253fa70e10144afE",
    "l___unnamed_21_harness-df4868ea1b5cadad.5qrn0xfhbv2rouh4f52itu55i.rcgu.o",
    "__ZN95_$LT$dioxus_signals..signal..Signal$LT$T$C$S$GT$$u20$as$u20$dioxus_signals..write..Writable$GT$19try_write_unchecked28_$u7b$$u7b$closure$u7d$$u7d$17he1b9191098da229cE",
    "__ZN4core6result19Result$LT$T$C$E$GT$3map17he4a924266e5e9d5aE",
    "__ZN95_$LT$dioxus_signals..signal..Signal$LT$T$C$S$GT$$u20$as$u20$dioxus_signals..write..Writable$GT$19try_write_unchecked17h4cba87c5ead1eb17E",
    "__ZN14dioxus_signals6global19Global$LT$T$C$R$GT$5write17h2228387cbea56f90E",
    "__ZN7harness11GlobalInner28_$u7b$$u7b$closure$u7d$$u7d$17hb42c5660948e5f3bE",
    "__ZN11dioxus_core6events26Callback$LT$Args$C$Ret$GT$3new28_$u7b$$u7b$closure$u7d$$u7d$17h6f96a569a9f12b13E",
    "l___unnamed_9_harness-df4868ea1b5cadad.egexdem49eejgynie32zwugcu.rcgu.o",
    "__ZN11dioxus_core6events26Callback$LT$Args$C$Ret$GT$3new17he13b8bd10ebc92d6E",
    "__ZN169_$LT$dioxus_core..events..Callback$LT$Args$C$Ret$GT$$u20$as$u20$dioxus_core..properties..SuperFrom$LT$Function$C$dioxus_core..events..MarkerWrapper$LT$Marker$GT$$GT$$GT$10super_from17h0f0cdd7a8468e271E",
    "__ZN69_$LT$T$u20$as$u20$dioxus_core..properties..SuperInto$LT$O$C$M$GT$$GT$10super_into17he799bb527ae17417E",
    "__ZN11dioxus_html6events5mouse7onclick28_$u7b$$u7b$closure$u7d$$u7d$17hcda8013b3fb0a7b1E",
    "__ZN11dioxus_core16generational_box10with_owner17hb0ca740788bcf0beE",
    "__ZN11dioxus_html6events5mouse7onclick17hcc75453cf267d2c1E",
    "__ZN11dioxus_html6events5mouse7onclick26call_with_explicit_closure17hc65524ea0f855dd4E",
    "__ZN7harness11GlobalInner17h56fe43aa3656219bE",
    "__ZN4core3ops8function2Fn4call17h3c8f851ee4dd175bE",
    "__ZN119_$LT$F$u20$as$u20$dioxus_core..properties..ComponentFunction$LT$$LP$$RP$$C$dioxus_core..properties..EmptyMarker$GT$$GT$7rebuild17hf7f1250efa3fb04cE",
    "__ZN100_$LT$dioxus_core..any_props..VProps$LT$F$C$P$C$M$GT$$u20$as$u20$dioxus_core..any_props..AnyProps$GT$6render28_$u7b$$u7b$closure$u7d$$u7d$17h025de8e22280b207E",
    "__ZN4core3ops8function6FnOnce9call_once17h371dcf20a99f261bE",
    "__ZN115_$LT$core..panic..unwind_safe..AssertUnwindSafe$LT$F$GT$$u20$as$u20$core..ops..function..FnOnce$LT$$LP$$RP$$GT$$GT$9call_once17h25a92dc564e3d7ffE",
    "__ZN3std9panicking3try7do_call17ha023efa9fb2ba8f7E",
    "__ZN3std5panic12catch_unwind17h48b71dec49934bf1E",
    "__ZN100_$LT$dioxus_core..any_props..VProps$LT$F$C$P$C$M$GT$$u20$as$u20$dioxus_core..any_props..AnyProps$GT$6render17h543a97c06bfefa3bE",
    "l___unnamed_4_harness-df4868ea1b5cadad.e382ndox9j839chz9esswif6u.rcgu.o",
    "__ZN100_$LT$dioxus_core..any_props..VProps$LT$F$C$P$C$M$GT$$u20$as$u20$dioxus_core..any_props..AnyProps$GT$9duplicate17h675ac73f4925ce25E",
    "l___unnamed_4_harness-df4868ea1b5cadad.c6wmz0dxwkc7r3o02wr81u9oy.rcgu.o",
    "__ZN11dioxus_core5nodes10VComponent3new17h993f8b3d9eb93954E",
    "__ZN11dioxus_core10properties10Properties15into_vcomponent17h965196ec13444056E",
    "__ZN7harness5Child17h2b32aeaba0b4c00dE",
    "__ZN4core3ops8function2Fn4call17hf86b26e1f09dbfc5E",
    "__ZN73_$LT$F$u20$as$u20$dioxus_core..properties..ComponentFunction$LT$P$GT$$GT$7rebuild17hdcc2e237eec08339E",
    "__ZN100_$LT$dioxus_core..any_props..VProps$LT$F$C$P$C$M$GT$$u20$as$u20$dioxus_core..any_props..AnyProps$GT$6render28_$u7b$$u7b$closure$u7d$$u7d$17hfbf53ec21013c460E",
    "__ZN4core3ops8function6FnOnce9call_once17hb1250f82ab822998E",
    "__ZN115_$LT$core..panic..unwind_safe..AssertUnwindSafe$LT$F$GT$$u20$as$u20$core..ops..function..FnOnce$LT$$LP$$RP$$GT$$GT$9call_once17h156df01ab880499cE",
    "__ZN3std9panicking3try7do_call17h12b00f5c1afca0e5E",
    "__ZN3std5panic12catch_unwind17h9623dc210b33032cE",
    "__ZN100_$LT$dioxus_core..any_props..VProps$LT$F$C$P$C$M$GT$$u20$as$u20$dioxus_core..any_props..AnyProps$GT$6render17h724478bd10ae45abE",
    "l___unnamed_8_harness-df4868ea1b5cadad.e382ndox9j839chz9esswif6u.rcgu.o",
    "__ZN100_$LT$dioxus_core..any_props..VProps$LT$F$C$P$C$M$GT$$u20$as$u20$dioxus_core..any_props..AnyProps$GT$9duplicate17hbcc315160800576aE",
    "l___unnamed_2_harness-df4868ea1b5cadad.c6wmz0dxwkc7r3o02wr81u9oy.rcgu.o",
    "__ZN11dioxus_core5nodes10VComponent3new17h64d3a0812e77f0edE",
    "__ZN11dioxus_core10properties10Properties15into_vcomponent17h7753673354bc1edfE",
    "__ZN7harness13zoom_controls17h3a73844835917e06E",
    "__ZN4core3ops8function2Fn4call17heb220dff9cb64346E",
    "__ZN119_$LT$F$u20$as$u20$dioxus_core..properties..ComponentFunction$LT$$LP$$RP$$C$dioxus_core..properties..EmptyMarker$GT$$GT$7rebuild17h1485b718be4dcc97E",
    "__ZN100_$LT$dioxus_core..any_props..VProps$LT$F$C$P$C$M$GT$$u20$as$u20$dioxus_core..any_props..AnyProps$GT$6render28_$u7b$$u7b$closure$u7d$$u7d$17h5f5c31c2c4fcd3edE",
    "__ZN4core3ops8function6FnOnce9call_once17haf610c889d773240E",
    "__ZN115_$LT$core..panic..unwind_safe..AssertUnwindSafe$LT$F$GT$$u20$as$u20$core..ops..function..FnOnce$LT$$LP$$RP$$GT$$GT$9call_once17he0621d6d235d0c08E",
    "__ZN3std9panicking3try7do_call17h8e7a94c382a5e60cE",
    "__ZN3std5panic12catch_unwind17h1f6291afe955bbfcE",
    "__ZN100_$LT$dioxus_core..any_props..VProps$LT$F$C$P$C$M$GT$$u20$as$u20$dioxus_core..any_props..AnyProps$GT$6render17h45480eba660d5148E",
    "l___unnamed_7_harness-df4868ea1b5cadad.c6wmz0dxwkc7r3o02wr81u9oy.rcgu.o",
    "__ZN11dioxus_core5nodes10VComponent3new17hcaaa6729c16dc137E",
    "__ZN11dioxus_core10properties10Properties15into_vcomponent17h79bafc80aea2aab7E",
    "___hotreload_start_app",
    "__ZN7harness3app17h400735d18e59eec4E",
    "__ZN7harness4main17h4654d77b3f37379bE",
    "_main",
]
GCC_except_table210
[]
__ZN4core3ptr106drop_in_place$LT$generational_box..references..GenerationalRefMut$LT$core..cell..RefMut$LT$i64$GT$$GT$$GT$17h40e0a72c4d4c9f8dE
[
    "__ZN4core3ptr106drop_in_place$LT$generational_box..references..GenerationalRefMut$LT$core..cell..RefMut$LT$i64$GT$$GT$$GT$17h40e0a72c4d4c9f8dE",
    "__ZN95_$LT$dioxus_signals..signal..Signal$LT$T$C$S$GT$$u20$as$u20$dioxus_signals..write..Writable$GT$19try_write_unchecked28_$u7b$$u7b$closure$u7d$$u7d$17he1b9191098da229cE",
    "__ZN4core6result19Result$LT$T$C$E$GT$3map17he4a924266e5e9d5aE",
    "__ZN95_$LT$dioxus_signals..signal..Signal$LT$T$C$S$GT$$u20$as$u20$dioxus_signals..write..Writable$GT$19try_write_unchecked17h4cba87c5ead1eb17E",
    "__ZN14dioxus_signals6global19Global$LT$T$C$R$GT$5write17h2228387cbea56f90E",
    "__ZN7harness11GlobalInner28_$u7b$$u7b$closure$u7d$$u7d$17hb42c5660948e5f3bE",
    "__ZN11dioxus_core6events26Callback$LT$Args$C$Ret$GT$3new28_$u7b$$u7b$closure$u7d$$u7d$17h6f96a569a9f12b13E",
    "l___unnamed_9_harness-df4868ea1b5cadad.egexdem49eejgynie32zwugcu.rcgu.o",
    "__ZN11dioxus_core6events26Callback$LT$Args$C$Ret$GT$3new17he13b8bd10ebc92d6E",
    "__ZN169_$LT$dioxus_core..events..Callback$LT$Args$C$Ret$GT$$u20$as$u20$dioxus_core..properties..SuperFrom$LT$Function$C$dioxus_core..events..MarkerWrapper$LT$Marker$GT$$GT$$GT$10super_from17h0f0cdd7a8468e271E",
    "__ZN69_$LT$T$u20$as$u20$dioxus_core..properties..SuperInto$LT$O$C$M$GT$$GT$10super_into17he799bb527ae17417E",
    "__ZN11dioxus_html6events5mouse7onclick28_$u7b$$u7b$closure$u7d$$u7d$17hcda8013b3fb0a7b1E",
    "__ZN11dioxus_core16generational_box10with_owner17hb0ca740788bcf0beE",
    "__ZN11dioxus_html6events5mouse7onclick17hcc75453cf267d2c1E",
    "__ZN11dioxus_html6events5mouse7onclick26call_with_explicit_closure17hc65524ea0f855dd4E",
    "__ZN7harness11GlobalInner17h56fe43aa3656219bE",
    "__ZN4core3ops8function2Fn4call17h3c8f851ee4dd175bE",
    "__ZN119_$LT$F$u20$as$u20$dioxus_core..properties..ComponentFunction$LT$$LP$$RP$$C$dioxus_core..properties..EmptyMarker$GT$$GT$7rebuild17hf7f1250efa3fb04cE",
    "__ZN100_$LT$dioxus_core..any_props..VProps$LT$F$C$P$C$M$GT$$u20$as$u20$dioxus_core..any_props..AnyProps$GT$6render28_$u7b$$u7b$closure$u7d$$u7d$17h025de8e22280b207E",
    "__ZN4core3ops8function6FnOnce9call_once17h371dcf20a99f261bE",
    "__ZN115_$LT$core..panic..unwind_safe..AssertUnwindSafe$LT$F$GT$$u20$as$u20$core..ops..function..FnOnce$LT$$LP$$RP$$GT$$GT$9call_once17h25a92dc564e3d7ffE",
    "__ZN3std9panicking3try7do_call17ha023efa9fb2ba8f7E",
    "__ZN3std5panic12catch_unwind17h48b71dec49934bf1E",
    "__ZN100_$LT$dioxus_core..any_props..VProps$LT$F$C$P$C$M$GT$$u20$as$u20$dioxus_core..any_props..AnyProps$GT$6render17h543a97c06bfefa3bE",
    "l___unnamed_4_harness-df4868ea1b5cadad.e382ndox9j839chz9esswif6u.rcgu.o",
    "__ZN100_$LT$dioxus_core..any_props..VProps$LT$F$C$P$C$M$GT$$u20$as$u20$dioxus_core..any_props..AnyProps$GT$9duplicate17h675ac73f4925ce25E",
    "l___unnamed_4_harness-df4868ea1b5cadad.c6wmz0dxwkc7r3o02wr81u9oy.rcgu.o",
    "__ZN11dioxus_core5nodes10VComponent3new17h993f8b3d9eb93954E",
    "__ZN11dioxus_core10properties10Properties15into_vcomponent17h965196ec13444056E",
    "__ZN7harness5Child17h2b32aeaba0b4c00dE",
    "__ZN4core3ops8function2Fn4call17hf86b26e1f09dbfc5E",
    "__ZN73_$LT$F$u20$as$u20$dioxus_core..properties..ComponentFunction$LT$P$GT$$GT$7rebuild17hdcc2e237eec08339E",
    "__ZN100_$LT$dioxus_core..any_props..VProps$LT$F$C$P$C$M$GT$$u20$as$u20$dioxus_core..any_props..AnyProps$GT$6render28_$u7b$$u7b$closure$u7d$$u7d$17hfbf53ec21013c460E",
    "__ZN4core3ops8function6FnOnce9call_once17hb1250f82ab822998E",
    "__ZN115_$LT$core..panic..unwind_safe..AssertUnwindSafe$LT$F$GT$$u20$as$u20$core..ops..function..FnOnce$LT$$LP$$RP$$GT$$GT$9call_once17h156df01ab880499cE",
    "__ZN3std9panicking3try7do_call17h12b00f5c1afca0e5E",
    "__ZN3std5panic12catch_unwind17h9623dc210b33032cE",
    "__ZN100_$LT$dioxus_core..any_props..VProps$LT$F$C$P$C$M$GT$$u20$as$u20$dioxus_core..any_props..AnyProps$GT$6render17h724478bd10ae45abE",
    "l___unnamed_8_harness-df4868ea1b5cadad.e382ndox9j839chz9esswif6u.rcgu.o",
    "__ZN100_$LT$dioxus_core..any_props..VProps$LT$F$C$P$C$M$GT$$u20$as$u20$dioxus_core..any_props..AnyProps$GT$9duplicate17hbcc315160800576aE",
    "l___unnamed_2_harness-df4868ea1b5cadad.c6wmz0dxwkc7r3o02wr81u9oy.rcgu.o",
    "__ZN11dioxus_core5nodes10VComponent3new17h64d3a0812e77f0edE",
    "__ZN11dioxus_core10properties10Properties15into_vcomponent17h7753673354bc1edfE",
    "__ZN7harness13zoom_controls17h3a73844835917e06E",
    "__ZN4core3ops8function2Fn4call17heb220dff9cb64346E",
    "__ZN119_$LT$F$u20$as$u20$dioxus_core..properties..ComponentFunction$LT$$LP$$RP$$C$dioxus_core..properties..EmptyMarker$GT$$GT$7rebuild17h1485b718be4dcc97E",
    "__ZN100_$LT$dioxus_core..any_props..VProps$LT$F$C$P$C$M$GT$$u20$as$u20$dioxus_core..any_props..AnyProps$GT$6render28_$u7b$$u7b$closure$u7d$$u7d$17h5f5c31c2c4fcd3edE",
    "__ZN4core3ops8function6FnOnce9call_once17haf610c889d773240E",
    "__ZN115_$LT$core..panic..unwind_safe..AssertUnwindSafe$LT$F$GT$$u20$as$u20$core..ops..function..FnOnce$LT$$LP$$RP$$GT$$GT$9call_once17he0621d6d235d0c08E",
    "__ZN3std9panicking3try7do_call17h8e7a94c382a5e60cE",
    "__ZN3std5panic12catch_unwind17h1f6291afe955bbfcE",
    "__ZN100_$LT$dioxus_core..any_props..VProps$LT$F$C$P$C$M$GT$$u20$as$u20$dioxus_core..any_props..AnyProps$GT$6render17h45480eba660d5148E",
    "l___unnamed_7_harness-df4868ea1b5cadad.c6wmz0dxwkc7r3o02wr81u9oy.rcgu.o",
    "__ZN11dioxus_core5nodes10VComponent3new17hcaaa6729c16dc137E",
    "__ZN11dioxus_core10properties10Properties15into_vcomponent17h79bafc80aea2aab7E",
    "___hotreload_start_app",
    "__ZN7harness3app17h400735d18e59eec4E",
    "__ZN7harness4main17h4654d77b3f37379bE",
    "_main",
]
ltmp3_harness-df4868ea1b5cadad.6n0iahodfg8hmx25hlc6b588a.rcgu.o
[]
GCC_except_table72
[]
GCC_except_table71
[]
l___unnamed_30_harness-df4868ea1b5cadad.5qrn0xfhbv2rouh4f52itu55i.rcgu.o
[
    "l___unnamed_30_harness-df4868ea1b5cadad.5qrn0xfhbv2rouh4f52itu55i.rcgu.o",
    "l___unnamed_16_harness-df4868ea1b5cadad.5qrn0xfhbv2rouh4f52itu55i.rcgu.o",
    "__ZN94_$LT$dioxus_signals..signal..Signal$LT$T$C$S$GT$$u20$as$u20$dioxus_signals..read..Readable$GT$18try_read_unchecked17h259ec38b1d97e2b8E",
    "__ZN14dioxus_signals4read8Readable8try_read17h7aacda85f3236422E",
    "__ZN14dioxus_signals4read8Readable4read17h1b394785e8071b2eE",
    "__ZN14dioxus_signals4read14ReadableVecExt3get17he2be8d3fce1e4714E",
    "__ZN111_$LT$dioxus_signals..read..ReadableValueIterator$LT$R$GT$$u20$as$u20$core..iter..traits..iterator..Iterator$GT$4next17hb7453704bf0e9abdE",
    "__ZN110_$LT$core..iter..adapters..enumerate..Enumerate$LT$I$GT$$u20$as$u20$core..iter..traits..iterator..Iterator$GT$4next17h70ff66b80ce338a8E",
    "__ZN102_$LT$core..iter..adapters..map..Map$LT$I$C$F$GT$$u20$as$u20$core..iter..traits..iterator..Iterator$GT$4next17hfd177e990a80dcd5E",
    "__ZN102_$LT$core..iter..adapters..map..Map$LT$I$C$F$GT$$u20$as$u20$core..iter..traits..iterator..Iterator$GT$4next17h77fdeb3601206383E",
    "__ZN111_$LT$alloc..vec..Vec$LT$T$GT$$u20$as$u20$alloc..vec..spec_from_iter_nested..SpecFromIterNested$LT$T$C$I$GT$$GT$9from_iter17hcea6afe91a6b543aE",
    "__ZN98_$LT$alloc..vec..Vec$LT$T$GT$$u20$as$u20$alloc..vec..spec_from_iter..SpecFromIter$LT$T$C$I$GT$$GT$9from_iter17h39cf10a601ea2f2cE",
    "__ZN95_$LT$alloc..vec..Vec$LT$T$GT$$u20$as$u20$core..iter..traits..collect..FromIterator$LT$T$GT$$GT$9from_iter17h81beb20460e72495E",
    "__ZN4core4iter6traits8iterator8Iterator7collect17h6931e475e57f6da3E",
    "__ZN97_$LT$T$u20$as$u20$dioxus_core..nodes..IntoDynNode$LT$dioxus_core..nodes..FromNodeIterator$GT$$GT$13into_dyn_node17h878108c16c578a38E",
    "__ZN7harness12AddingLogger17h283889c677656013E",
    "__ZN4core3ops8function2Fn4call17hc1d984302f90d6b5E",
    "__ZN119_$LT$F$u20$as$u20$dioxus_core..properties..ComponentFunction$LT$$LP$$RP$$C$dioxus_core..properties..EmptyMarker$GT$$GT$7rebuild17ha7658b769122d22aE",
    "__ZN100_$LT$dioxus_core..any_props..VProps$LT$F$C$P$C$M$GT$$u20$as$u20$dioxus_core..any_props..AnyProps$GT$6render28_$u7b$$u7b$closure$u7d$$u7d$17h90af567fab99d4f7E",
    "__ZN4core3ops8function6FnOnce9call_once17he98e8829e2ade214E",
    "__ZN115_$LT$core..panic..unwind_safe..AssertUnwindSafe$LT$F$GT$$u20$as$u20$core..ops..function..FnOnce$LT$$LP$$RP$$GT$$GT$9call_once17h8b675a067d6b378fE",
    "__ZN3std9panicking3try7do_call17h042d1df4c42c9398E",
    "__ZN3std5panic12catch_unwind17hebad81528f98f478E",
    "__ZN100_$LT$dioxus_core..any_props..VProps$LT$F$C$P$C$M$GT$$u20$as$u20$dioxus_core..any_props..AnyProps$GT$6render17h6d3194045a8447dcE",
    "l___unnamed_6_harness-df4868ea1b5cadad.c6wmz0dxwkc7r3o02wr81u9oy.rcgu.o",
    "__ZN11dioxus_core5nodes10VComponent3new17hc4f98269bb25b058E",
    "__ZN11dioxus_core10properties10Properties15into_vcomponent17had2a4ffa139fd691E",
    "__ZN7harness5Child17h2b32aeaba0b4c00dE",
    "__ZN4core3ops8function2Fn4call17hf86b26e1f09dbfc5E",
    "__ZN73_$LT$F$u20$as$u20$dioxus_core..properties..ComponentFunction$LT$P$GT$$GT$7rebuild17hdcc2e237eec08339E",
    "__ZN100_$LT$dioxus_core..any_props..VProps$LT$F$C$P$C$M$GT$$u20$as$u20$dioxus_core..any_props..AnyProps$GT$6render28_$u7b$$u7b$closure$u7d$$u7d$17hfbf53ec21013c460E",
    "__ZN4core3ops8function6FnOnce9call_once17hb1250f82ab822998E",
    "__ZN115_$LT$core..panic..unwind_safe..AssertUnwindSafe$LT$F$GT$$u20$as$u20$core..ops..function..FnOnce$LT$$LP$$RP$$GT$$GT$9call_once17h156df01ab880499cE",
    "__ZN3std9panicking3try7do_call17h12b00f5c1afca0e5E",
    "__ZN3std5panic12catch_unwind17h9623dc210b33032cE",
    "__ZN100_$LT$dioxus_core..any_props..VProps$LT$F$C$P$C$M$GT$$u20$as$u20$dioxus_core..any_props..AnyProps$GT$6render17h724478bd10ae45abE",
    "l___unnamed_8_harness-df4868ea1b5cadad.e382ndox9j839chz9esswif6u.rcgu.o",
    "__ZN100_$LT$dioxus_core..any_props..VProps$LT$F$C$P$C$M$GT$$u20$as$u20$dioxus_core..any_props..AnyProps$GT$9duplicate17hbcc315160800576aE",
    "l___unnamed_2_harness-df4868ea1b5cadad.c6wmz0dxwkc7r3o02wr81u9oy.rcgu.o",
    "__ZN11dioxus_core5nodes10VComponent3new17h64d3a0812e77f0edE",
    "__ZN11dioxus_core10properties10Properties15into_vcomponent17h7753673354bc1edfE",
    "__ZN7harness13zoom_controls17h3a73844835917e06E",
    "__ZN4core3ops8function2Fn4call17heb220dff9cb64346E",
    "__ZN119_$LT$F$u20$as$u20$dioxus_core..properties..ComponentFunction$LT$$LP$$RP$$C$dioxus_core..properties..EmptyMarker$GT$$GT$7rebuild17h1485b718be4dcc97E",
    "__ZN100_$LT$dioxus_core..any_props..VProps$LT$F$C$P$C$M$GT$$u20$as$u20$dioxus_core..any_props..AnyProps$GT$6render28_$u7b$$u7b$closure$u7d$$u7d$17h5f5c31c2c4fcd3edE",
    "__ZN4core3ops8function6FnOnce9call_once17haf610c889d773240E",
    "__ZN115_$LT$core..panic..unwind_safe..AssertUnwindSafe$LT$F$GT$$u20$as$u20$core..ops..function..FnOnce$LT$$LP$$RP$$GT$$GT$9call_once17he0621d6d235d0c08E",
    "__ZN3std9panicking3try7do_call17h8e7a94c382a5e60cE",
    "__ZN3std5panic12catch_unwind17h1f6291afe955bbfcE",
    "__ZN100_$LT$dioxus_core..any_props..VProps$LT$F$C$P$C$M$GT$$u20$as$u20$dioxus_core..any_props..AnyProps$GT$6render17h45480eba660d5148E",
    "l___unnamed_7_harness-df4868ea1b5cadad.c6wmz0dxwkc7r3o02wr81u9oy.rcgu.o",
    "__ZN11dioxus_core5nodes10VComponent3new17hcaaa6729c16dc137E",
    "__ZN11dioxus_core10properties10Properties15into_vcomponent17h79bafc80aea2aab7E",
    "___hotreload_start_app",
    "__ZN7harness3app17h400735d18e59eec4E",
    "__ZN7harness4main17h4654d77b3f37379bE",
    "_main",
]
GCC_except_table89
[]
__ZN94_$LT$dioxus_signals..signal..Signal$LT$T$C$S$GT$$u20$as$u20$dioxus_signals..read..Readable$GT$18try_read_unchecked17h9b44c3b9dae81db5E
[
    "__ZN94_$LT$dioxus_signals..signal..Signal$LT$T$C$S$GT$$u20$as$u20$dioxus_signals..read..Readable$GT$18try_read_unchecked17h9b44c3b9dae81db5E",
    "__ZN94_$LT$dioxus_signals..global..Global$LT$T$C$R$GT$$u20$as$u20$dioxus_signals..read..Readable$GT$18try_read_unchecked17hdf66837701d74a96E",
    "__ZN14dioxus_signals4read8Readable8try_read17h4c98c1be567ce532E",
    "__ZN14dioxus_signals4read8Readable4read17he797328ed7d7b867E",
    "__ZN14dioxus_signals4read8Readable4with17h40ffefba83cf26acE",
    "__ZN14dioxus_signals6global6signal130_$LT$impl$u20$core..fmt..Display$u20$for$u20$dioxus_signals..global..Global$LT$dioxus_signals..signal..Signal$LT$T$GT$$C$T$GT$$GT$3fmt17h9bae2be454d81459E",
    "__ZN14dioxus_signals6global6signal130_$LT$impl$u20$core..fmt..Display$u20$for$u20$dioxus_signals..global..Global$LT$dioxus_signals..signal..Signal$LT$T$GT$$C$T$GT$$GT$33fmt$u7b$$u7b$reify.shim$u7d$$u7d$17h6614528e6ee54eebE",
    "__ZN7harness11GlobalInner17h56fe43aa3656219bE",
    "__ZN4core3ops8function2Fn4call17h3c8f851ee4dd175bE",
    "__ZN119_$LT$F$u20$as$u20$dioxus_core..properties..ComponentFunction$LT$$LP$$RP$$C$dioxus_core..properties..EmptyMarker$GT$$GT$7rebuild17hf7f1250efa3fb04cE",
    "__ZN100_$LT$dioxus_core..any_props..VProps$LT$F$C$P$C$M$GT$$u20$as$u20$dioxus_core..any_props..AnyProps$GT$6render28_$u7b$$u7b$closure$u7d$$u7d$17h025de8e22280b207E",
    "__ZN4core3ops8function6FnOnce9call_once17h371dcf20a99f261bE",
    "__ZN115_$LT$core..panic..unwind_safe..AssertUnwindSafe$LT$F$GT$$u20$as$u20$core..ops..function..FnOnce$LT$$LP$$RP$$GT$$GT$9call_once17h25a92dc564e3d7ffE",
    "__ZN3std9panicking3try7do_call17ha023efa9fb2ba8f7E",
    "__ZN3std5panic12catch_unwind17h48b71dec49934bf1E",
    "__ZN100_$LT$dioxus_core..any_props..VProps$LT$F$C$P$C$M$GT$$u20$as$u20$dioxus_core..any_props..AnyProps$GT$6render17h543a97c06bfefa3bE",
    "l___unnamed_4_harness-df4868ea1b5cadad.e382ndox9j839chz9esswif6u.rcgu.o",
    "__ZN100_$LT$dioxus_core..any_props..VProps$LT$F$C$P$C$M$GT$$u20$as$u20$dioxus_core..any_props..AnyProps$GT$9duplicate17h675ac73f4925ce25E",
    "l___unnamed_4_harness-df4868ea1b5cadad.c6wmz0dxwkc7r3o02wr81u9oy.rcgu.o",
    "__ZN11dioxus_core5nodes10VComponent3new17h993f8b3d9eb93954E",
    "__ZN11dioxus_core10properties10Properties15into_vcomponent17h965196ec13444056E",
    "__ZN7harness5Child17h2b32aeaba0b4c00dE",
    "__ZN4core3ops8function2Fn4call17hf86b26e1f09dbfc5E",
    "__ZN73_$LT$F$u20$as$u20$dioxus_core..properties..ComponentFunction$LT$P$GT$$GT$7rebuild17hdcc2e237eec08339E",
    "__ZN100_$LT$dioxus_core..any_props..VProps$LT$F$C$P$C$M$GT$$u20$as$u20$dioxus_core..any_props..AnyProps$GT$6render28_$u7b$$u7b$closure$u7d$$u7d$17hfbf53ec21013c460E",
    "__ZN4core3ops8function6FnOnce9call_once17hb1250f82ab822998E",
    "__ZN115_$LT$core..panic..unwind_safe..AssertUnwindSafe$LT$F$GT$$u20$as$u20$core..ops..function..FnOnce$LT$$LP$$RP$$GT$$GT$9call_once17h156df01ab880499cE",
    "__ZN3std9panicking3try7do_call17h12b00f5c1afca0e5E",
    "__ZN3std5panic12catch_unwind17h9623dc210b33032cE",
    "__ZN100_$LT$dioxus_core..any_props..VProps$LT$F$C$P$C$M$GT$$u20$as$u20$dioxus_core..any_props..AnyProps$GT$6render17h724478bd10ae45abE",
    "l___unnamed_8_harness-df4868ea1b5cadad.e382ndox9j839chz9esswif6u.rcgu.o",
    "__ZN100_$LT$dioxus_core..any_props..VProps$LT$F$C$P$C$M$GT$$u20$as$u20$dioxus_core..any_props..AnyProps$GT$9duplicate17hbcc315160800576aE",
    "l___unnamed_2_harness-df4868ea1b5cadad.c6wmz0dxwkc7r3o02wr81u9oy.rcgu.o",
    "__ZN11dioxus_core5nodes10VComponent3new17h64d3a0812e77f0edE",
    "__ZN11dioxus_core10properties10Properties15into_vcomponent17h7753673354bc1edfE",
    "__ZN7harness13zoom_controls17h3a73844835917e06E",
    "__ZN4core3ops8function2Fn4call17heb220dff9cb64346E",
    "__ZN119_$LT$F$u20$as$u20$dioxus_core..properties..ComponentFunction$LT$$LP$$RP$$C$dioxus_core..properties..EmptyMarker$GT$$GT$7rebuild17h1485b718be4dcc97E",
    "__ZN100_$LT$dioxus_core..any_props..VProps$LT$F$C$P$C$M$GT$$u20$as$u20$dioxus_core..any_props..AnyProps$GT$6render28_$u7b$$u7b$closure$u7d$$u7d$17h5f5c31c2c4fcd3edE",
    "__ZN4core3ops8function6FnOnce9call_once17haf610c889d773240E",
    "__ZN115_$LT$core..panic..unwind_safe..AssertUnwindSafe$LT$F$GT$$u20$as$u20$core..ops..function..FnOnce$LT$$LP$$RP$$GT$$GT$9call_once17he0621d6d235d0c08E",
    "__ZN3std9panicking3try7do_call17h8e7a94c382a5e60cE",
    "__ZN3std5panic12catch_unwind17h1f6291afe955bbfcE",
    "__ZN100_$LT$dioxus_core..any_props..VProps$LT$F$C$P$C$M$GT$$u20$as$u20$dioxus_core..any_props..AnyProps$GT$6render17h45480eba660d5148E",
    "l___unnamed_7_harness-df4868ea1b5cadad.c6wmz0dxwkc7r3o02wr81u9oy.rcgu.o",
    "__ZN11dioxus_core5nodes10VComponent3new17hcaaa6729c16dc137E",
    "__ZN11dioxus_core10properties10Properties15into_vcomponent17h79bafc80aea2aab7E",
    "___hotreload_start_app",
    "__ZN7harness3app17h400735d18e59eec4E",
    "__ZN7harness4main17h4654d77b3f37379bE",
    "_main",
]
GCC_except_table247
[]
l___unnamed_12_harness-df4868ea1b5cadad.57p783wz0mdr6vmpci89msrb7.rcgu.o
[
    "l___unnamed_12_harness-df4868ea1b5cadad.57p783wz0mdr6vmpci89msrb7.rcgu.o",
    "__ZN14dioxus_signals8warnings20__copy_value_hoisted23__Callable$LT$T$C$S$GT$16__run_if_enabled28_$u7b$$u7b$closure$u7d$$u7d$18copy_value_hoisted17h0527a627c5bd33efE",
    "__ZN14dioxus_signals8warnings20__copy_value_hoisted23__Callable$LT$T$C$S$GT$16__run_if_enabled28_$u7b$$u7b$closure$u7d$$u7d$17h34ba434c7e412c6eE",
    "__ZN8warnings8warnings9WarningId10if_enabled17h1c488e65130df26eE",
    "__ZN14dioxus_signals8warnings20__copy_value_hoisted23__Callable$LT$T$C$S$GT$16__run_if_enabled17ha36d84debd7d7620E",
    "l___unnamed_5_harness-df4868ea1b5cadad.57p783wz0mdr6vmpci89msrb7.rcgu.o",
    "__ZN115_$LT$dioxus_signals..warnings..__copy_value_hoisted..__Callable$LT$T$C$S$GT$$u20$as$u20$core..ops..deref..Deref$GT$5deref17hab58e9f55bd3c5deE",
    "__ZN101_$LT$dioxus_signals..copy_value..CopyValue$LT$T$C$S$GT$$u20$as$u20$dioxus_signals..read..Readable$GT$18try_read_unchecked17hcbacf7f4f84ff432E",
    "__ZN14dioxus_signals4read8Readable8try_read17h3f53ef44cef9d75bE",
    "__ZN14dioxus_signals8warnings41__signal_read_and_write_in_reactive_scope23__Callable$LT$T$C$S$GT$16__run_if_enabled28_$u7b$$u7b$closure$u7d$$u7d$39signal_read_and_write_in_reactive_scope17h1ad309ff6660ea62E",
    "__ZN14dioxus_signals8warnings41__signal_read_and_write_in_reactive_scope23__Callable$LT$T$C$S$GT$16__run_if_enabled28_$u7b$$u7b$closure$u7d$$u7d$17h1b0f83081d19009bE",
    "__ZN8warnings8warnings9WarningId10if_enabled17ha6ef6cba53b085f6E",
    "__ZN14dioxus_signals8warnings41__signal_read_and_write_in_reactive_scope23__Callable$LT$T$C$S$GT$16__run_if_enabled17he99b0af967ae97feE",
    "l___unnamed_2_harness-df4868ea1b5cadad.a64hlspyskaofkyts3cee93he.rcgu.o",
    "__ZN136_$LT$dioxus_signals..warnings..__signal_read_and_write_in_reactive_scope..__Callable$LT$T$C$S$GT$$u20$as$u20$core..ops..deref..Deref$GT$5deref17h86c7f97abc3f6c06E",
    "__ZN99_$LT$dioxus_signals..signal..SignalSubscriberDrop$LT$T$C$S$GT$$u20$as$u20$core..ops..drop..Drop$GT$4drop17h330fbe4f6664ee0bE",
    "__ZN4core3ptr118drop_in_place$LT$dioxus_signals..signal..SignalSubscriberDrop$LT$i64$C$generational_box..unsync..UnsyncStorage$GT$$GT$17h25b2886afdcde067E",
    "l___unnamed_21_harness-df4868ea1b5cadad.5qrn0xfhbv2rouh4f52itu55i.rcgu.o",
    "__ZN95_$LT$dioxus_signals..signal..Signal$LT$T$C$S$GT$$u20$as$u20$dioxus_signals..write..Writable$GT$19try_write_unchecked28_$u7b$$u7b$closure$u7d$$u7d$17he1b9191098da229cE",
    "__ZN4core6result19Result$LT$T$C$E$GT$3map17he4a924266e5e9d5aE",
    "__ZN95_$LT$dioxus_signals..signal..Signal$LT$T$C$S$GT$$u20$as$u20$dioxus_signals..write..Writable$GT$19try_write_unchecked17h4cba87c5ead1eb17E",
    "__ZN14dioxus_signals6global19Global$LT$T$C$R$GT$5write17h2228387cbea56f90E",
    "__ZN7harness11GlobalInner28_$u7b$$u7b$closure$u7d$$u7d$17hb42c5660948e5f3bE",
    "__ZN11dioxus_core6events26Callback$LT$Args$C$Ret$GT$3new28_$u7b$$u7b$closure$u7d$$u7d$17h6f96a569a9f12b13E",
    "l___unnamed_9_harness-df4868ea1b5cadad.egexdem49eejgynie32zwugcu.rcgu.o",
    "__ZN11dioxus_core6events26Callback$LT$Args$C$Ret$GT$3new17he13b8bd10ebc92d6E",
    "__ZN169_$LT$dioxus_core..events..Callback$LT$Args$C$Ret$GT$$u20$as$u20$dioxus_core..properties..SuperFrom$LT$Function$C$dioxus_core..events..MarkerWrapper$LT$Marker$GT$$GT$$GT$10super_from17h0f0cdd7a8468e271E",
    "__ZN69_$LT$T$u20$as$u20$dioxus_core..properties..SuperInto$LT$O$C$M$GT$$GT$10super_into17he799bb527ae17417E",
    "__ZN11dioxus_html6events5mouse7onclick28_$u7b$$u7b$closure$u7d$$u7d$17hcda8013b3fb0a7b1E",
    "__ZN11dioxus_core16generational_box10with_owner17hb0ca740788bcf0beE",
    "__ZN11dioxus_html6events5mouse7onclick17hcc75453cf267d2c1E",
    "__ZN11dioxus_html6events5mouse7onclick26call_with_explicit_closure17hc65524ea0f855dd4E",
    "__ZN7harness11GlobalInner17h56fe43aa3656219bE",
    "__ZN4core3ops8function2Fn4call17h3c8f851ee4dd175bE",
    "__ZN119_$LT$F$u20$as$u20$dioxus_core..properties..ComponentFunction$LT$$LP$$RP$$C$dioxus_core..properties..EmptyMarker$GT$$GT$7rebuild17hf7f1250efa3fb04cE",
    "__ZN100_$LT$dioxus_core..any_props..VProps$LT$F$C$P$C$M$GT$$u20$as$u20$dioxus_core..any_props..AnyProps$GT$6render28_$u7b$$u7b$closure$u7d$$u7d$17h025de8e22280b207E",
    "__ZN4core3ops8function6FnOnce9call_once17h371dcf20a99f261bE",
    "__ZN115_$LT$core..panic..unwind_safe..AssertUnwindSafe$LT$F$GT$$u20$as$u20$core..ops..function..FnOnce$LT$$LP$$RP$$GT$$GT$9call_once17h25a92dc564e3d7ffE",
    "__ZN3std9panicking3try7do_call17ha023efa9fb2ba8f7E",
    "__ZN3std5panic12catch_unwind17h48b71dec49934bf1E",
    "__ZN100_$LT$dioxus_core..any_props..VProps$LT$F$C$P$C$M$GT$$u20$as$u20$dioxus_core..any_props..AnyProps$GT$6render17h543a97c06bfefa3bE",
    "l___unnamed_4_harness-df4868ea1b5cadad.e382ndox9j839chz9esswif6u.rcgu.o",
    "__ZN100_$LT$dioxus_core..any_props..VProps$LT$F$C$P$C$M$GT$$u20$as$u20$dioxus_core..any_props..AnyProps$GT$9duplicate17h675ac73f4925ce25E",
    "l___unnamed_4_harness-df4868ea1b5cadad.c6wmz0dxwkc7r3o02wr81u9oy.rcgu.o",
    "__ZN11dioxus_core5nodes10VComponent3new17h993f8b3d9eb93954E",
    "__ZN11dioxus_core10properties10Properties15into_vcomponent17h965196ec13444056E",
    "__ZN7harness5Child17h2b32aeaba0b4c00dE",
    "__ZN4core3ops8function2Fn4call17hf86b26e1f09dbfc5E",
    "__ZN73_$LT$F$u20$as$u20$dioxus_core..properties..ComponentFunction$LT$P$GT$$GT$7rebuild17hdcc2e237eec08339E",
    "__ZN100_$LT$dioxus_core..any_props..VProps$LT$F$C$P$C$M$GT$$u20$as$u20$dioxus_core..any_props..AnyProps$GT$6render28_$u7b$$u7b$closure$u7d$$u7d$17hfbf53ec21013c460E",
    "__ZN4core3ops8function6FnOnce9call_once17hb1250f82ab822998E",
    "__ZN115_$LT$core..panic..unwind_safe..AssertUnwindSafe$LT$F$GT$$u20$as$u20$core..ops..function..FnOnce$LT$$LP$$RP$$GT$$GT$9call_once17h156df01ab880499cE",
    "__ZN3std9panicking3try7do_call17h12b00f5c1afca0e5E",
    "__ZN3std5panic12catch_unwind17h9623dc210b33032cE",
    "__ZN100_$LT$dioxus_core..any_props..VProps$LT$F$C$P$C$M$GT$$u20$as$u20$dioxus_core..any_props..AnyProps$GT$6render17h724478bd10ae45abE",
    "l___unnamed_8_harness-df4868ea1b5cadad.e382ndox9j839chz9esswif6u.rcgu.o",
    "__ZN100_$LT$dioxus_core..any_props..VProps$LT$F$C$P$C$M$GT$$u20$as$u20$dioxus_core..any_props..AnyProps$GT$9duplicate17hbcc315160800576aE",
    "l___unnamed_2_harness-df4868ea1b5cadad.c6wmz0dxwkc7r3o02wr81u9oy.rcgu.o",
    "__ZN11dioxus_core5nodes10VComponent3new17h64d3a0812e77f0edE",
    "__ZN11dioxus_core10properties10Properties15into_vcomponent17h7753673354bc1edfE",
    "__ZN7harness13zoom_controls17h3a73844835917e06E",
    "__ZN4core3ops8function2Fn4call17heb220dff9cb64346E",
    "__ZN119_$LT$F$u20$as$u20$dioxus_core..properties..ComponentFunction$LT$$LP$$RP$$C$dioxus_core..properties..EmptyMarker$GT$$GT$7rebuild17h1485b718be4dcc97E",
    "__ZN100_$LT$dioxus_core..any_props..VProps$LT$F$C$P$C$M$GT$$u20$as$u20$dioxus_core..any_props..AnyProps$GT$6render28_$u7b$$u7b$closure$u7d$$u7d$17h5f5c31c2c4fcd3edE",
    "__ZN4core3ops8function6FnOnce9call_once17haf610c889d773240E",
    "__ZN115_$LT$core..panic..unwind_safe..AssertUnwindSafe$LT$F$GT$$u20$as$u20$core..ops..function..FnOnce$LT$$LP$$RP$$GT$$GT$9call_once17he0621d6d235d0c08E",
    "__ZN3std9panicking3try7do_call17h8e7a94c382a5e60cE",
    "__ZN3std5panic12catch_unwind17h1f6291afe955bbfcE",
    "__ZN100_$LT$dioxus_core..any_props..VProps$LT$F$C$P$C$M$GT$$u20$as$u20$dioxus_core..any_props..AnyProps$GT$6render17h45480eba660d5148E",
    "l___unnamed_7_harness-df4868ea1b5cadad.c6wmz0dxwkc7r3o02wr81u9oy.rcgu.o",
    "__ZN11dioxus_core5nodes10VComponent3new17hcaaa6729c16dc137E",
    "__ZN11dioxus_core10properties10Properties15into_vcomponent17h79bafc80aea2aab7E",
    "___hotreload_start_app",
    "__ZN7harness3app17h400735d18e59eec4E",
    "__ZN7harness4main17h4654d77b3f37379bE",
    "_main",
]
__ZN94_$LT$dioxus_signals..global..Global$LT$T$C$R$GT$$u20$as$u20$dioxus_signals..read..Readable$GT$18try_read_unchecked17hdf66837701d74a96E
[
    "__ZN94_$LT$dioxus_signals..global..Global$LT$T$C$R$GT$$u20$as$u20$dioxus_signals..read..Readable$GT$18try_read_unchecked17hdf66837701d74a96E",
    "__ZN14dioxus_signals4read8Readable8try_read17h4c98c1be567ce532E",
    "__ZN14dioxus_signals4read8Readable4read17he797328ed7d7b867E",
    "__ZN14dioxus_signals4read8Readable4with17h40ffefba83cf26acE",
    "__ZN14dioxus_signals6global6signal130_$LT$impl$u20$core..fmt..Display$u20$for$u20$dioxus_signals..global..Global$LT$dioxus_signals..signal..Signal$LT$T$GT$$C$T$GT$$GT$3fmt17h9bae2be454d81459E",
    "__ZN14dioxus_signals6global6signal130_$LT$impl$u20$core..fmt..Display$u20$for$u20$dioxus_signals..global..Global$LT$dioxus_signals..signal..Signal$LT$T$GT$$C$T$GT$$GT$33fmt$u7b$$u7b$reify.shim$u7d$$u7d$17h6614528e6ee54eebE",
    "__ZN7harness11GlobalInner17h56fe43aa3656219bE",
    "__ZN4core3ops8function2Fn4call17h3c8f851ee4dd175bE",
    "__ZN119_$LT$F$u20$as$u20$dioxus_core..properties..ComponentFunction$LT$$LP$$RP$$C$dioxus_core..properties..EmptyMarker$GT$$GT$7rebuild17hf7f1250efa3fb04cE",
    "__ZN100_$LT$dioxus_core..any_props..VProps$LT$F$C$P$C$M$GT$$u20$as$u20$dioxus_core..any_props..AnyProps$GT$6render28_$u7b$$u7b$closure$u7d$$u7d$17h025de8e22280b207E",
    "__ZN4core3ops8function6FnOnce9call_once17h371dcf20a99f261bE",
    "__ZN115_$LT$core..panic..unwind_safe..AssertUnwindSafe$LT$F$GT$$u20$as$u20$core..ops..function..FnOnce$LT$$LP$$RP$$GT$$GT$9call_once17h25a92dc564e3d7ffE",
    "__ZN3std9panicking3try7do_call17ha023efa9fb2ba8f7E",
    "__ZN3std5panic12catch_unwind17h48b71dec49934bf1E",
    "__ZN100_$LT$dioxus_core..any_props..VProps$LT$F$C$P$C$M$GT$$u20$as$u20$dioxus_core..any_props..AnyProps$GT$6render17h543a97c06bfefa3bE",
    "l___unnamed_4_harness-df4868ea1b5cadad.e382ndox9j839chz9esswif6u.rcgu.o",
    "__ZN100_$LT$dioxus_core..any_props..VProps$LT$F$C$P$C$M$GT$$u20$as$u20$dioxus_core..any_props..AnyProps$GT$9duplicate17h675ac73f4925ce25E",
    "l___unnamed_4_harness-df4868ea1b5cadad.c6wmz0dxwkc7r3o02wr81u9oy.rcgu.o",
    "__ZN11dioxus_core5nodes10VComponent3new17h993f8b3d9eb93954E",
    "__ZN11dioxus_core10properties10Properties15into_vcomponent17h965196ec13444056E",
    "__ZN7harness5Child17h2b32aeaba0b4c00dE",
    "__ZN4core3ops8function2Fn4call17hf86b26e1f09dbfc5E",
    "__ZN73_$LT$F$u20$as$u20$dioxus_core..properties..ComponentFunction$LT$P$GT$$GT$7rebuild17hdcc2e237eec08339E",
    "__ZN100_$LT$dioxus_core..any_props..VProps$LT$F$C$P$C$M$GT$$u20$as$u20$dioxus_core..any_props..AnyProps$GT$6render28_$u7b$$u7b$closure$u7d$$u7d$17hfbf53ec21013c460E",
    "__ZN4core3ops8function6FnOnce9call_once17hb1250f82ab822998E",
    "__ZN115_$LT$core..panic..unwind_safe..AssertUnwindSafe$LT$F$GT$$u20$as$u20$core..ops..function..FnOnce$LT$$LP$$RP$$GT$$GT$9call_once17h156df01ab880499cE",
    "__ZN3std9panicking3try7do_call17h12b00f5c1afca0e5E",
    "__ZN3std5panic12catch_unwind17h9623dc210b33032cE",
    "__ZN100_$LT$dioxus_core..any_props..VProps$LT$F$C$P$C$M$GT$$u20$as$u20$dioxus_core..any_props..AnyProps$GT$6render17h724478bd10ae45abE",
    "l___unnamed_8_harness-df4868ea1b5cadad.e382ndox9j839chz9esswif6u.rcgu.o",
    "__ZN100_$LT$dioxus_core..any_props..VProps$LT$F$C$P$C$M$GT$$u20$as$u20$dioxus_core..any_props..AnyProps$GT$9duplicate17hbcc315160800576aE",
    "l___unnamed_2_harness-df4868ea1b5cadad.c6wmz0dxwkc7r3o02wr81u9oy.rcgu.o",
    "__ZN11dioxus_core5nodes10VComponent3new17h64d3a0812e77f0edE",
    "__ZN11dioxus_core10properties10Properties15into_vcomponent17h7753673354bc1edfE",
    "__ZN7harness13zoom_controls17h3a73844835917e06E",
    "__ZN4core3ops8function2Fn4call17heb220dff9cb64346E",
    "__ZN119_$LT$F$u20$as$u20$dioxus_core..properties..ComponentFunction$LT$$LP$$RP$$C$dioxus_core..properties..EmptyMarker$GT$$GT$7rebuild17h1485b718be4dcc97E",
    "__ZN100_$LT$dioxus_core..any_props..VProps$LT$F$C$P$C$M$GT$$u20$as$u20$dioxus_core..any_props..AnyProps$GT$6render28_$u7b$$u7b$closure$u7d$$u7d$17h5f5c31c2c4fcd3edE",
    "__ZN4core3ops8function6FnOnce9call_once17haf610c889d773240E",
    "__ZN115_$LT$core..panic..unwind_safe..AssertUnwindSafe$LT$F$GT$$u20$as$u20$core..ops..function..FnOnce$LT$$LP$$RP$$GT$$GT$9call_once17he0621d6d235d0c08E",
    "__ZN3std9panicking3try7do_call17h8e7a94c382a5e60cE",
    "__ZN3std5panic12catch_unwind17h1f6291afe955bbfcE",
    "__ZN100_$LT$dioxus_core..any_props..VProps$LT$F$C$P$C$M$GT$$u20$as$u20$dioxus_core..any_props..AnyProps$GT$6render17h45480eba660d5148E",
    "l___unnamed_7_harness-df4868ea1b5cadad.c6wmz0dxwkc7r3o02wr81u9oy.rcgu.o",
    "__ZN11dioxus_core5nodes10VComponent3new17hcaaa6729c16dc137E",
    "__ZN11dioxus_core10properties10Properties15into_vcomponent17h79bafc80aea2aab7E",
    "___hotreload_start_app",
    "__ZN7harness3app17h400735d18e59eec4E",
    "__ZN7harness4main17h4654d77b3f37379bE",
    "_main",
]
l___unnamed_4_harness-df4868ea1b5cadad.a64hlspyskaofkyts3cee93he.rcgu.o
[
    "l___unnamed_4_harness-df4868ea1b5cadad.a64hlspyskaofkyts3cee93he.rcgu.o",
    "__ZN136_$LT$dioxus_signals..warnings..__signal_read_and_write_in_reactive_scope..__Callable$LT$T$C$S$GT$$u20$as$u20$core..ops..deref..Deref$GT$5deref17hdac4963e9431902dE",
    "__ZN99_$LT$dioxus_signals..signal..SignalSubscriberDrop$LT$T$C$S$GT$$u20$as$u20$core..ops..drop..Drop$GT$4drop17hb9a9072d7adac773E",
    "__ZN4core3ptr118drop_in_place$LT$dioxus_signals..signal..SignalSubscriberDrop$LT$i32$C$generational_box..unsync..UnsyncStorage$GT$$GT$17heedac08e66510d25E",
    "l___unnamed_18_harness-df4868ea1b5cadad.5qrn0xfhbv2rouh4f52itu55i.rcgu.o",
    "__ZN95_$LT$dioxus_signals..signal..Signal$LT$T$C$S$GT$$u20$as$u20$dioxus_signals..write..Writable$GT$19try_write_unchecked28_$u7b$$u7b$closure$u7d$$u7d$17h5d909e620207ca00E",
    "__ZN4core6result19Result$LT$T$C$E$GT$3map17hf5db60557d17c2e1E",
    "__ZN95_$LT$dioxus_signals..signal..Signal$LT$T$C$S$GT$$u20$as$u20$dioxus_signals..write..Writable$GT$19try_write_unchecked17hdcf2eb8de4478aeaE",
    "__ZN14dioxus_signals5write8Writable9try_write17hae765eca398f8ac5E",
    "__ZN14dioxus_signals5write8Writable5write17h4e8272cf09e11ce0E",
    "__ZN14dioxus_signals5write8Writable3set17h364d6451a18ce01cE",
    "__ZN7harness5Child28_$u7b$$u7b$closure$u7d$$u7d$17haa258cc19113625bE",
    "__ZN11dioxus_core6events26Callback$LT$Args$C$Ret$GT$3new28_$u7b$$u7b$closure$u7d$$u7d$17h29ff8d84f1464c02E",
    "__ZN4core3ops8function6FnOnce9call_once17h97fcd42365d86ecdE",
    "__ZN4core3ops8function6FnOnce40call_once$u7b$$u7b$vtable.shim$u7d$$u7d$17h3ad06f9e3bd1d3a5E",
    "l___unnamed_2_harness-df4868ea1b5cadad.egexdem49eejgynie32zwugcu.rcgu.o",
    "__ZN11dioxus_core6events26Callback$LT$Args$C$Ret$GT$3new17h05bc5bd9792aac62E",
    "__ZN169_$LT$dioxus_core..events..Callback$LT$Args$C$Ret$GT$$u20$as$u20$dioxus_core..properties..SuperFrom$LT$Function$C$dioxus_core..events..MarkerWrapper$LT$Marker$GT$$GT$$GT$10super_from17h1bd476b8f48d9334E",
    "__ZN69_$LT$T$u20$as$u20$dioxus_core..properties..SuperInto$LT$O$C$M$GT$$GT$10super_into17hb65f9379448067e8E",
    "__ZN11dioxus_html6events5mouse7onclick28_$u7b$$u7b$closure$u7d$$u7d$17hf727a1c1abe214abE",
    "__ZN11dioxus_core16generational_box10with_owner17h9d89806d02eff80dE",
    "__ZN11dioxus_html6events5mouse7onclick17h63b1d816c5d51a43E",
    "__ZN11dioxus_html6events5mouse7onclick26call_with_explicit_closure17hf29c25ce3f1dc3aeE",
    "__ZN7harness5Child17h2b32aeaba0b4c00dE",
    "__ZN4core3ops8function2Fn4call17hf86b26e1f09dbfc5E",
    "__ZN73_$LT$F$u20$as$u20$dioxus_core..properties..ComponentFunction$LT$P$GT$$GT$7rebuild17hdcc2e237eec08339E",
    "__ZN100_$LT$dioxus_core..any_props..VProps$LT$F$C$P$C$M$GT$$u20$as$u20$dioxus_core..any_props..AnyProps$GT$6render28_$u7b$$u7b$closure$u7d$$u7d$17hfbf53ec21013c460E",
    "__ZN4core3ops8function6FnOnce9call_once17hb1250f82ab822998E",
    "__ZN115_$LT$core..panic..unwind_safe..AssertUnwindSafe$LT$F$GT$$u20$as$u20$core..ops..function..FnOnce$LT$$LP$$RP$$GT$$GT$9call_once17h156df01ab880499cE",
    "__ZN3std9panicking3try7do_call17h12b00f5c1afca0e5E",
    "__ZN3std5panic12catch_unwind17h9623dc210b33032cE",
    "__ZN100_$LT$dioxus_core..any_props..VProps$LT$F$C$P$C$M$GT$$u20$as$u20$dioxus_core..any_props..AnyProps$GT$6render17h724478bd10ae45abE",
    "l___unnamed_8_harness-df4868ea1b5cadad.e382ndox9j839chz9esswif6u.rcgu.o",
    "__ZN100_$LT$dioxus_core..any_props..VProps$LT$F$C$P$C$M$GT$$u20$as$u20$dioxus_core..any_props..AnyProps$GT$9duplicate17hbcc315160800576aE",
    "l___unnamed_2_harness-df4868ea1b5cadad.c6wmz0dxwkc7r3o02wr81u9oy.rcgu.o",
    "__ZN11dioxus_core5nodes10VComponent3new17h64d3a0812e77f0edE",
    "__ZN11dioxus_core10properties10Properties15into_vcomponent17h7753673354bc1edfE",
    "__ZN7harness13zoom_controls17h3a73844835917e06E",
    "__ZN4core3ops8function2Fn4call17heb220dff9cb64346E",
    "__ZN119_$LT$F$u20$as$u20$dioxus_core..properties..ComponentFunction$LT$$LP$$RP$$C$dioxus_core..properties..EmptyMarker$GT$$GT$7rebuild17h1485b718be4dcc97E",
    "__ZN100_$LT$dioxus_core..any_props..VProps$LT$F$C$P$C$M$GT$$u20$as$u20$dioxus_core..any_props..AnyProps$GT$6render28_$u7b$$u7b$closure$u7d$$u7d$17h5f5c31c2c4fcd3edE",
    "__ZN4core3ops8function6FnOnce9call_once17haf610c889d773240E",
    "__ZN115_$LT$core..panic..unwind_safe..AssertUnwindSafe$LT$F$GT$$u20$as$u20$core..ops..function..FnOnce$LT$$LP$$RP$$GT$$GT$9call_once17he0621d6d235d0c08E",
    "__ZN3std9panicking3try7do_call17h8e7a94c382a5e60cE",
    "__ZN3std5panic12catch_unwind17h1f6291afe955bbfcE",
    "__ZN100_$LT$dioxus_core..any_props..VProps$LT$F$C$P$C$M$GT$$u20$as$u20$dioxus_core..any_props..AnyProps$GT$6render17h45480eba660d5148E",
    "l___unnamed_7_harness-df4868ea1b5cadad.c6wmz0dxwkc7r3o02wr81u9oy.rcgu.o",
    "__ZN11dioxus_core5nodes10VComponent3new17hcaaa6729c16dc137E",
    "__ZN11dioxus_core10properties10Properties15into_vcomponent17h79bafc80aea2aab7E",
    "___hotreload_start_app",
    "__ZN7harness3app17h400735d18e59eec4E",
    "__ZN7harness4main17h4654d77b3f37379bE",
    "_main",
]
ltmp1_harness-df4868ea1b5cadad.eb8zsigt6qccm8x0row4d6vli.rcgu.o
[]
__ZN7harness11GlobalInner17h56fe43aa3656219bE
[
    "__ZN7harness11GlobalInner17h56fe43aa3656219bE",
    "__ZN4core3ops8function2Fn4call17h3c8f851ee4dd175bE",
    "__ZN119_$LT$F$u20$as$u20$dioxus_core..properties..ComponentFunction$LT$$LP$$RP$$C$dioxus_core..properties..EmptyMarker$GT$$GT$7rebuild17hf7f1250efa3fb04cE",
    "__ZN100_$LT$dioxus_core..any_props..VProps$LT$F$C$P$C$M$GT$$u20$as$u20$dioxus_core..any_props..AnyProps$GT$6render28_$u7b$$u7b$closure$u7d$$u7d$17h025de8e22280b207E",
    "__ZN4core3ops8function6FnOnce9call_once17h371dcf20a99f261bE",
    "__ZN115_$LT$core..panic..unwind_safe..AssertUnwindSafe$LT$F$GT$$u20$as$u20$core..ops..function..FnOnce$LT$$LP$$RP$$GT$$GT$9call_once17h25a92dc564e3d7ffE",
    "__ZN3std9panicking3try7do_call17ha023efa9fb2ba8f7E",
    "__ZN3std5panic12catch_unwind17h48b71dec49934bf1E",
    "__ZN100_$LT$dioxus_core..any_props..VProps$LT$F$C$P$C$M$GT$$u20$as$u20$dioxus_core..any_props..AnyProps$GT$6render17h543a97c06bfefa3bE",
    "l___unnamed_4_harness-df4868ea1b5cadad.e382ndox9j839chz9esswif6u.rcgu.o",
    "__ZN100_$LT$dioxus_core..any_props..VProps$LT$F$C$P$C$M$GT$$u20$as$u20$dioxus_core..any_props..AnyProps$GT$9duplicate17h675ac73f4925ce25E",
    "l___unnamed_4_harness-df4868ea1b5cadad.c6wmz0dxwkc7r3o02wr81u9oy.rcgu.o",
    "__ZN11dioxus_core5nodes10VComponent3new17h993f8b3d9eb93954E",
    "__ZN11dioxus_core10properties10Properties15into_vcomponent17h965196ec13444056E",
    "__ZN7harness5Child17h2b32aeaba0b4c00dE",
    "__ZN4core3ops8function2Fn4call17hf86b26e1f09dbfc5E",
    "__ZN73_$LT$F$u20$as$u20$dioxus_core..properties..ComponentFunction$LT$P$GT$$GT$7rebuild17hdcc2e237eec08339E",
    "__ZN100_$LT$dioxus_core..any_props..VProps$LT$F$C$P$C$M$GT$$u20$as$u20$dioxus_core..any_props..AnyProps$GT$6render28_$u7b$$u7b$closure$u7d$$u7d$17hfbf53ec21013c460E",
    "__ZN4core3ops8function6FnOnce9call_once17hb1250f82ab822998E",
    "__ZN115_$LT$core..panic..unwind_safe..AssertUnwindSafe$LT$F$GT$$u20$as$u20$core..ops..function..FnOnce$LT$$LP$$RP$$GT$$GT$9call_once17h156df01ab880499cE",
    "__ZN3std9panicking3try7do_call17h12b00f5c1afca0e5E",
    "__ZN3std5panic12catch_unwind17h9623dc210b33032cE",
    "__ZN100_$LT$dioxus_core..any_props..VProps$LT$F$C$P$C$M$GT$$u20$as$u20$dioxus_core..any_props..AnyProps$GT$6render17h724478bd10ae45abE",
    "l___unnamed_8_harness-df4868ea1b5cadad.e382ndox9j839chz9esswif6u.rcgu.o",
    "__ZN100_$LT$dioxus_core..any_props..VProps$LT$F$C$P$C$M$GT$$u20$as$u20$dioxus_core..any_props..AnyProps$GT$9duplicate17hbcc315160800576aE",
    "l___unnamed_2_harness-df4868ea1b5cadad.c6wmz0dxwkc7r3o02wr81u9oy.rcgu.o",
    "__ZN11dioxus_core5nodes10VComponent3new17h64d3a0812e77f0edE",
    "__ZN11dioxus_core10properties10Properties15into_vcomponent17h7753673354bc1edfE",
    "__ZN7harness13zoom_controls17h3a73844835917e06E",
    "__ZN4core3ops8function2Fn4call17heb220dff9cb64346E",
    "__ZN119_$LT$F$u20$as$u20$dioxus_core..properties..ComponentFunction$LT$$LP$$RP$$C$dioxus_core..properties..EmptyMarker$GT$$GT$7rebuild17h1485b718be4dcc97E",
    "__ZN100_$LT$dioxus_core..any_props..VProps$LT$F$C$P$C$M$GT$$u20$as$u20$dioxus_core..any_props..AnyProps$GT$6render28_$u7b$$u7b$closure$u7d$$u7d$17h5f5c31c2c4fcd3edE",
    "__ZN4core3ops8function6FnOnce9call_once17haf610c889d773240E",
    "__ZN115_$LT$core..panic..unwind_safe..AssertUnwindSafe$LT$F$GT$$u20$as$u20$core..ops..function..FnOnce$LT$$LP$$RP$$GT$$GT$9call_once17he0621d6d235d0c08E",
    "__ZN3std9panicking3try7do_call17h8e7a94c382a5e60cE",
    "__ZN3std5panic12catch_unwind17h1f6291afe955bbfcE",
    "__ZN100_$LT$dioxus_core..any_props..VProps$LT$F$C$P$C$M$GT$$u20$as$u20$dioxus_core..any_props..AnyProps$GT$6render17h45480eba660d5148E",
    "l___unnamed_7_harness-df4868ea1b5cadad.c6wmz0dxwkc7r3o02wr81u9oy.rcgu.o",
    "__ZN11dioxus_core5nodes10VComponent3new17hcaaa6729c16dc137E",
    "__ZN11dioxus_core10properties10Properties15into_vcomponent17h79bafc80aea2aab7E",
    "___hotreload_start_app",
    "__ZN7harness3app17h400735d18e59eec4E",
    "__ZN7harness4main17h4654d77b3f37379bE",
    "_main",
]
__ZN7harness11GlobalInner28_$u7b$$u7b$closure$u7d$$u7d$17h83e23bc1b000aaddE
[
    "__ZN7harness11GlobalInner28_$u7b$$u7b$closure$u7d$$u7d$17h83e23bc1b000aaddE",
    "__ZN11dioxus_core6events26Callback$LT$Args$C$Ret$GT$3new28_$u7b$$u7b$closure$u7d$$u7d$17h45d2ab00a1f86a5dE",
    "__ZN4core3ops8function6FnOnce9call_once17hb8db5bf4a298cf8dE",
    "__ZN4core3ops8function6FnOnce40call_once$u7b$$u7b$vtable.shim$u7d$$u7d$17hf30bfe7d413f9148E",
    "l___unnamed_7_harness-df4868ea1b5cadad.egexdem49eejgynie32zwugcu.rcgu.o",
    "__ZN11dioxus_core6events26Callback$LT$Args$C$Ret$GT$3new17h751af1161533626fE",
    "__ZN169_$LT$dioxus_core..events..Callback$LT$Args$C$Ret$GT$$u20$as$u20$dioxus_core..properties..SuperFrom$LT$Function$C$dioxus_core..events..MarkerWrapper$LT$Marker$GT$$GT$$GT$10super_from17haa22a4debecb6fe0E",
    "__ZN69_$LT$T$u20$as$u20$dioxus_core..properties..SuperInto$LT$O$C$M$GT$$GT$10super_into17hc6a6d6edb8ddce79E",
    "__ZN11dioxus_html6events5mouse7onclick28_$u7b$$u7b$closure$u7d$$u7d$17h6321f17b0a399ea5E",
    "__ZN11dioxus_core16generational_box10with_owner17h3e78be9c6f015de2E",
    "__ZN11dioxus_html6events5mouse7onclick17hcc8598b47cb1f19eE",
    "__ZN11dioxus_html6events5mouse7onclick26call_with_explicit_closure17h270194a35e38cf48E",
    "__ZN7harness11GlobalInner17h56fe43aa3656219bE",
    "__ZN4core3ops8function2Fn4call17h3c8f851ee4dd175bE",
    "__ZN119_$LT$F$u20$as$u20$dioxus_core..properties..ComponentFunction$LT$$LP$$RP$$C$dioxus_core..properties..EmptyMarker$GT$$GT$7rebuild17hf7f1250efa3fb04cE",
    "__ZN100_$LT$dioxus_core..any_props..VProps$LT$F$C$P$C$M$GT$$u20$as$u20$dioxus_core..any_props..AnyProps$GT$6render28_$u7b$$u7b$closure$u7d$$u7d$17h025de8e22280b207E",
    "__ZN4core3ops8function6FnOnce9call_once17h371dcf20a99f261bE",
    "__ZN115_$LT$core..panic..unwind_safe..AssertUnwindSafe$LT$F$GT$$u20$as$u20$core..ops..function..FnOnce$LT$$LP$$RP$$GT$$GT$9call_once17h25a92dc564e3d7ffE",
    "__ZN3std9panicking3try7do_call17ha023efa9fb2ba8f7E",
    "__ZN3std5panic12catch_unwind17h48b71dec49934bf1E",
    "__ZN100_$LT$dioxus_core..any_props..VProps$LT$F$C$P$C$M$GT$$u20$as$u20$dioxus_core..any_props..AnyProps$GT$6render17h543a97c06bfefa3bE",
    "l___unnamed_4_harness-df4868ea1b5cadad.e382ndox9j839chz9esswif6u.rcgu.o",
    "__ZN100_$LT$dioxus_core..any_props..VProps$LT$F$C$P$C$M$GT$$u20$as$u20$dioxus_core..any_props..AnyProps$GT$9duplicate17h675ac73f4925ce25E",
    "l___unnamed_4_harness-df4868ea1b5cadad.c6wmz0dxwkc7r3o02wr81u9oy.rcgu.o",
    "__ZN11dioxus_core5nodes10VComponent3new17h993f8b3d9eb93954E",
    "__ZN11dioxus_core10properties10Properties15into_vcomponent17h965196ec13444056E",
    "__ZN7harness5Child17h2b32aeaba0b4c00dE",
    "__ZN4core3ops8function2Fn4call17hf86b26e1f09dbfc5E",
    "__ZN73_$LT$F$u20$as$u20$dioxus_core..properties..ComponentFunction$LT$P$GT$$GT$7rebuild17hdcc2e237eec08339E",
    "__ZN100_$LT$dioxus_core..any_props..VProps$LT$F$C$P$C$M$GT$$u20$as$u20$dioxus_core..any_props..AnyProps$GT$6render28_$u7b$$u7b$closure$u7d$$u7d$17hfbf53ec21013c460E",
    "__ZN4core3ops8function6FnOnce9call_once17hb1250f82ab822998E",
    "__ZN115_$LT$core..panic..unwind_safe..AssertUnwindSafe$LT$F$GT$$u20$as$u20$core..ops..function..FnOnce$LT$$LP$$RP$$GT$$GT$9call_once17h156df01ab880499cE",
    "__ZN3std9panicking3try7do_call17h12b00f5c1afca0e5E",
    "__ZN3std5panic12catch_unwind17h9623dc210b33032cE",
    "__ZN100_$LT$dioxus_core..any_props..VProps$LT$F$C$P$C$M$GT$$u20$as$u20$dioxus_core..any_props..AnyProps$GT$6render17h724478bd10ae45abE",
    "l___unnamed_8_harness-df4868ea1b5cadad.e382ndox9j839chz9esswif6u.rcgu.o",
    "__ZN100_$LT$dioxus_core..any_props..VProps$LT$F$C$P$C$M$GT$$u20$as$u20$dioxus_core..any_props..AnyProps$GT$9duplicate17hbcc315160800576aE",
    "l___unnamed_2_harness-df4868ea1b5cadad.c6wmz0dxwkc7r3o02wr81u9oy.rcgu.o",
    "__ZN11dioxus_core5nodes10VComponent3new17h64d3a0812e77f0edE",
    "__ZN11dioxus_core10properties10Properties15into_vcomponent17h7753673354bc1edfE",
    "__ZN7harness13zoom_controls17h3a73844835917e06E",
    "__ZN4core3ops8function2Fn4call17heb220dff9cb64346E",
    "__ZN119_$LT$F$u20$as$u20$dioxus_core..properties..ComponentFunction$LT$$LP$$RP$$C$dioxus_core..properties..EmptyMarker$GT$$GT$7rebuild17h1485b718be4dcc97E",
    "__ZN100_$LT$dioxus_core..any_props..VProps$LT$F$C$P$C$M$GT$$u20$as$u20$dioxus_core..any_props..AnyProps$GT$6render28_$u7b$$u7b$closure$u7d$$u7d$17h5f5c31c2c4fcd3edE",
    "__ZN4core3ops8function6FnOnce9call_once17haf610c889d773240E",
    "__ZN115_$LT$core..panic..unwind_safe..AssertUnwindSafe$LT$F$GT$$u20$as$u20$core..ops..function..FnOnce$LT$$LP$$RP$$GT$$GT$9call_once17he0621d6d235d0c08E",
    "__ZN3std9panicking3try7do_call17h8e7a94c382a5e60cE",
    "__ZN3std5panic12catch_unwind17h1f6291afe955bbfcE",
    "__ZN100_$LT$dioxus_core..any_props..VProps$LT$F$C$P$C$M$GT$$u20$as$u20$dioxus_core..any_props..AnyProps$GT$6render17h45480eba660d5148E",
    "l___unnamed_7_harness-df4868ea1b5cadad.c6wmz0dxwkc7r3o02wr81u9oy.rcgu.o",
    "__ZN11dioxus_core5nodes10VComponent3new17hcaaa6729c16dc137E",
    "__ZN11dioxus_core10properties10Properties15into_vcomponent17h79bafc80aea2aab7E",
    "___hotreload_start_app",
    "__ZN7harness3app17h400735d18e59eec4E",
    "__ZN7harness4main17h4654d77b3f37379bE",
    "_main",
]
__ZN11dioxus_core13scope_context46_$LT$impl$u20$dioxus_core..scopes..ScopeId$GT$10in_runtime17h8839846f97dbe1ddE
[
    "__ZN11dioxus_core13scope_context46_$LT$impl$u20$dioxus_core..scopes..ScopeId$GT$10in_runtime17h8839846f97dbe1ddE",
    "__ZN14dioxus_signals6global19Global$LT$T$C$R$GT$7resolve17hfca595143252f355E",
    "__ZN94_$LT$dioxus_signals..global..Global$LT$T$C$R$GT$$u20$as$u20$dioxus_signals..read..Readable$GT$18try_read_unchecked17hdf66837701d74a96E",
    "__ZN14dioxus_signals4read8Readable8try_read17h4c98c1be567ce532E",
    "__ZN14dioxus_signals4read8Readable4read17he797328ed7d7b867E",
    "__ZN14dioxus_signals4read8Readable4with17h40ffefba83cf26acE",
    "__ZN14dioxus_signals6global6signal130_$LT$impl$u20$core..fmt..Display$u20$for$u20$dioxus_signals..global..Global$LT$dioxus_signals..signal..Signal$LT$T$GT$$C$T$GT$$GT$3fmt17h9bae2be454d81459E",
    "__ZN14dioxus_signals6global6signal130_$LT$impl$u20$core..fmt..Display$u20$for$u20$dioxus_signals..global..Global$LT$dioxus_signals..signal..Signal$LT$T$GT$$C$T$GT$$GT$33fmt$u7b$$u7b$reify.shim$u7d$$u7d$17h6614528e6ee54eebE",
    "__ZN7harness11GlobalInner17h56fe43aa3656219bE",
    "__ZN4core3ops8function2Fn4call17h3c8f851ee4dd175bE",
    "__ZN119_$LT$F$u20$as$u20$dioxus_core..properties..ComponentFunction$LT$$LP$$RP$$C$dioxus_core..properties..EmptyMarker$GT$$GT$7rebuild17hf7f1250efa3fb04cE",
    "__ZN100_$LT$dioxus_core..any_props..VProps$LT$F$C$P$C$M$GT$$u20$as$u20$dioxus_core..any_props..AnyProps$GT$6render28_$u7b$$u7b$closure$u7d$$u7d$17h025de8e22280b207E",
    "__ZN4core3ops8function6FnOnce9call_once17h371dcf20a99f261bE",
    "__ZN115_$LT$core..panic..unwind_safe..AssertUnwindSafe$LT$F$GT$$u20$as$u20$core..ops..function..FnOnce$LT$$LP$$RP$$GT$$GT$9call_once17h25a92dc564e3d7ffE",
    "__ZN3std9panicking3try7do_call17ha023efa9fb2ba8f7E",
    "__ZN3std5panic12catch_unwind17h48b71dec49934bf1E",
    "__ZN100_$LT$dioxus_core..any_props..VProps$LT$F$C$P$C$M$GT$$u20$as$u20$dioxus_core..any_props..AnyProps$GT$6render17h543a97c06bfefa3bE",
    "l___unnamed_4_harness-df4868ea1b5cadad.e382ndox9j839chz9esswif6u.rcgu.o",
    "__ZN100_$LT$dioxus_core..any_props..VProps$LT$F$C$P$C$M$GT$$u20$as$u20$dioxus_core..any_props..AnyProps$GT$9duplicate17h675ac73f4925ce25E",
    "l___unnamed_4_harness-df4868ea1b5cadad.c6wmz0dxwkc7r3o02wr81u9oy.rcgu.o",
    "__ZN11dioxus_core5nodes10VComponent3new17h993f8b3d9eb93954E",
    "__ZN11dioxus_core10properties10Properties15into_vcomponent17h965196ec13444056E",
    "__ZN7harness5Child17h2b32aeaba0b4c00dE",
    "__ZN4core3ops8function2Fn4call17hf86b26e1f09dbfc5E",
    "__ZN73_$LT$F$u20$as$u20$dioxus_core..properties..ComponentFunction$LT$P$GT$$GT$7rebuild17hdcc2e237eec08339E",
    "__ZN100_$LT$dioxus_core..any_props..VProps$LT$F$C$P$C$M$GT$$u20$as$u20$dioxus_core..any_props..AnyProps$GT$6render28_$u7b$$u7b$closure$u7d$$u7d$17hfbf53ec21013c460E",
    "__ZN4core3ops8function6FnOnce9call_once17hb1250f82ab822998E",
    "__ZN115_$LT$core..panic..unwind_safe..AssertUnwindSafe$LT$F$GT$$u20$as$u20$core..ops..function..FnOnce$LT$$LP$$RP$$GT$$GT$9call_once17h156df01ab880499cE",
    "__ZN3std9panicking3try7do_call17h12b00f5c1afca0e5E",
    "__ZN3std5panic12catch_unwind17h9623dc210b33032cE",
    "__ZN100_$LT$dioxus_core..any_props..VProps$LT$F$C$P$C$M$GT$$u20$as$u20$dioxus_core..any_props..AnyProps$GT$6render17h724478bd10ae45abE",
    "l___unnamed_8_harness-df4868ea1b5cadad.e382ndox9j839chz9esswif6u.rcgu.o",
    "__ZN100_$LT$dioxus_core..any_props..VProps$LT$F$C$P$C$M$GT$$u20$as$u20$dioxus_core..any_props..AnyProps$GT$9duplicate17hbcc315160800576aE",
    "l___unnamed_2_harness-df4868ea1b5cadad.c6wmz0dxwkc7r3o02wr81u9oy.rcgu.o",
    "__ZN11dioxus_core5nodes10VComponent3new17h64d3a0812e77f0edE",
    "__ZN11dioxus_core10properties10Properties15into_vcomponent17h7753673354bc1edfE",
    "__ZN7harness13zoom_controls17h3a73844835917e06E",
    "__ZN4core3ops8function2Fn4call17heb220dff9cb64346E",
    "__ZN119_$LT$F$u20$as$u20$dioxus_core..properties..ComponentFunction$LT$$LP$$RP$$C$dioxus_core..properties..EmptyMarker$GT$$GT$7rebuild17h1485b718be4dcc97E",
    "__ZN100_$LT$dioxus_core..any_props..VProps$LT$F$C$P$C$M$GT$$u20$as$u20$dioxus_core..any_props..AnyProps$GT$6render28_$u7b$$u7b$closure$u7d$$u7d$17h5f5c31c2c4fcd3edE",
    "__ZN4core3ops8function6FnOnce9call_once17haf610c889d773240E",
    "__ZN115_$LT$core..panic..unwind_safe..AssertUnwindSafe$LT$F$GT$$u20$as$u20$core..ops..function..FnOnce$LT$$LP$$RP$$GT$$GT$9call_once17he0621d6d235d0c08E",
    "__ZN3std9panicking3try7do_call17h8e7a94c382a5e60cE",
    "__ZN3std5panic12catch_unwind17h1f6291afe955bbfcE",
    "__ZN100_$LT$dioxus_core..any_props..VProps$LT$F$C$P$C$M$GT$$u20$as$u20$dioxus_core..any_props..AnyProps$GT$6render17h45480eba660d5148E",
    "l___unnamed_7_harness-df4868ea1b5cadad.c6wmz0dxwkc7r3o02wr81u9oy.rcgu.o",
    "__ZN11dioxus_core5nodes10VComponent3new17hcaaa6729c16dc137E",
    "__ZN11dioxus_core10properties10Properties15into_vcomponent17h79bafc80aea2aab7E",
    "___hotreload_start_app",
    "__ZN7harness3app17h400735d18e59eec4E",
    "__ZN7harness4main17h4654d77b3f37379bE",
    "_main",
]
__ZN4core6result19Result$LT$T$C$E$GT$3map17h195d086a68e318baE
[
    "__ZN4core6result19Result$LT$T$C$E$GT$3map17h195d086a68e318baE",
    "__ZN14dioxus_signals4read8Readable8try_read17h3f53ef44cef9d75bE",
    "__ZN14dioxus_signals8warnings41__signal_read_and_write_in_reactive_scope23__Callable$LT$T$C$S$GT$16__run_if_enabled28_$u7b$$u7b$closure$u7d$$u7d$39signal_read_and_write_in_reactive_scope17h1ad309ff6660ea62E",
    "__ZN14dioxus_signals8warnings41__signal_read_and_write_in_reactive_scope23__Callable$LT$T$C$S$GT$16__run_if_enabled28_$u7b$$u7b$closure$u7d$$u7d$17h1b0f83081d19009bE",
    "__ZN8warnings8warnings9WarningId10if_enabled17ha6ef6cba53b085f6E",
    "__ZN14dioxus_signals8warnings41__signal_read_and_write_in_reactive_scope23__Callable$LT$T$C$S$GT$16__run_if_enabled17he99b0af967ae97feE",
    "l___unnamed_2_harness-df4868ea1b5cadad.a64hlspyskaofkyts3cee93he.rcgu.o",
    "__ZN136_$LT$dioxus_signals..warnings..__signal_read_and_write_in_reactive_scope..__Callable$LT$T$C$S$GT$$u20$as$u20$core..ops..deref..Deref$GT$5deref17h86c7f97abc3f6c06E",
    "__ZN99_$LT$dioxus_signals..signal..SignalSubscriberDrop$LT$T$C$S$GT$$u20$as$u20$core..ops..drop..Drop$GT$4drop17h330fbe4f6664ee0bE",
    "__ZN4core3ptr118drop_in_place$LT$dioxus_signals..signal..SignalSubscriberDrop$LT$i64$C$generational_box..unsync..UnsyncStorage$GT$$GT$17h25b2886afdcde067E",
    "l___unnamed_21_harness-df4868ea1b5cadad.5qrn0xfhbv2rouh4f52itu55i.rcgu.o",
    "__ZN95_$LT$dioxus_signals..signal..Signal$LT$T$C$S$GT$$u20$as$u20$dioxus_signals..write..Writable$GT$19try_write_unchecked28_$u7b$$u7b$closure$u7d$$u7d$17he1b9191098da229cE",
    "__ZN4core6result19Result$LT$T$C$E$GT$3map17he4a924266e5e9d5aE",
    "__ZN95_$LT$dioxus_signals..signal..Signal$LT$T$C$S$GT$$u20$as$u20$dioxus_signals..write..Writable$GT$19try_write_unchecked17h4cba87c5ead1eb17E",
    "__ZN14dioxus_signals6global19Global$LT$T$C$R$GT$5write17h2228387cbea56f90E",
    "__ZN7harness11GlobalInner28_$u7b$$u7b$closure$u7d$$u7d$17hb42c5660948e5f3bE",
    "__ZN11dioxus_core6events26Callback$LT$Args$C$Ret$GT$3new28_$u7b$$u7b$closure$u7d$$u7d$17h6f96a569a9f12b13E",
    "l___unnamed_9_harness-df4868ea1b5cadad.egexdem49eejgynie32zwugcu.rcgu.o",
    "__ZN11dioxus_core6events26Callback$LT$Args$C$Ret$GT$3new17he13b8bd10ebc92d6E",
    "__ZN169_$LT$dioxus_core..events..Callback$LT$Args$C$Ret$GT$$u20$as$u20$dioxus_core..properties..SuperFrom$LT$Function$C$dioxus_core..events..MarkerWrapper$LT$Marker$GT$$GT$$GT$10super_from17h0f0cdd7a8468e271E",
    "__ZN69_$LT$T$u20$as$u20$dioxus_core..properties..SuperInto$LT$O$C$M$GT$$GT$10super_into17he799bb527ae17417E",
    "__ZN11dioxus_html6events5mouse7onclick28_$u7b$$u7b$closure$u7d$$u7d$17hcda8013b3fb0a7b1E",
    "__ZN11dioxus_core16generational_box10with_owner17hb0ca740788bcf0beE",
    "__ZN11dioxus_html6events5mouse7onclick17hcc75453cf267d2c1E",
    "__ZN11dioxus_html6events5mouse7onclick26call_with_explicit_closure17hc65524ea0f855dd4E",
    "__ZN7harness11GlobalInner17h56fe43aa3656219bE",
    "__ZN4core3ops8function2Fn4call17h3c8f851ee4dd175bE",
    "__ZN119_$LT$F$u20$as$u20$dioxus_core..properties..ComponentFunction$LT$$LP$$RP$$C$dioxus_core..properties..EmptyMarker$GT$$GT$7rebuild17hf7f1250efa3fb04cE",
    "__ZN100_$LT$dioxus_core..any_props..VProps$LT$F$C$P$C$M$GT$$u20$as$u20$dioxus_core..any_props..AnyProps$GT$6render28_$u7b$$u7b$closure$u7d$$u7d$17h025de8e22280b207E",
    "__ZN4core3ops8function6FnOnce9call_once17h371dcf20a99f261bE",
    "__ZN115_$LT$core..panic..unwind_safe..AssertUnwindSafe$LT$F$GT$$u20$as$u20$core..ops..function..FnOnce$LT$$LP$$RP$$GT$$GT$9call_once17h25a92dc564e3d7ffE",
    "__ZN3std9panicking3try7do_call17ha023efa9fb2ba8f7E",
    "__ZN3std5panic12catch_unwind17h48b71dec49934bf1E",
    "__ZN100_$LT$dioxus_core..any_props..VProps$LT$F$C$P$C$M$GT$$u20$as$u20$dioxus_core..any_props..AnyProps$GT$6render17h543a97c06bfefa3bE",
    "l___unnamed_4_harness-df4868ea1b5cadad.e382ndox9j839chz9esswif6u.rcgu.o",
    "__ZN100_$LT$dioxus_core..any_props..VProps$LT$F$C$P$C$M$GT$$u20$as$u20$dioxus_core..any_props..AnyProps$GT$9duplicate17h675ac73f4925ce25E",
    "l___unnamed_4_harness-df4868ea1b5cadad.c6wmz0dxwkc7r3o02wr81u9oy.rcgu.o",
    "__ZN11dioxus_core5nodes10VComponent3new17h993f8b3d9eb93954E",
    "__ZN11dioxus_core10properties10Properties15into_vcomponent17h965196ec13444056E",
    "__ZN7harness5Child17h2b32aeaba0b4c00dE",
    "__ZN4core3ops8function2Fn4call17hf86b26e1f09dbfc5E",
    "__ZN73_$LT$F$u20$as$u20$dioxus_core..properties..ComponentFunction$LT$P$GT$$GT$7rebuild17hdcc2e237eec08339E",
    "__ZN100_$LT$dioxus_core..any_props..VProps$LT$F$C$P$C$M$GT$$u20$as$u20$dioxus_core..any_props..AnyProps$GT$6render28_$u7b$$u7b$closure$u7d$$u7d$17hfbf53ec21013c460E",
    "__ZN4core3ops8function6FnOnce9call_once17hb1250f82ab822998E",
    "__ZN115_$LT$core..panic..unwind_safe..AssertUnwindSafe$LT$F$GT$$u20$as$u20$core..ops..function..FnOnce$LT$$LP$$RP$$GT$$GT$9call_once17h156df01ab880499cE",
    "__ZN3std9panicking3try7do_call17h12b00f5c1afca0e5E",
    "__ZN3std5panic12catch_unwind17h9623dc210b33032cE",
    "__ZN100_$LT$dioxus_core..any_props..VProps$LT$F$C$P$C$M$GT$$u20$as$u20$dioxus_core..any_props..AnyProps$GT$6render17h724478bd10ae45abE",
    "l___unnamed_8_harness-df4868ea1b5cadad.e382ndox9j839chz9esswif6u.rcgu.o",
    "__ZN100_$LT$dioxus_core..any_props..VProps$LT$F$C$P$C$M$GT$$u20$as$u20$dioxus_core..any_props..AnyProps$GT$9duplicate17hbcc315160800576aE",
    "l___unnamed_2_harness-df4868ea1b5cadad.c6wmz0dxwkc7r3o02wr81u9oy.rcgu.o",
    "__ZN11dioxus_core5nodes10VComponent3new17h64d3a0812e77f0edE",
    "__ZN11dioxus_core10properties10Properties15into_vcomponent17h7753673354bc1edfE",
    "__ZN7harness13zoom_controls17h3a73844835917e06E",
    "__ZN4core3ops8function2Fn4call17heb220dff9cb64346E",
    "__ZN119_$LT$F$u20$as$u20$dioxus_core..properties..ComponentFunction$LT$$LP$$RP$$C$dioxus_core..properties..EmptyMarker$GT$$GT$7rebuild17h1485b718be4dcc97E",
    "__ZN100_$LT$dioxus_core..any_props..VProps$LT$F$C$P$C$M$GT$$u20$as$u20$dioxus_core..any_props..AnyProps$GT$6render28_$u7b$$u7b$closure$u7d$$u7d$17h5f5c31c2c4fcd3edE",
    "__ZN4core3ops8function6FnOnce9call_once17haf610c889d773240E",
    "__ZN115_$LT$core..panic..unwind_safe..AssertUnwindSafe$LT$F$GT$$u20$as$u20$core..ops..function..FnOnce$LT$$LP$$RP$$GT$$GT$9call_once17he0621d6d235d0c08E",
    "__ZN3std9panicking3try7do_call17h8e7a94c382a5e60cE",
    "__ZN3std5panic12catch_unwind17h1f6291afe955bbfcE",
    "__ZN100_$LT$dioxus_core..any_props..VProps$LT$F$C$P$C$M$GT$$u20$as$u20$dioxus_core..any_props..AnyProps$GT$6render17h45480eba660d5148E",
    "l___unnamed_7_harness-df4868ea1b5cadad.c6wmz0dxwkc7r3o02wr81u9oy.rcgu.o",
    "__ZN11dioxus_core5nodes10VComponent3new17hcaaa6729c16dc137E",
    "__ZN11dioxus_core10properties10Properties15into_vcomponent17h79bafc80aea2aab7E",
    "___hotreload_start_app",
    "__ZN7harness3app17h400735d18e59eec4E",
    "__ZN7harness4main17h4654d77b3f37379bE",
    "_main",
]
__ZN4core3ptr100drop_in_place$LT$generational_box..references..GenerationalRef$LT$core..cell..Ref$LT$i64$GT$$GT$$GT$17he0d124774cca5bf1E
[
    "__ZN4core3ptr100drop_in_place$LT$generational_box..references..GenerationalRef$LT$core..cell..Ref$LT$i64$GT$$GT$$GT$17he0d124774cca5bf1E",
    "__ZN14dioxus_signals4read8Readable4with17h40ffefba83cf26acE",
    "__ZN14dioxus_signals6global6signal130_$LT$impl$u20$core..fmt..Display$u20$for$u20$dioxus_signals..global..Global$LT$dioxus_signals..signal..Signal$LT$T$GT$$C$T$GT$$GT$3fmt17h9bae2be454d81459E",
    "__ZN14dioxus_signals6global6signal130_$LT$impl$u20$core..fmt..Display$u20$for$u20$dioxus_signals..global..Global$LT$dioxus_signals..signal..Signal$LT$T$GT$$C$T$GT$$GT$33fmt$u7b$$u7b$reify.shim$u7d$$u7d$17h6614528e6ee54eebE",
    "__ZN7harness11GlobalInner17h56fe43aa3656219bE",
    "__ZN4core3ops8function2Fn4call17h3c8f851ee4dd175bE",
    "__ZN119_$LT$F$u20$as$u20$dioxus_core..properties..ComponentFunction$LT$$LP$$RP$$C$dioxus_core..properties..EmptyMarker$GT$$GT$7rebuild17hf7f1250efa3fb04cE",
    "__ZN100_$LT$dioxus_core..any_props..VProps$LT$F$C$P$C$M$GT$$u20$as$u20$dioxus_core..any_props..AnyProps$GT$6render28_$u7b$$u7b$closure$u7d$$u7d$17h025de8e22280b207E",
    "__ZN4core3ops8function6FnOnce9call_once17h371dcf20a99f261bE",
    "__ZN115_$LT$core..panic..unwind_safe..AssertUnwindSafe$LT$F$GT$$u20$as$u20$core..ops..function..FnOnce$LT$$LP$$RP$$GT$$GT$9call_once17h25a92dc564e3d7ffE",
    "__ZN3std9panicking3try7do_call17ha023efa9fb2ba8f7E",
    "__ZN3std5panic12catch_unwind17h48b71dec49934bf1E",
    "__ZN100_$LT$dioxus_core..any_props..VProps$LT$F$C$P$C$M$GT$$u20$as$u20$dioxus_core..any_props..AnyProps$GT$6render17h543a97c06bfefa3bE",
    "l___unnamed_4_harness-df4868ea1b5cadad.e382ndox9j839chz9esswif6u.rcgu.o",
    "__ZN100_$LT$dioxus_core..any_props..VProps$LT$F$C$P$C$M$GT$$u20$as$u20$dioxus_core..any_props..AnyProps$GT$9duplicate17h675ac73f4925ce25E",
    "l___unnamed_4_harness-df4868ea1b5cadad.c6wmz0dxwkc7r3o02wr81u9oy.rcgu.o",
    "__ZN11dioxus_core5nodes10VComponent3new17h993f8b3d9eb93954E",
    "__ZN11dioxus_core10properties10Properties15into_vcomponent17h965196ec13444056E",
    "__ZN7harness5Child17h2b32aeaba0b4c00dE",
    "__ZN4core3ops8function2Fn4call17hf86b26e1f09dbfc5E",
    "__ZN73_$LT$F$u20$as$u20$dioxus_core..properties..ComponentFunction$LT$P$GT$$GT$7rebuild17hdcc2e237eec08339E",
    "__ZN100_$LT$dioxus_core..any_props..VProps$LT$F$C$P$C$M$GT$$u20$as$u20$dioxus_core..any_props..AnyProps$GT$6render28_$u7b$$u7b$closure$u7d$$u7d$17hfbf53ec21013c460E",
    "__ZN4core3ops8function6FnOnce9call_once17hb1250f82ab822998E",
    "__ZN115_$LT$core..panic..unwind_safe..AssertUnwindSafe$LT$F$GT$$u20$as$u20$core..ops..function..FnOnce$LT$$LP$$RP$$GT$$GT$9call_once17h156df01ab880499cE",
    "__ZN3std9panicking3try7do_call17h12b00f5c1afca0e5E",
    "__ZN3std5panic12catch_unwind17h9623dc210b33032cE",
    "__ZN100_$LT$dioxus_core..any_props..VProps$LT$F$C$P$C$M$GT$$u20$as$u20$dioxus_core..any_props..AnyProps$GT$6render17h724478bd10ae45abE",
    "l___unnamed_8_harness-df4868ea1b5cadad.e382ndox9j839chz9esswif6u.rcgu.o",
    "__ZN100_$LT$dioxus_core..any_props..VProps$LT$F$C$P$C$M$GT$$u20$as$u20$dioxus_core..any_props..AnyProps$GT$9duplicate17hbcc315160800576aE",
    "l___unnamed_2_harness-df4868ea1b5cadad.c6wmz0dxwkc7r3o02wr81u9oy.rcgu.o",
    "__ZN11dioxus_core5nodes10VComponent3new17h64d3a0812e77f0edE",
    "__ZN11dioxus_core10properties10Properties15into_vcomponent17h7753673354bc1edfE",
    "__ZN7harness13zoom_controls17h3a73844835917e06E",
    "__ZN4core3ops8function2Fn4call17heb220dff9cb64346E",
    "__ZN119_$LT$F$u20$as$u20$dioxus_core..properties..ComponentFunction$LT$$LP$$RP$$C$dioxus_core..properties..EmptyMarker$GT$$GT$7rebuild17h1485b718be4dcc97E",
    "__ZN100_$LT$dioxus_core..any_props..VProps$LT$F$C$P$C$M$GT$$u20$as$u20$dioxus_core..any_props..AnyProps$GT$6render28_$u7b$$u7b$closure$u7d$$u7d$17h5f5c31c2c4fcd3edE",
    "__ZN4core3ops8function6FnOnce9call_once17haf610c889d773240E",
    "__ZN115_$LT$core..panic..unwind_safe..AssertUnwindSafe$LT$F$GT$$u20$as$u20$core..ops..function..FnOnce$LT$$LP$$RP$$GT$$GT$9call_once17he0621d6d235d0c08E",
    "__ZN3std9panicking3try7do_call17h8e7a94c382a5e60cE",
    "__ZN3std5panic12catch_unwind17h1f6291afe955bbfcE",
    "__ZN100_$LT$dioxus_core..any_props..VProps$LT$F$C$P$C$M$GT$$u20$as$u20$dioxus_core..any_props..AnyProps$GT$6render17h45480eba660d5148E",
    "l___unnamed_7_harness-df4868ea1b5cadad.c6wmz0dxwkc7r3o02wr81u9oy.rcgu.o",
    "__ZN11dioxus_core5nodes10VComponent3new17hcaaa6729c16dc137E",
    "__ZN11dioxus_core10properties10Properties15into_vcomponent17h79bafc80aea2aab7E",
    "___hotreload_start_app",
    "__ZN7harness3app17h400735d18e59eec4E",
    "__ZN7harness4main17h4654d77b3f37379bE",
    "_main",
]
__ZN88_$LT$generational_box..unsync..UnsyncStorage$u20$as$u20$generational_box..AnyStorage$GT$3map17he324b18dbe7b6b0fE
[
    "__ZN88_$LT$generational_box..unsync..UnsyncStorage$u20$as$u20$generational_box..AnyStorage$GT$3map17he324b18dbe7b6b0fE",
    "__ZN94_$LT$dioxus_signals..signal..Signal$LT$T$C$S$GT$$u20$as$u20$dioxus_signals..read..Readable$GT$18try_read_unchecked17h9b44c3b9dae81db5E",
    "__ZN94_$LT$dioxus_signals..global..Global$LT$T$C$R$GT$$u20$as$u20$dioxus_signals..read..Readable$GT$18try_read_unchecked17hdf66837701d74a96E",
    "__ZN14dioxus_signals4read8Readable8try_read17h4c98c1be567ce532E",
    "__ZN14dioxus_signals4read8Readable4read17he797328ed7d7b867E",
    "__ZN14dioxus_signals4read8Readable4with17h40ffefba83cf26acE",
    "__ZN14dioxus_signals6global6signal130_$LT$impl$u20$core..fmt..Display$u20$for$u20$dioxus_signals..global..Global$LT$dioxus_signals..signal..Signal$LT$T$GT$$C$T$GT$$GT$3fmt17h9bae2be454d81459E",
    "__ZN14dioxus_signals6global6signal130_$LT$impl$u20$core..fmt..Display$u20$for$u20$dioxus_signals..global..Global$LT$dioxus_signals..signal..Signal$LT$T$GT$$C$T$GT$$GT$33fmt$u7b$$u7b$reify.shim$u7d$$u7d$17h6614528e6ee54eebE",
    "__ZN7harness11GlobalInner17h56fe43aa3656219bE",
    "__ZN4core3ops8function2Fn4call17h3c8f851ee4dd175bE",
    "__ZN119_$LT$F$u20$as$u20$dioxus_core..properties..ComponentFunction$LT$$LP$$RP$$C$dioxus_core..properties..EmptyMarker$GT$$GT$7rebuild17hf7f1250efa3fb04cE",
    "__ZN100_$LT$dioxus_core..any_props..VProps$LT$F$C$P$C$M$GT$$u20$as$u20$dioxus_core..any_props..AnyProps$GT$6render28_$u7b$$u7b$closure$u7d$$u7d$17h025de8e22280b207E",
    "__ZN4core3ops8function6FnOnce9call_once17h371dcf20a99f261bE",
    "__ZN115_$LT$core..panic..unwind_safe..AssertUnwindSafe$LT$F$GT$$u20$as$u20$core..ops..function..FnOnce$LT$$LP$$RP$$GT$$GT$9call_once17h25a92dc564e3d7ffE",
    "__ZN3std9panicking3try7do_call17ha023efa9fb2ba8f7E",
    "__ZN3std5panic12catch_unwind17h48b71dec49934bf1E",
    "__ZN100_$LT$dioxus_core..any_props..VProps$LT$F$C$P$C$M$GT$$u20$as$u20$dioxus_core..any_props..AnyProps$GT$6render17h543a97c06bfefa3bE",
    "l___unnamed_4_harness-df4868ea1b5cadad.e382ndox9j839chz9esswif6u.rcgu.o",
    "__ZN100_$LT$dioxus_core..any_props..VProps$LT$F$C$P$C$M$GT$$u20$as$u20$dioxus_core..any_props..AnyProps$GT$9duplicate17h675ac73f4925ce25E",
    "l___unnamed_4_harness-df4868ea1b5cadad.c6wmz0dxwkc7r3o02wr81u9oy.rcgu.o",
    "__ZN11dioxus_core5nodes10VComponent3new17h993f8b3d9eb93954E",
    "__ZN11dioxus_core10properties10Properties15into_vcomponent17h965196ec13444056E",
    "__ZN7harness5Child17h2b32aeaba0b4c00dE",
    "__ZN4core3ops8function2Fn4call17hf86b26e1f09dbfc5E",
    "__ZN73_$LT$F$u20$as$u20$dioxus_core..properties..ComponentFunction$LT$P$GT$$GT$7rebuild17hdcc2e237eec08339E",
    "__ZN100_$LT$dioxus_core..any_props..VProps$LT$F$C$P$C$M$GT$$u20$as$u20$dioxus_core..any_props..AnyProps$GT$6render28_$u7b$$u7b$closure$u7d$$u7d$17hfbf53ec21013c460E",
    "__ZN4core3ops8function6FnOnce9call_once17hb1250f82ab822998E",
    "__ZN115_$LT$core..panic..unwind_safe..AssertUnwindSafe$LT$F$GT$$u20$as$u20$core..ops..function..FnOnce$LT$$LP$$RP$$GT$$GT$9call_once17h156df01ab880499cE",
    "__ZN3std9panicking3try7do_call17h12b00f5c1afca0e5E",
    "__ZN3std5panic12catch_unwind17h9623dc210b33032cE",
    "__ZN100_$LT$dioxus_core..any_props..VProps$LT$F$C$P$C$M$GT$$u20$as$u20$dioxus_core..any_props..AnyProps$GT$6render17h724478bd10ae45abE",
    "l___unnamed_8_harness-df4868ea1b5cadad.e382ndox9j839chz9esswif6u.rcgu.o",
    "__ZN100_$LT$dioxus_core..any_props..VProps$LT$F$C$P$C$M$GT$$u20$as$u20$dioxus_core..any_props..AnyProps$GT$9duplicate17hbcc315160800576aE",
    "l___unnamed_2_harness-df4868ea1b5cadad.c6wmz0dxwkc7r3o02wr81u9oy.rcgu.o",
    "__ZN11dioxus_core5nodes10VComponent3new17h64d3a0812e77f0edE",
    "__ZN11dioxus_core10properties10Properties15into_vcomponent17h7753673354bc1edfE",
    "__ZN7harness13zoom_controls17h3a73844835917e06E",
    "__ZN4core3ops8function2Fn4call17heb220dff9cb64346E",
    "__ZN119_$LT$F$u20$as$u20$dioxus_core..properties..ComponentFunction$LT$$LP$$RP$$C$dioxus_core..properties..EmptyMarker$GT$$GT$7rebuild17h1485b718be4dcc97E",
    "__ZN100_$LT$dioxus_core..any_props..VProps$LT$F$C$P$C$M$GT$$u20$as$u20$dioxus_core..any_props..AnyProps$GT$6render28_$u7b$$u7b$closure$u7d$$u7d$17h5f5c31c2c4fcd3edE",
    "__ZN4core3ops8function6FnOnce9call_once17haf610c889d773240E",
    "__ZN115_$LT$core..panic..unwind_safe..AssertUnwindSafe$LT$F$GT$$u20$as$u20$core..ops..function..FnOnce$LT$$LP$$RP$$GT$$GT$9call_once17he0621d6d235d0c08E",
    "__ZN3std9panicking3try7do_call17h8e7a94c382a5e60cE",
    "__ZN3std5panic12catch_unwind17h1f6291afe955bbfcE",
    "__ZN100_$LT$dioxus_core..any_props..VProps$LT$F$C$P$C$M$GT$$u20$as$u20$dioxus_core..any_props..AnyProps$GT$6render17h45480eba660d5148E",
    "l___unnamed_7_harness-df4868ea1b5cadad.c6wmz0dxwkc7r3o02wr81u9oy.rcgu.o",
    "__ZN11dioxus_core5nodes10VComponent3new17hcaaa6729c16dc137E",
    "__ZN11dioxus_core10properties10Properties15into_vcomponent17h79bafc80aea2aab7E",
    "___hotreload_start_app",
    "__ZN7harness3app17h400735d18e59eec4E",
    "__ZN7harness4main17h4654d77b3f37379bE",
    "_main",
]
ltmp3_harness-df4868ea1b5cadad.82ypsbytozw3vin3um71rau5z.rcgu.o
[]
__ZN14dioxus_signals10copy_value22CopyValue$LT$T$C$S$GT$15new_with_caller17hcb76596888c447d7E
[
    "__ZN14dioxus_signals10copy_value22CopyValue$LT$T$C$S$GT$15new_with_caller17hcb76596888c447d7E",
    "__ZN14dioxus_signals10copy_value22CopyValue$LT$T$C$S$GT$14new_maybe_sync17h1b6ad78b4df515afE",
    "__ZN14dioxus_signals6signal19Signal$LT$T$C$S$GT$14new_maybe_sync17ha7528862cb9c2381E",
    "__ZN14dioxus_signals6signal15Signal$LT$T$GT$3new17h7b6013ed01240d91E",
    "__ZN14dioxus_signals6global6signal125_$LT$impl$u20$dioxus_signals..global..InitializeFromFunction$LT$T$GT$$u20$for$u20$dioxus_signals..signal..Signal$LT$T$GT$$GT$24initialize_from_function17h7a63303ed51e7775E",
    "__ZN14dioxus_signals6global19Global$LT$T$C$R$GT$7resolve28_$u7b$$u7b$closure$u7d$$u7d$17h36e2699e94ee70c1E",
    "__ZN11dioxus_core7runtime7Runtime8on_scope17hdb6d3a3476122c40E",
    "__ZN11dioxus_core13scope_context46_$LT$impl$u20$dioxus_core..scopes..ScopeId$GT$10in_runtime17h8839846f97dbe1ddE",
    "__ZN14dioxus_signals6global19Global$LT$T$C$R$GT$7resolve17hfca595143252f355E",
    "__ZN94_$LT$dioxus_signals..global..Global$LT$T$C$R$GT$$u20$as$u20$dioxus_signals..read..Readable$GT$18try_read_unchecked17hdf66837701d74a96E",
    "__ZN14dioxus_signals4read8Readable8try_read17h4c98c1be567ce532E",
    "__ZN14dioxus_signals4read8Readable4read17he797328ed7d7b867E",
    "__ZN14dioxus_signals4read8Readable4with17h40ffefba83cf26acE",
    "__ZN14dioxus_signals6global6signal130_$LT$impl$u20$core..fmt..Display$u20$for$u20$dioxus_signals..global..Global$LT$dioxus_signals..signal..Signal$LT$T$GT$$C$T$GT$$GT$3fmt17h9bae2be454d81459E",
    "__ZN14dioxus_signals6global6signal130_$LT$impl$u20$core..fmt..Display$u20$for$u20$dioxus_signals..global..Global$LT$dioxus_signals..signal..Signal$LT$T$GT$$C$T$GT$$GT$33fmt$u7b$$u7b$reify.shim$u7d$$u7d$17h6614528e6ee54eebE",
    "__ZN7harness11GlobalInner17h56fe43aa3656219bE",
    "__ZN4core3ops8function2Fn4call17h3c8f851ee4dd175bE",
    "__ZN119_$LT$F$u20$as$u20$dioxus_core..properties..ComponentFunction$LT$$LP$$RP$$C$dioxus_core..properties..EmptyMarker$GT$$GT$7rebuild17hf7f1250efa3fb04cE",
    "__ZN100_$LT$dioxus_core..any_props..VProps$LT$F$C$P$C$M$GT$$u20$as$u20$dioxus_core..any_props..AnyProps$GT$6render28_$u7b$$u7b$closure$u7d$$u7d$17h025de8e22280b207E",
    "__ZN4core3ops8function6FnOnce9call_once17h371dcf20a99f261bE",
    "__ZN115_$LT$core..panic..unwind_safe..AssertUnwindSafe$LT$F$GT$$u20$as$u20$core..ops..function..FnOnce$LT$$LP$$RP$$GT$$GT$9call_once17h25a92dc564e3d7ffE",
    "__ZN3std9panicking3try7do_call17ha023efa9fb2ba8f7E",
    "__ZN3std5panic12catch_unwind17h48b71dec49934bf1E",
    "__ZN100_$LT$dioxus_core..any_props..VProps$LT$F$C$P$C$M$GT$$u20$as$u20$dioxus_core..any_props..AnyProps$GT$6render17h543a97c06bfefa3bE",
    "l___unnamed_4_harness-df4868ea1b5cadad.e382ndox9j839chz9esswif6u.rcgu.o",
    "__ZN100_$LT$dioxus_core..any_props..VProps$LT$F$C$P$C$M$GT$$u20$as$u20$dioxus_core..any_props..AnyProps$GT$9duplicate17h675ac73f4925ce25E",
    "l___unnamed_4_harness-df4868ea1b5cadad.c6wmz0dxwkc7r3o02wr81u9oy.rcgu.o",
    "__ZN11dioxus_core5nodes10VComponent3new17h993f8b3d9eb93954E",
    "__ZN11dioxus_core10properties10Properties15into_vcomponent17h965196ec13444056E",
    "__ZN7harness5Child17h2b32aeaba0b4c00dE",
    "__ZN4core3ops8function2Fn4call17hf86b26e1f09dbfc5E",
    "__ZN73_$LT$F$u20$as$u20$dioxus_core..properties..ComponentFunction$LT$P$GT$$GT$7rebuild17hdcc2e237eec08339E",
    "__ZN100_$LT$dioxus_core..any_props..VProps$LT$F$C$P$C$M$GT$$u20$as$u20$dioxus_core..any_props..AnyProps$GT$6render28_$u7b$$u7b$closure$u7d$$u7d$17hfbf53ec21013c460E",
    "__ZN4core3ops8function6FnOnce9call_once17hb1250f82ab822998E",
    "__ZN115_$LT$core..panic..unwind_safe..AssertUnwindSafe$LT$F$GT$$u20$as$u20$core..ops..function..FnOnce$LT$$LP$$RP$$GT$$GT$9call_once17h156df01ab880499cE",
    "__ZN3std9panicking3try7do_call17h12b00f5c1afca0e5E",
    "__ZN3std5panic12catch_unwind17h9623dc210b33032cE",
    "__ZN100_$LT$dioxus_core..any_props..VProps$LT$F$C$P$C$M$GT$$u20$as$u20$dioxus_core..any_props..AnyProps$GT$6render17h724478bd10ae45abE",
    "l___unnamed_8_harness-df4868ea1b5cadad.e382ndox9j839chz9esswif6u.rcgu.o",
    "__ZN100_$LT$dioxus_core..any_props..VProps$LT$F$C$P$C$M$GT$$u20$as$u20$dioxus_core..any_props..AnyProps$GT$9duplicate17hbcc315160800576aE",
    "l___unnamed_2_harness-df4868ea1b5cadad.c6wmz0dxwkc7r3o02wr81u9oy.rcgu.o",
    "__ZN11dioxus_core5nodes10VComponent3new17h64d3a0812e77f0edE",
    "__ZN11dioxus_core10properties10Properties15into_vcomponent17h7753673354bc1edfE",
    "__ZN7harness13zoom_controls17h3a73844835917e06E",
    "__ZN4core3ops8function2Fn4call17heb220dff9cb64346E",
    "__ZN119_$LT$F$u20$as$u20$dioxus_core..properties..ComponentFunction$LT$$LP$$RP$$C$dioxus_core..properties..EmptyMarker$GT$$GT$7rebuild17h1485b718be4dcc97E",
    "__ZN100_$LT$dioxus_core..any_props..VProps$LT$F$C$P$C$M$GT$$u20$as$u20$dioxus_core..any_props..AnyProps$GT$6render28_$u7b$$u7b$closure$u7d$$u7d$17h5f5c31c2c4fcd3edE",
    "__ZN4core3ops8function6FnOnce9call_once17haf610c889d773240E",
    "__ZN115_$LT$core..panic..unwind_safe..AssertUnwindSafe$LT$F$GT$$u20$as$u20$core..ops..function..FnOnce$LT$$LP$$RP$$GT$$GT$9call_once17he0621d6d235d0c08E",
    "__ZN3std9panicking3try7do_call17h8e7a94c382a5e60cE",
    "__ZN3std5panic12catch_unwind17h1f6291afe955bbfcE",
    "__ZN100_$LT$dioxus_core..any_props..VProps$LT$F$C$P$C$M$GT$$u20$as$u20$dioxus_core..any_props..AnyProps$GT$6render17h45480eba660d5148E",
    "l___unnamed_7_harness-df4868ea1b5cadad.c6wmz0dxwkc7r3o02wr81u9oy.rcgu.o",
    "__ZN11dioxus_core5nodes10VComponent3new17hcaaa6729c16dc137E",
    "__ZN11dioxus_core10properties10Properties15into_vcomponent17h79bafc80aea2aab7E",
    "___hotreload_start_app",
    "__ZN7harness3app17h400735d18e59eec4E",
    "__ZN7harness4main17h4654d77b3f37379bE",
    "_main",
]
__ZN4core6result19Result$LT$T$C$E$GT$3map17h62c91f2820d538e7E
[
    "__ZN4core6result19Result$LT$T$C$E$GT$3map17h62c91f2820d538e7E",
    "__ZN14dioxus_signals4read8Readable8try_read17h4c98c1be567ce532E",
    "__ZN14dioxus_signals4read8Readable4read17he797328ed7d7b867E",
    "__ZN14dioxus_signals4read8Readable4with17h40ffefba83cf26acE",
    "__ZN14dioxus_signals6global6signal130_$LT$impl$u20$core..fmt..Display$u20$for$u20$dioxus_signals..global..Global$LT$dioxus_signals..signal..Signal$LT$T$GT$$C$T$GT$$GT$3fmt17h9bae2be454d81459E",
    "__ZN14dioxus_signals6global6signal130_$LT$impl$u20$core..fmt..Display$u20$for$u20$dioxus_signals..global..Global$LT$dioxus_signals..signal..Signal$LT$T$GT$$C$T$GT$$GT$33fmt$u7b$$u7b$reify.shim$u7d$$u7d$17h6614528e6ee54eebE",
    "__ZN7harness11GlobalInner17h56fe43aa3656219bE",
    "__ZN4core3ops8function2Fn4call17h3c8f851ee4dd175bE",
    "__ZN119_$LT$F$u20$as$u20$dioxus_core..properties..ComponentFunction$LT$$LP$$RP$$C$dioxus_core..properties..EmptyMarker$GT$$GT$7rebuild17hf7f1250efa3fb04cE",
    "__ZN100_$LT$dioxus_core..any_props..VProps$LT$F$C$P$C$M$GT$$u20$as$u20$dioxus_core..any_props..AnyProps$GT$6render28_$u7b$$u7b$closure$u7d$$u7d$17h025de8e22280b207E",
    "__ZN4core3ops8function6FnOnce9call_once17h371dcf20a99f261bE",
    "__ZN115_$LT$core..panic..unwind_safe..AssertUnwindSafe$LT$F$GT$$u20$as$u20$core..ops..function..FnOnce$LT$$LP$$RP$$GT$$GT$9call_once17h25a92dc564e3d7ffE",
    "__ZN3std9panicking3try7do_call17ha023efa9fb2ba8f7E",
    "__ZN3std5panic12catch_unwind17h48b71dec49934bf1E",
    "__ZN100_$LT$dioxus_core..any_props..VProps$LT$F$C$P$C$M$GT$$u20$as$u20$dioxus_core..any_props..AnyProps$GT$6render17h543a97c06bfefa3bE",
    "l___unnamed_4_harness-df4868ea1b5cadad.e382ndox9j839chz9esswif6u.rcgu.o",
    "__ZN100_$LT$dioxus_core..any_props..VProps$LT$F$C$P$C$M$GT$$u20$as$u20$dioxus_core..any_props..AnyProps$GT$9duplicate17h675ac73f4925ce25E",
    "l___unnamed_4_harness-df4868ea1b5cadad.c6wmz0dxwkc7r3o02wr81u9oy.rcgu.o",
    "__ZN11dioxus_core5nodes10VComponent3new17h993f8b3d9eb93954E",
    "__ZN11dioxus_core10properties10Properties15into_vcomponent17h965196ec13444056E",
    "__ZN7harness5Child17h2b32aeaba0b4c00dE",
    "__ZN4core3ops8function2Fn4call17hf86b26e1f09dbfc5E",
    "__ZN73_$LT$F$u20$as$u20$dioxus_core..properties..ComponentFunction$LT$P$GT$$GT$7rebuild17hdcc2e237eec08339E",
    "__ZN100_$LT$dioxus_core..any_props..VProps$LT$F$C$P$C$M$GT$$u20$as$u20$dioxus_core..any_props..AnyProps$GT$6render28_$u7b$$u7b$closure$u7d$$u7d$17hfbf53ec21013c460E",
    "__ZN4core3ops8function6FnOnce9call_once17hb1250f82ab822998E",
    "__ZN115_$LT$core..panic..unwind_safe..AssertUnwindSafe$LT$F$GT$$u20$as$u20$core..ops..function..FnOnce$LT$$LP$$RP$$GT$$GT$9call_once17h156df01ab880499cE",
    "__ZN3std9panicking3try7do_call17h12b00f5c1afca0e5E",
    "__ZN3std5panic12catch_unwind17h9623dc210b33032cE",
    "__ZN100_$LT$dioxus_core..any_props..VProps$LT$F$C$P$C$M$GT$$u20$as$u20$dioxus_core..any_props..AnyProps$GT$6render17h724478bd10ae45abE",
    "l___unnamed_8_harness-df4868ea1b5cadad.e382ndox9j839chz9esswif6u.rcgu.o",
    "__ZN100_$LT$dioxus_core..any_props..VProps$LT$F$C$P$C$M$GT$$u20$as$u20$dioxus_core..any_props..AnyProps$GT$9duplicate17hbcc315160800576aE",
    "l___unnamed_2_harness-df4868ea1b5cadad.c6wmz0dxwkc7r3o02wr81u9oy.rcgu.o",
    "__ZN11dioxus_core5nodes10VComponent3new17h64d3a0812e77f0edE",
    "__ZN11dioxus_core10properties10Properties15into_vcomponent17h7753673354bc1edfE",
    "__ZN7harness13zoom_controls17h3a73844835917e06E",
    "__ZN4core3ops8function2Fn4call17heb220dff9cb64346E",
    "__ZN119_$LT$F$u20$as$u20$dioxus_core..properties..ComponentFunction$LT$$LP$$RP$$C$dioxus_core..properties..EmptyMarker$GT$$GT$7rebuild17h1485b718be4dcc97E",
    "__ZN100_$LT$dioxus_core..any_props..VProps$LT$F$C$P$C$M$GT$$u20$as$u20$dioxus_core..any_props..AnyProps$GT$6render28_$u7b$$u7b$closure$u7d$$u7d$17h5f5c31c2c4fcd3edE",
    "__ZN4core3ops8function6FnOnce9call_once17haf610c889d773240E",
    "__ZN115_$LT$core..panic..unwind_safe..AssertUnwindSafe$LT$F$GT$$u20$as$u20$core..ops..function..FnOnce$LT$$LP$$RP$$GT$$GT$9call_once17he0621d6d235d0c08E",
    "__ZN3std9panicking3try7do_call17h8e7a94c382a5e60cE",
    "__ZN3std5panic12catch_unwind17h1f6291afe955bbfcE",
    "__ZN100_$LT$dioxus_core..any_props..VProps$LT$F$C$P$C$M$GT$$u20$as$u20$dioxus_core..any_props..AnyProps$GT$6render17h45480eba660d5148E",
    "l___unnamed_7_harness-df4868ea1b5cadad.c6wmz0dxwkc7r3o02wr81u9oy.rcgu.o",
    "__ZN11dioxus_core5nodes10VComponent3new17hcaaa6729c16dc137E",
    "__ZN11dioxus_core10properties10Properties15into_vcomponent17h79bafc80aea2aab7E",
    "___hotreload_start_app",
    "__ZN7harness3app17h400735d18e59eec4E",
    "__ZN7harness4main17h4654d77b3f37379bE",
    "_main",
]
ltmp4_harness-df4868ea1b5cadad.cvbn14ab4uo17p1ckzp14p9v7.rcgu.o
[]
__ZN4core4cell12Ref$LT$T$GT$3map17he6a38657c3b5c027E
[
    "__ZN4core4cell12Ref$LT$T$GT$3map17he6a38657c3b5c027E",
    "__ZN88_$LT$generational_box..unsync..UnsyncStorage$u20$as$u20$generational_box..AnyStorage$GT$3map28_$u7b$$u7b$closure$u7d$$u7d$17h97a7af7a69799324E",
    "__ZN16generational_box10references24GenerationalRef$LT$R$GT$3map17h7773a2cb4911fe66E",
    "__ZN88_$LT$generational_box..unsync..UnsyncStorage$u20$as$u20$generational_box..AnyStorage$GT$3map17he324b18dbe7b6b0fE",
    "__ZN94_$LT$dioxus_signals..signal..Signal$LT$T$C$S$GT$$u20$as$u20$dioxus_signals..read..Readable$GT$18try_read_unchecked17h9b44c3b9dae81db5E",
    "__ZN94_$LT$dioxus_signals..global..Global$LT$T$C$R$GT$$u20$as$u20$dioxus_signals..read..Readable$GT$18try_read_unchecked17hdf66837701d74a96E",
    "__ZN14dioxus_signals4read8Readable8try_read17h4c98c1be567ce532E",
    "__ZN14dioxus_signals4read8Readable4read17he797328ed7d7b867E",
    "__ZN14dioxus_signals4read8Readable4with17h40ffefba83cf26acE",
    "__ZN14dioxus_signals6global6signal130_$LT$impl$u20$core..fmt..Display$u20$for$u20$dioxus_signals..global..Global$LT$dioxus_signals..signal..Signal$LT$T$GT$$C$T$GT$$GT$3fmt17h9bae2be454d81459E",
    "__ZN14dioxus_signals6global6signal130_$LT$impl$u20$core..fmt..Display$u20$for$u20$dioxus_signals..global..Global$LT$dioxus_signals..signal..Signal$LT$T$GT$$C$T$GT$$GT$33fmt$u7b$$u7b$reify.shim$u7d$$u7d$17h6614528e6ee54eebE",
    "__ZN7harness11GlobalInner17h56fe43aa3656219bE",
    "__ZN4core3ops8function2Fn4call17h3c8f851ee4dd175bE",
    "__ZN119_$LT$F$u20$as$u20$dioxus_core..properties..ComponentFunction$LT$$LP$$RP$$C$dioxus_core..properties..EmptyMarker$GT$$GT$7rebuild17hf7f1250efa3fb04cE",
    "__ZN100_$LT$dioxus_core..any_props..VProps$LT$F$C$P$C$M$GT$$u20$as$u20$dioxus_core..any_props..AnyProps$GT$6render28_$u7b$$u7b$closure$u7d$$u7d$17h025de8e22280b207E",
    "__ZN4core3ops8function6FnOnce9call_once17h371dcf20a99f261bE",
    "__ZN115_$LT$core..panic..unwind_safe..AssertUnwindSafe$LT$F$GT$$u20$as$u20$core..ops..function..FnOnce$LT$$LP$$RP$$GT$$GT$9call_once17h25a92dc564e3d7ffE",
    "__ZN3std9panicking3try7do_call17ha023efa9fb2ba8f7E",
    "__ZN3std5panic12catch_unwind17h48b71dec49934bf1E",
    "__ZN100_$LT$dioxus_core..any_props..VProps$LT$F$C$P$C$M$GT$$u20$as$u20$dioxus_core..any_props..AnyProps$GT$6render17h543a97c06bfefa3bE",
    "l___unnamed_4_harness-df4868ea1b5cadad.e382ndox9j839chz9esswif6u.rcgu.o",
    "__ZN100_$LT$dioxus_core..any_props..VProps$LT$F$C$P$C$M$GT$$u20$as$u20$dioxus_core..any_props..AnyProps$GT$9duplicate17h675ac73f4925ce25E",
    "l___unnamed_4_harness-df4868ea1b5cadad.c6wmz0dxwkc7r3o02wr81u9oy.rcgu.o",
    "__ZN11dioxus_core5nodes10VComponent3new17h993f8b3d9eb93954E",
    "__ZN11dioxus_core10properties10Properties15into_vcomponent17h965196ec13444056E",
    "__ZN7harness5Child17h2b32aeaba0b4c00dE",
    "__ZN4core3ops8function2Fn4call17hf86b26e1f09dbfc5E",
    "__ZN73_$LT$F$u20$as$u20$dioxus_core..properties..ComponentFunction$LT$P$GT$$GT$7rebuild17hdcc2e237eec08339E",
    "__ZN100_$LT$dioxus_core..any_props..VProps$LT$F$C$P$C$M$GT$$u20$as$u20$dioxus_core..any_props..AnyProps$GT$6render28_$u7b$$u7b$closure$u7d$$u7d$17hfbf53ec21013c460E",
    "__ZN4core3ops8function6FnOnce9call_once17hb1250f82ab822998E",
    "__ZN115_$LT$core..panic..unwind_safe..AssertUnwindSafe$LT$F$GT$$u20$as$u20$core..ops..function..FnOnce$LT$$LP$$RP$$GT$$GT$9call_once17h156df01ab880499cE",
    "__ZN3std9panicking3try7do_call17h12b00f5c1afca0e5E",
    "__ZN3std5panic12catch_unwind17h9623dc210b33032cE",
    "__ZN100_$LT$dioxus_core..any_props..VProps$LT$F$C$P$C$M$GT$$u20$as$u20$dioxus_core..any_props..AnyProps$GT$6render17h724478bd10ae45abE",
    "l___unnamed_8_harness-df4868ea1b5cadad.e382ndox9j839chz9esswif6u.rcgu.o",
    "__ZN100_$LT$dioxus_core..any_props..VProps$LT$F$C$P$C$M$GT$$u20$as$u20$dioxus_core..any_props..AnyProps$GT$9duplicate17hbcc315160800576aE",
    "l___unnamed_2_harness-df4868ea1b5cadad.c6wmz0dxwkc7r3o02wr81u9oy.rcgu.o",
    "__ZN11dioxus_core5nodes10VComponent3new17h64d3a0812e77f0edE",
    "__ZN11dioxus_core10properties10Properties15into_vcomponent17h7753673354bc1edfE",
    "__ZN7harness13zoom_controls17h3a73844835917e06E",
    "__ZN4core3ops8function2Fn4call17heb220dff9cb64346E",
    "__ZN119_$LT$F$u20$as$u20$dioxus_core..properties..ComponentFunction$LT$$LP$$RP$$C$dioxus_core..properties..EmptyMarker$GT$$GT$7rebuild17h1485b718be4dcc97E",
    "__ZN100_$LT$dioxus_core..any_props..VProps$LT$F$C$P$C$M$GT$$u20$as$u20$dioxus_core..any_props..AnyProps$GT$6render28_$u7b$$u7b$closure$u7d$$u7d$17h5f5c31c2c4fcd3edE",
    "__ZN4core3ops8function6FnOnce9call_once17haf610c889d773240E",
    "__ZN115_$LT$core..panic..unwind_safe..AssertUnwindSafe$LT$F$GT$$u20$as$u20$core..ops..function..FnOnce$LT$$LP$$RP$$GT$$GT$9call_once17he0621d6d235d0c08E",
    "__ZN3std9panicking3try7do_call17h8e7a94c382a5e60cE",
    "__ZN3std5panic12catch_unwind17h1f6291afe955bbfcE",
    "__ZN100_$LT$dioxus_core..any_props..VProps$LT$F$C$P$C$M$GT$$u20$as$u20$dioxus_core..any_props..AnyProps$GT$6render17h45480eba660d5148E",
    "l___unnamed_7_harness-df4868ea1b5cadad.c6wmz0dxwkc7r3o02wr81u9oy.rcgu.o",
    "__ZN11dioxus_core5nodes10VComponent3new17hcaaa6729c16dc137E",
    "__ZN11dioxus_core10properties10Properties15into_vcomponent17h79bafc80aea2aab7E",
    "___hotreload_start_app",
    "__ZN7harness3app17h400735d18e59eec4E",
    "__ZN7harness4main17h4654d77b3f37379bE",
    "_main",
]
l___unnamed_14_harness-df4868ea1b5cadad.57p783wz0mdr6vmpci89msrb7.rcgu.o
[
    "l___unnamed_14_harness-df4868ea1b5cadad.57p783wz0mdr6vmpci89msrb7.rcgu.o",
    "__ZN14dioxus_signals8warnings20__copy_value_hoisted23__Callable$LT$T$C$S$GT$16__run_if_enabled28_$u7b$$u7b$closure$u7d$$u7d$18copy_value_hoisted17hdc3f663266d65af9E",
    "__ZN14dioxus_signals8warnings20__copy_value_hoisted23__Callable$LT$T$C$S$GT$16__run_if_enabled28_$u7b$$u7b$closure$u7d$$u7d$17h94d7e34ad74fc998E",
    "__ZN8warnings8warnings9WarningId10if_enabled17h5f0d62ccc9013d6fE",
    "__ZN14dioxus_signals8warnings20__copy_value_hoisted23__Callable$LT$T$C$S$GT$16__run_if_enabled17h1ce8217170b11e33E",
    "l___unnamed_2_harness-df4868ea1b5cadad.57p783wz0mdr6vmpci89msrb7.rcgu.o",
    "__ZN115_$LT$dioxus_signals..warnings..__copy_value_hoisted..__Callable$LT$T$C$S$GT$$u20$as$u20$core..ops..deref..Deref$GT$5deref17h6629e18bf8ecf39dE",
    "__ZN102_$LT$dioxus_signals..copy_value..CopyValue$LT$T$C$S$GT$$u20$as$u20$dioxus_signals..write..Writable$GT$19try_write_unchecked17h5155f1cf08aee7f1E",
    "__ZN95_$LT$dioxus_signals..signal..Signal$LT$T$C$S$GT$$u20$as$u20$dioxus_signals..write..Writable$GT$19try_write_unchecked17h8e8e363f48a63db6E",
    "__ZN14dioxus_signals5write8Writable9try_write17h9fa331eedb586fe4E",
    "__ZN14dioxus_signals5write8Writable5write17h9a26affdc2ccd616E",
    "__ZN7harness12AddingLogger28_$u7b$$u7b$closure$u7d$$u7d$17h7550ef02f1861627E",
    "__ZN7harness12AddingLogger28_$u7b$$u7b$closure$u7d$$u7d$17hd8e6be41b9a84583E",
    "__ZN11dioxus_core6events26Callback$LT$Args$C$Ret$GT$3new28_$u7b$$u7b$closure$u7d$$u7d$17hf771f51420dabaaeE",
    "l___unnamed_11_harness-df4868ea1b5cadad.egexdem49eejgynie32zwugcu.rcgu.o",
    "__ZN11dioxus_core6events26Callback$LT$Args$C$Ret$GT$3new17hf49a7ba233cfcb4bE",
    "__ZN169_$LT$dioxus_core..events..Callback$LT$Args$C$Ret$GT$$u20$as$u20$dioxus_core..properties..SuperFrom$LT$Function$C$dioxus_core..events..MarkerWrapper$LT$Marker$GT$$GT$$GT$10super_from17ha0eb73359dcf2b5fE",
    "__ZN69_$LT$T$u20$as$u20$dioxus_core..properties..SuperInto$LT$O$C$M$GT$$GT$10super_into17he725d2a59af62b36E",
    "__ZN11dioxus_html6events5mouse7onclick28_$u7b$$u7b$closure$u7d$$u7d$17h088593d399a17bb2E",
    "__ZN11dioxus_core16generational_box10with_owner17ha770f68327e79831E",
    "__ZN11dioxus_html6events5mouse7onclick17h44f66615c6057071E",
    "__ZN11dioxus_html6events5mouse7onclick26call_with_explicit_closure17h85538a841367551bE",
    "__ZN7harness12AddingLogger17h283889c677656013E",
    "__ZN4core3ops8function2Fn4call17hc1d984302f90d6b5E",
    "__ZN119_$LT$F$u20$as$u20$dioxus_core..properties..ComponentFunction$LT$$LP$$RP$$C$dioxus_core..properties..EmptyMarker$GT$$GT$7rebuild17ha7658b769122d22aE",
    "__ZN100_$LT$dioxus_core..any_props..VProps$LT$F$C$P$C$M$GT$$u20$as$u20$dioxus_core..any_props..AnyProps$GT$6render28_$u7b$$u7b$closure$u7d$$u7d$17h90af567fab99d4f7E",
    "__ZN4core3ops8function6FnOnce9call_once17he98e8829e2ade214E",
    "__ZN115_$LT$core..panic..unwind_safe..AssertUnwindSafe$LT$F$GT$$u20$as$u20$core..ops..function..FnOnce$LT$$LP$$RP$$GT$$GT$9call_once17h8b675a067d6b378fE",
    "__ZN3std9panicking3try7do_call17h042d1df4c42c9398E",
    "__ZN3std5panic12catch_unwind17hebad81528f98f478E",
    "__ZN100_$LT$dioxus_core..any_props..VProps$LT$F$C$P$C$M$GT$$u20$as$u20$dioxus_core..any_props..AnyProps$GT$6render17h6d3194045a8447dcE",
    "l___unnamed_6_harness-df4868ea1b5cadad.c6wmz0dxwkc7r3o02wr81u9oy.rcgu.o",
    "__ZN11dioxus_core5nodes10VComponent3new17hc4f98269bb25b058E",
    "__ZN11dioxus_core10properties10Properties15into_vcomponent17had2a4ffa139fd691E",
    "__ZN7harness5Child17h2b32aeaba0b4c00dE",
    "__ZN4core3ops8function2Fn4call17hf86b26e1f09dbfc5E",
    "__ZN73_$LT$F$u20$as$u20$dioxus_core..properties..ComponentFunction$LT$P$GT$$GT$7rebuild17hdcc2e237eec08339E",
    "__ZN100_$LT$dioxus_core..any_props..VProps$LT$F$C$P$C$M$GT$$u20$as$u20$dioxus_core..any_props..AnyProps$GT$6render28_$u7b$$u7b$closure$u7d$$u7d$17hfbf53ec21013c460E",
    "__ZN4core3ops8function6FnOnce9call_once17hb1250f82ab822998E",
    "__ZN115_$LT$core..panic..unwind_safe..AssertUnwindSafe$LT$F$GT$$u20$as$u20$core..ops..function..FnOnce$LT$$LP$$RP$$GT$$GT$9call_once17h156df01ab880499cE",
    "__ZN3std9panicking3try7do_call17h12b00f5c1afca0e5E",
    "__ZN3std5panic12catch_unwind17h9623dc210b33032cE",
    "__ZN100_$LT$dioxus_core..any_props..VProps$LT$F$C$P$C$M$GT$$u20$as$u20$dioxus_core..any_props..AnyProps$GT$6render17h724478bd10ae45abE",
    "l___unnamed_8_harness-df4868ea1b5cadad.e382ndox9j839chz9esswif6u.rcgu.o",
    "__ZN100_$LT$dioxus_core..any_props..VProps$LT$F$C$P$C$M$GT$$u20$as$u20$dioxus_core..any_props..AnyProps$GT$9duplicate17hbcc315160800576aE",
    "l___unnamed_2_harness-df4868ea1b5cadad.c6wmz0dxwkc7r3o02wr81u9oy.rcgu.o",
    "__ZN11dioxus_core5nodes10VComponent3new17h64d3a0812e77f0edE",
    "__ZN11dioxus_core10properties10Properties15into_vcomponent17h7753673354bc1edfE",
    "__ZN7harness13zoom_controls17h3a73844835917e06E",
    "__ZN4core3ops8function2Fn4call17heb220dff9cb64346E",
    "__ZN119_$LT$F$u20$as$u20$dioxus_core..properties..ComponentFunction$LT$$LP$$RP$$C$dioxus_core..properties..EmptyMarker$GT$$GT$7rebuild17h1485b718be4dcc97E",
    "__ZN100_$LT$dioxus_core..any_props..VProps$LT$F$C$P$C$M$GT$$u20$as$u20$dioxus_core..any_props..AnyProps$GT$6render28_$u7b$$u7b$closure$u7d$$u7d$17h5f5c31c2c4fcd3edE",
    "__ZN4core3ops8function6FnOnce9call_once17haf610c889d773240E",
    "__ZN115_$LT$core..panic..unwind_safe..AssertUnwindSafe$LT$F$GT$$u20$as$u20$core..ops..function..FnOnce$LT$$LP$$RP$$GT$$GT$9call_once17he0621d6d235d0c08E",
    "__ZN3std9panicking3try7do_call17h8e7a94c382a5e60cE",
    "__ZN3std5panic12catch_unwind17h1f6291afe955bbfcE",
    "__ZN100_$LT$dioxus_core..any_props..VProps$LT$F$C$P$C$M$GT$$u20$as$u20$dioxus_core..any_props..AnyProps$GT$6render17h45480eba660d5148E",
    "l___unnamed_7_harness-df4868ea1b5cadad.c6wmz0dxwkc7r3o02wr81u9oy.rcgu.o",
    "__ZN11dioxus_core5nodes10VComponent3new17hcaaa6729c16dc137E",
    "__ZN11dioxus_core10properties10Properties15into_vcomponent17h79bafc80aea2aab7E",
    "___hotreload_start_app",
    "__ZN7harness3app17h400735d18e59eec4E",
    "__ZN7harness4main17h4654d77b3f37379bE",
    "_main",
]
GCC_except_table56
[]
ltmp5_harness-df4868ea1b5cadad.50x6dagq3c8sxacan9eg0wdbq.rcgu.o
[]
l___unnamed_18_harness-df4868ea1b5cadad.a64hlspyskaofkyts3cee93he.rcgu.o
[
    "l___unnamed_18_harness-df4868ea1b5cadad.a64hlspyskaofkyts3cee93he.rcgu.o",
    "l___unnamed_10_harness-df4868ea1b5cadad.a64hlspyskaofkyts3cee93he.rcgu.o",
    "__ZN14dioxus_signals8warnings41__signal_read_and_write_in_reactive_scope23__Callable$LT$T$C$S$GT$16__run_if_enabled28_$u7b$$u7b$closure$u7d$$u7d$39signal_read_and_write_in_reactive_scope17h221e571ef7520107E",
    "__ZN14dioxus_signals8warnings41__signal_read_and_write_in_reactive_scope23__Callable$LT$T$C$S$GT$16__run_if_enabled28_$u7b$$u7b$closure$u7d$$u7d$17h9b61e901979ebe37E",
    "__ZN8warnings8warnings9WarningId10if_enabled17h1e1ada791f843c4bE",
    "__ZN14dioxus_signals8warnings41__signal_read_and_write_in_reactive_scope23__Callable$LT$T$C$S$GT$16__run_if_enabled17hbe10b8bfcdd507adE",
    "l___unnamed_1_harness-df4868ea1b5cadad.a64hlspyskaofkyts3cee93he.rcgu.o",
    "__ZN136_$LT$dioxus_signals..warnings..__signal_read_and_write_in_reactive_scope..__Callable$LT$T$C$S$GT$$u20$as$u20$core..ops..deref..Deref$GT$5deref17h12fc0a983cda1955E",
    "__ZN99_$LT$dioxus_signals..signal..SignalSubscriberDrop$LT$T$C$S$GT$$u20$as$u20$core..ops..drop..Drop$GT$4drop17hcae7f731b4ba3f74E",
    "__ZN4core3ptr159drop_in_place$LT$dioxus_signals..signal..SignalSubscriberDrop$LT$alloc..vec..Vec$LT$alloc..string..String$GT$$C$generational_box..unsync..UnsyncStorage$GT$$GT$17hd180e51942450b51E",
    "l___unnamed_20_harness-df4868ea1b5cadad.5qrn0xfhbv2rouh4f52itu55i.rcgu.o",
    "__ZN95_$LT$dioxus_signals..signal..Signal$LT$T$C$S$GT$$u20$as$u20$dioxus_signals..write..Writable$GT$19try_write_unchecked28_$u7b$$u7b$closure$u7d$$u7d$17hc7cbd98efeef2228E",
    "__ZN4core6result19Result$LT$T$C$E$GT$3map17h209be385f2abb021E",
    "__ZN95_$LT$dioxus_signals..signal..Signal$LT$T$C$S$GT$$u20$as$u20$dioxus_signals..write..Writable$GT$19try_write_unchecked17h8e8e363f48a63db6E",
    "__ZN14dioxus_signals5write8Writable9try_write17h9fa331eedb586fe4E",
    "__ZN14dioxus_signals5write8Writable5write17h9a26affdc2ccd616E",
    "__ZN7harness12AddingLogger28_$u7b$$u7b$closure$u7d$$u7d$17h7550ef02f1861627E",
    "__ZN7harness12AddingLogger28_$u7b$$u7b$closure$u7d$$u7d$17hd8e6be41b9a84583E",
    "__ZN11dioxus_core6events26Callback$LT$Args$C$Ret$GT$3new28_$u7b$$u7b$closure$u7d$$u7d$17hf771f51420dabaaeE",
    "l___unnamed_11_harness-df4868ea1b5cadad.egexdem49eejgynie32zwugcu.rcgu.o",
    "__ZN11dioxus_core6events26Callback$LT$Args$C$Ret$GT$3new17hf49a7ba233cfcb4bE",
    "__ZN169_$LT$dioxus_core..events..Callback$LT$Args$C$Ret$GT$$u20$as$u20$dioxus_core..properties..SuperFrom$LT$Function$C$dioxus_core..events..MarkerWrapper$LT$Marker$GT$$GT$$GT$10super_from17ha0eb73359dcf2b5fE",
    "__ZN69_$LT$T$u20$as$u20$dioxus_core..properties..SuperInto$LT$O$C$M$GT$$GT$10super_into17he725d2a59af62b36E",
    "__ZN11dioxus_html6events5mouse7onclick28_$u7b$$u7b$closure$u7d$$u7d$17h088593d399a17bb2E",
    "__ZN11dioxus_core16generational_box10with_owner17ha770f68327e79831E",
    "__ZN11dioxus_html6events5mouse7onclick17h44f66615c6057071E",
    "__ZN11dioxus_html6events5mouse7onclick26call_with_explicit_closure17h85538a841367551bE",
    "__ZN7harness12AddingLogger17h283889c677656013E",
    "__ZN4core3ops8function2Fn4call17hc1d984302f90d6b5E",
    "__ZN119_$LT$F$u20$as$u20$dioxus_core..properties..ComponentFunction$LT$$LP$$RP$$C$dioxus_core..properties..EmptyMarker$GT$$GT$7rebuild17ha7658b769122d22aE",
    "__ZN100_$LT$dioxus_core..any_props..VProps$LT$F$C$P$C$M$GT$$u20$as$u20$dioxus_core..any_props..AnyProps$GT$6render28_$u7b$$u7b$closure$u7d$$u7d$17h90af567fab99d4f7E",
    "__ZN4core3ops8function6FnOnce9call_once17he98e8829e2ade214E",
    "__ZN115_$LT$core..panic..unwind_safe..AssertUnwindSafe$LT$F$GT$$u20$as$u20$core..ops..function..FnOnce$LT$$LP$$RP$$GT$$GT$9call_once17h8b675a067d6b378fE",
    "__ZN3std9panicking3try7do_call17h042d1df4c42c9398E",
    "__ZN3std5panic12catch_unwind17hebad81528f98f478E",
    "__ZN100_$LT$dioxus_core..any_props..VProps$LT$F$C$P$C$M$GT$$u20$as$u20$dioxus_core..any_props..AnyProps$GT$6render17h6d3194045a8447dcE",
    "l___unnamed_6_harness-df4868ea1b5cadad.c6wmz0dxwkc7r3o02wr81u9oy.rcgu.o",
    "__ZN11dioxus_core5nodes10VComponent3new17hc4f98269bb25b058E",
    "__ZN11dioxus_core10properties10Properties15into_vcomponent17had2a4ffa139fd691E",
    "__ZN7harness5Child17h2b32aeaba0b4c00dE",
    "__ZN4core3ops8function2Fn4call17hf86b26e1f09dbfc5E",
    "__ZN73_$LT$F$u20$as$u20$dioxus_core..properties..ComponentFunction$LT$P$GT$$GT$7rebuild17hdcc2e237eec08339E",
    "__ZN100_$LT$dioxus_core..any_props..VProps$LT$F$C$P$C$M$GT$$u20$as$u20$dioxus_core..any_props..AnyProps$GT$6render28_$u7b$$u7b$closure$u7d$$u7d$17hfbf53ec21013c460E",
    "__ZN4core3ops8function6FnOnce9call_once17hb1250f82ab822998E",
    "__ZN115_$LT$core..panic..unwind_safe..AssertUnwindSafe$LT$F$GT$$u20$as$u20$core..ops..function..FnOnce$LT$$LP$$RP$$GT$$GT$9call_once17h156df01ab880499cE",
    "__ZN3std9panicking3try7do_call17h12b00f5c1afca0e5E",
    "__ZN3std5panic12catch_unwind17h9623dc210b33032cE",
    "__ZN100_$LT$dioxus_core..any_props..VProps$LT$F$C$P$C$M$GT$$u20$as$u20$dioxus_core..any_props..AnyProps$GT$6render17h724478bd10ae45abE",
    "l___unnamed_8_harness-df4868ea1b5cadad.e382ndox9j839chz9esswif6u.rcgu.o",
    "__ZN100_$LT$dioxus_core..any_props..VProps$LT$F$C$P$C$M$GT$$u20$as$u20$dioxus_core..any_props..AnyProps$GT$9duplicate17hbcc315160800576aE",
    "l___unnamed_2_harness-df4868ea1b5cadad.c6wmz0dxwkc7r3o02wr81u9oy.rcgu.o",
    "__ZN11dioxus_core5nodes10VComponent3new17h64d3a0812e77f0edE",
    "__ZN11dioxus_core10properties10Properties15into_vcomponent17h7753673354bc1edfE",
    "__ZN7harness13zoom_controls17h3a73844835917e06E",
    "__ZN4core3ops8function2Fn4call17heb220dff9cb64346E",
    "__ZN119_$LT$F$u20$as$u20$dioxus_core..properties..ComponentFunction$LT$$LP$$RP$$C$dioxus_core..properties..EmptyMarker$GT$$GT$7rebuild17h1485b718be4dcc97E",
    "__ZN100_$LT$dioxus_core..any_props..VProps$LT$F$C$P$C$M$GT$$u20$as$u20$dioxus_core..any_props..AnyProps$GT$6render28_$u7b$$u7b$closure$u7d$$u7d$17h5f5c31c2c4fcd3edE",
    "__ZN4core3ops8function6FnOnce9call_once17haf610c889d773240E",
    "__ZN115_$LT$core..panic..unwind_safe..AssertUnwindSafe$LT$F$GT$$u20$as$u20$core..ops..function..FnOnce$LT$$LP$$RP$$GT$$GT$9call_once17he0621d6d235d0c08E",
    "__ZN3std9panicking3try7do_call17h8e7a94c382a5e60cE",
    "__ZN3std5panic12catch_unwind17h1f6291afe955bbfcE",
    "__ZN100_$LT$dioxus_core..any_props..VProps$LT$F$C$P$C$M$GT$$u20$as$u20$dioxus_core..any_props..AnyProps$GT$6render17h45480eba660d5148E",
    "l___unnamed_7_harness-df4868ea1b5cadad.c6wmz0dxwkc7r3o02wr81u9oy.rcgu.o",
    "__ZN11dioxus_core5nodes10VComponent3new17hcaaa6729c16dc137E",
    "__ZN11dioxus_core10properties10Properties15into_vcomponent17h79bafc80aea2aab7E",
    "___hotreload_start_app",
    "__ZN7harness3app17h400735d18e59eec4E",
    "__ZN7harness4main17h4654d77b3f37379bE",
    "_main",
]
__ZN14dioxus_signals8warnings41__signal_read_and_write_in_reactive_scope23__Callable$LT$T$C$S$GT$16__run_if_enabled28_$u7b$$u7b$closure$u7d$$u7d$39signal_read_and_write_in_reactive_scope17h1ad309ff6660ea62E
[
    "__ZN14dioxus_signals8warnings41__signal_read_and_write_in_reactive_scope23__Callable$LT$T$C$S$GT$16__run_if_enabled28_$u7b$$u7b$closure$u7d$$u7d$39signal_read_and_write_in_reactive_scope17h1ad309ff6660ea62E",
    "__ZN14dioxus_signals8warnings41__signal_read_and_write_in_reactive_scope23__Callable$LT$T$C$S$GT$16__run_if_enabled28_$u7b$$u7b$closure$u7d$$u7d$17h1b0f83081d19009bE",
    "__ZN8warnings8warnings9WarningId10if_enabled17ha6ef6cba53b085f6E",
    "__ZN14dioxus_signals8warnings41__signal_read_and_write_in_reactive_scope23__Callable$LT$T$C$S$GT$16__run_if_enabled17he99b0af967ae97feE",
    "l___unnamed_2_harness-df4868ea1b5cadad.a64hlspyskaofkyts3cee93he.rcgu.o",
    "__ZN136_$LT$dioxus_signals..warnings..__signal_read_and_write_in_reactive_scope..__Callable$LT$T$C$S$GT$$u20$as$u20$core..ops..deref..Deref$GT$5deref17h86c7f97abc3f6c06E",
    "__ZN99_$LT$dioxus_signals..signal..SignalSubscriberDrop$LT$T$C$S$GT$$u20$as$u20$core..ops..drop..Drop$GT$4drop17h330fbe4f6664ee0bE",
    "__ZN4core3ptr118drop_in_place$LT$dioxus_signals..signal..SignalSubscriberDrop$LT$i64$C$generational_box..unsync..UnsyncStorage$GT$$GT$17h25b2886afdcde067E",
    "l___unnamed_21_harness-df4868ea1b5cadad.5qrn0xfhbv2rouh4f52itu55i.rcgu.o",
    "__ZN95_$LT$dioxus_signals..signal..Signal$LT$T$C$S$GT$$u20$as$u20$dioxus_signals..write..Writable$GT$19try_write_unchecked28_$u7b$$u7b$closure$u7d$$u7d$17he1b9191098da229cE",
    "__ZN4core6result19Result$LT$T$C$E$GT$3map17he4a924266e5e9d5aE",
    "__ZN95_$LT$dioxus_signals..signal..Signal$LT$T$C$S$GT$$u20$as$u20$dioxus_signals..write..Writable$GT$19try_write_unchecked17h4cba87c5ead1eb17E",
    "__ZN14dioxus_signals6global19Global$LT$T$C$R$GT$5write17h2228387cbea56f90E",
    "__ZN7harness11GlobalInner28_$u7b$$u7b$closure$u7d$$u7d$17hb42c5660948e5f3bE",
    "__ZN11dioxus_core6events26Callback$LT$Args$C$Ret$GT$3new28_$u7b$$u7b$closure$u7d$$u7d$17h6f96a569a9f12b13E",
    "l___unnamed_9_harness-df4868ea1b5cadad.egexdem49eejgynie32zwugcu.rcgu.o",
    "__ZN11dioxus_core6events26Callback$LT$Args$C$Ret$GT$3new17he13b8bd10ebc92d6E",
    "__ZN169_$LT$dioxus_core..events..Callback$LT$Args$C$Ret$GT$$u20$as$u20$dioxus_core..properties..SuperFrom$LT$Function$C$dioxus_core..events..MarkerWrapper$LT$Marker$GT$$GT$$GT$10super_from17h0f0cdd7a8468e271E",
    "__ZN69_$LT$T$u20$as$u20$dioxus_core..properties..SuperInto$LT$O$C$M$GT$$GT$10super_into17he799bb527ae17417E",
    "__ZN11dioxus_html6events5mouse7onclick28_$u7b$$u7b$closure$u7d$$u7d$17hcda8013b3fb0a7b1E",
    "__ZN11dioxus_core16generational_box10with_owner17hb0ca740788bcf0beE",
    "__ZN11dioxus_html6events5mouse7onclick17hcc75453cf267d2c1E",
    "__ZN11dioxus_html6events5mouse7onclick26call_with_explicit_closure17hc65524ea0f855dd4E",
    "__ZN7harness11GlobalInner17h56fe43aa3656219bE",
    "__ZN4core3ops8function2Fn4call17h3c8f851ee4dd175bE",
    "__ZN119_$LT$F$u20$as$u20$dioxus_core..properties..ComponentFunction$LT$$LP$$RP$$C$dioxus_core..properties..EmptyMarker$GT$$GT$7rebuild17hf7f1250efa3fb04cE",
    "__ZN100_$LT$dioxus_core..any_props..VProps$LT$F$C$P$C$M$GT$$u20$as$u20$dioxus_core..any_props..AnyProps$GT$6render28_$u7b$$u7b$closure$u7d$$u7d$17h025de8e22280b207E",
    "__ZN4core3ops8function6FnOnce9call_once17h371dcf20a99f261bE",
    "__ZN115_$LT$core..panic..unwind_safe..AssertUnwindSafe$LT$F$GT$$u20$as$u20$core..ops..function..FnOnce$LT$$LP$$RP$$GT$$GT$9call_once17h25a92dc564e3d7ffE",
    "__ZN3std9panicking3try7do_call17ha023efa9fb2ba8f7E",
    "__ZN3std5panic12catch_unwind17h48b71dec49934bf1E",
    "__ZN100_$LT$dioxus_core..any_props..VProps$LT$F$C$P$C$M$GT$$u20$as$u20$dioxus_core..any_props..AnyProps$GT$6render17h543a97c06bfefa3bE",
    "l___unnamed_4_harness-df4868ea1b5cadad.e382ndox9j839chz9esswif6u.rcgu.o",
    "__ZN100_$LT$dioxus_core..any_props..VProps$LT$F$C$P$C$M$GT$$u20$as$u20$dioxus_core..any_props..AnyProps$GT$9duplicate17h675ac73f4925ce25E",
    "l___unnamed_4_harness-df4868ea1b5cadad.c6wmz0dxwkc7r3o02wr81u9oy.rcgu.o",
    "__ZN11dioxus_core5nodes10VComponent3new17h993f8b3d9eb93954E",
    "__ZN11dioxus_core10properties10Properties15into_vcomponent17h965196ec13444056E",
    "__ZN7harness5Child17h2b32aeaba0b4c00dE",
    "__ZN4core3ops8function2Fn4call17hf86b26e1f09dbfc5E",
    "__ZN73_$LT$F$u20$as$u20$dioxus_core..properties..ComponentFunction$LT$P$GT$$GT$7rebuild17hdcc2e237eec08339E",
    "__ZN100_$LT$dioxus_core..any_props..VProps$LT$F$C$P$C$M$GT$$u20$as$u20$dioxus_core..any_props..AnyProps$GT$6render28_$u7b$$u7b$closure$u7d$$u7d$17hfbf53ec21013c460E",
    "__ZN4core3ops8function6FnOnce9call_once17hb1250f82ab822998E",
    "__ZN115_$LT$core..panic..unwind_safe..AssertUnwindSafe$LT$F$GT$$u20$as$u20$core..ops..function..FnOnce$LT$$LP$$RP$$GT$$GT$9call_once17h156df01ab880499cE",
    "__ZN3std9panicking3try7do_call17h12b00f5c1afca0e5E",
    "__ZN3std5panic12catch_unwind17h9623dc210b33032cE",
    "__ZN100_$LT$dioxus_core..any_props..VProps$LT$F$C$P$C$M$GT$$u20$as$u20$dioxus_core..any_props..AnyProps$GT$6render17h724478bd10ae45abE",
    "l___unnamed_8_harness-df4868ea1b5cadad.e382ndox9j839chz9esswif6u.rcgu.o",
    "__ZN100_$LT$dioxus_core..any_props..VProps$LT$F$C$P$C$M$GT$$u20$as$u20$dioxus_core..any_props..AnyProps$GT$9duplicate17hbcc315160800576aE",
    "l___unnamed_2_harness-df4868ea1b5cadad.c6wmz0dxwkc7r3o02wr81u9oy.rcgu.o",
    "__ZN11dioxus_core5nodes10VComponent3new17h64d3a0812e77f0edE",
    "__ZN11dioxus_core10properties10Properties15into_vcomponent17h7753673354bc1edfE",
    "__ZN7harness13zoom_controls17h3a73844835917e06E",
    "__ZN4core3ops8function2Fn4call17heb220dff9cb64346E",
    "__ZN119_$LT$F$u20$as$u20$dioxus_core..properties..ComponentFunction$LT$$LP$$RP$$C$dioxus_core..properties..EmptyMarker$GT$$GT$7rebuild17h1485b718be4dcc97E",
    "__ZN100_$LT$dioxus_core..any_props..VProps$LT$F$C$P$C$M$GT$$u20$as$u20$dioxus_core..any_props..AnyProps$GT$6render28_$u7b$$u7b$closure$u7d$$u7d$17h5f5c31c2c4fcd3edE",
    "__ZN4core3ops8function6FnOnce9call_once17haf610c889d773240E",
    "__ZN115_$LT$core..panic..unwind_safe..AssertUnwindSafe$LT$F$GT$$u20$as$u20$core..ops..function..FnOnce$LT$$LP$$RP$$GT$$GT$9call_once17he0621d6d235d0c08E",
    "__ZN3std9panicking3try7do_call17h8e7a94c382a5e60cE",
    "__ZN3std5panic12catch_unwind17h1f6291afe955bbfcE",
    "__ZN100_$LT$dioxus_core..any_props..VProps$LT$F$C$P$C$M$GT$$u20$as$u20$dioxus_core..any_props..AnyProps$GT$6render17h45480eba660d5148E",
    "l___unnamed_7_harness-df4868ea1b5cadad.c6wmz0dxwkc7r3o02wr81u9oy.rcgu.o",
    "__ZN11dioxus_core5nodes10VComponent3new17hcaaa6729c16dc137E",
    "__ZN11dioxus_core10properties10Properties15into_vcomponent17h79bafc80aea2aab7E",
    "___hotreload_start_app",
    "__ZN7harness3app17h400735d18e59eec4E",
    "__ZN7harness4main17h4654d77b3f37379bE",
    "_main",
]
GCC_except_table39
[]
__ZN4core3ptr190drop_in_place$LT$core..result..Result$LT$core..cell..Ref$LT$dioxus_signals..signal..SignalData$LT$i64$GT$$GT$$C$core..cell..Ref$LT$alloc..boxed..Box$LT$dyn$u20$core..any..Any$GT$$GT$$GT$$GT$17h3e285693d5d16998E
[
    "__ZN4core3ptr190drop_in_place$LT$core..result..Result$LT$core..cell..Ref$LT$dioxus_signals..signal..SignalData$LT$i64$GT$$GT$$C$core..cell..Ref$LT$alloc..boxed..Box$LT$dyn$u20$core..any..Any$GT$$GT$$GT$$GT$17h3e285693d5d16998E",
    "__ZN94_$LT$generational_box..unsync..UnsyncStorage$u20$as$u20$generational_box..Storage$LT$T$GT$$GT$8try_read17h016a876643561fa6E",
    "__ZN16generational_box28GenerationalPointer$LT$S$GT$8try_read17hdb8cc3b1a8fdba97E",
    "__ZN16generational_box28GenerationalBox$LT$T$C$S$GT$8try_read17h49094ce29cdca583E",
    "__ZN101_$LT$dioxus_signals..copy_value..CopyValue$LT$T$C$S$GT$$u20$as$u20$dioxus_signals..read..Readable$GT$18try_read_unchecked17hcbacf7f4f84ff432E",
    "__ZN14dioxus_signals4read8Readable8try_read17h3f53ef44cef9d75bE",
    "__ZN14dioxus_signals8warnings41__signal_read_and_write_in_reactive_scope23__Callable$LT$T$C$S$GT$16__run_if_enabled28_$u7b$$u7b$closure$u7d$$u7d$39signal_read_and_write_in_reactive_scope17h1ad309ff6660ea62E",
    "__ZN14dioxus_signals8warnings41__signal_read_and_write_in_reactive_scope23__Callable$LT$T$C$S$GT$16__run_if_enabled28_$u7b$$u7b$closure$u7d$$u7d$17h1b0f83081d19009bE",
    "__ZN8warnings8warnings9WarningId10if_enabled17ha6ef6cba53b085f6E",
    "__ZN14dioxus_signals8warnings41__signal_read_and_write_in_reactive_scope23__Callable$LT$T$C$S$GT$16__run_if_enabled17he99b0af967ae97feE",
    "l___unnamed_2_harness-df4868ea1b5cadad.a64hlspyskaofkyts3cee93he.rcgu.o",
    "__ZN136_$LT$dioxus_signals..warnings..__signal_read_and_write_in_reactive_scope..__Callable$LT$T$C$S$GT$$u20$as$u20$core..ops..deref..Deref$GT$5deref17h86c7f97abc3f6c06E",
    "__ZN99_$LT$dioxus_signals..signal..SignalSubscriberDrop$LT$T$C$S$GT$$u20$as$u20$core..ops..drop..Drop$GT$4drop17h330fbe4f6664ee0bE",
    "__ZN4core3ptr118drop_in_place$LT$dioxus_signals..signal..SignalSubscriberDrop$LT$i64$C$generational_box..unsync..UnsyncStorage$GT$$GT$17h25b2886afdcde067E",
    "l___unnamed_21_harness-df4868ea1b5cadad.5qrn0xfhbv2rouh4f52itu55i.rcgu.o",
    "__ZN95_$LT$dioxus_signals..signal..Signal$LT$T$C$S$GT$$u20$as$u20$dioxus_signals..write..Writable$GT$19try_write_unchecked28_$u7b$$u7b$closure$u7d$$u7d$17he1b9191098da229cE",
    "__ZN4core6result19Result$LT$T$C$E$GT$3map17he4a924266e5e9d5aE",
    "__ZN95_$LT$dioxus_signals..signal..Signal$LT$T$C$S$GT$$u20$as$u20$dioxus_signals..write..Writable$GT$19try_write_unchecked17h4cba87c5ead1eb17E",
    "__ZN14dioxus_signals6global19Global$LT$T$C$R$GT$5write17h2228387cbea56f90E",
    "__ZN7harness11GlobalInner28_$u7b$$u7b$closure$u7d$$u7d$17hb42c5660948e5f3bE",
    "__ZN11dioxus_core6events26Callback$LT$Args$C$Ret$GT$3new28_$u7b$$u7b$closure$u7d$$u7d$17h6f96a569a9f12b13E",
    "l___unnamed_9_harness-df4868ea1b5cadad.egexdem49eejgynie32zwugcu.rcgu.o",
    "__ZN11dioxus_core6events26Callback$LT$Args$C$Ret$GT$3new17he13b8bd10ebc92d6E",
    "__ZN169_$LT$dioxus_core..events..Callback$LT$Args$C$Ret$GT$$u20$as$u20$dioxus_core..properties..SuperFrom$LT$Function$C$dioxus_core..events..MarkerWrapper$LT$Marker$GT$$GT$$GT$10super_from17h0f0cdd7a8468e271E",
    "__ZN69_$LT$T$u20$as$u20$dioxus_core..properties..SuperInto$LT$O$C$M$GT$$GT$10super_into17he799bb527ae17417E",
    "__ZN11dioxus_html6events5mouse7onclick28_$u7b$$u7b$closure$u7d$$u7d$17hcda8013b3fb0a7b1E",
    "__ZN11dioxus_core16generational_box10with_owner17hb0ca740788bcf0beE",
    "__ZN11dioxus_html6events5mouse7onclick17hcc75453cf267d2c1E",
    "__ZN11dioxus_html6events5mouse7onclick26call_with_explicit_closure17hc65524ea0f855dd4E",
    "__ZN7harness11GlobalInner17h56fe43aa3656219bE",
    "__ZN4core3ops8function2Fn4call17h3c8f851ee4dd175bE",
    "__ZN119_$LT$F$u20$as$u20$dioxus_core..properties..ComponentFunction$LT$$LP$$RP$$C$dioxus_core..properties..EmptyMarker$GT$$GT$7rebuild17hf7f1250efa3fb04cE",
    "__ZN100_$LT$dioxus_core..any_props..VProps$LT$F$C$P$C$M$GT$$u20$as$u20$dioxus_core..any_props..AnyProps$GT$6render28_$u7b$$u7b$closure$u7d$$u7d$17h025de8e22280b207E",
    "__ZN4core3ops8function6FnOnce9call_once17h371dcf20a99f261bE",
    "__ZN115_$LT$core..panic..unwind_safe..AssertUnwindSafe$LT$F$GT$$u20$as$u20$core..ops..function..FnOnce$LT$$LP$$RP$$GT$$GT$9call_once17h25a92dc564e3d7ffE",
    "__ZN3std9panicking3try7do_call17ha023efa9fb2ba8f7E",
    "__ZN3std5panic12catch_unwind17h48b71dec49934bf1E",
    "__ZN100_$LT$dioxus_core..any_props..VProps$LT$F$C$P$C$M$GT$$u20$as$u20$dioxus_core..any_props..AnyProps$GT$6render17h543a97c06bfefa3bE",
    "l___unnamed_4_harness-df4868ea1b5cadad.e382ndox9j839chz9esswif6u.rcgu.o",
    "__ZN100_$LT$dioxus_core..any_props..VProps$LT$F$C$P$C$M$GT$$u20$as$u20$dioxus_core..any_props..AnyProps$GT$9duplicate17h675ac73f4925ce25E",
    "l___unnamed_4_harness-df4868ea1b5cadad.c6wmz0dxwkc7r3o02wr81u9oy.rcgu.o",
    "__ZN11dioxus_core5nodes10VComponent3new17h993f8b3d9eb93954E",
    "__ZN11dioxus_core10properties10Properties15into_vcomponent17h965196ec13444056E",
    "__ZN7harness5Child17h2b32aeaba0b4c00dE",
    "__ZN4core3ops8function2Fn4call17hf86b26e1f09dbfc5E",
    "__ZN73_$LT$F$u20$as$u20$dioxus_core..properties..ComponentFunction$LT$P$GT$$GT$7rebuild17hdcc2e237eec08339E",
    "__ZN100_$LT$dioxus_core..any_props..VProps$LT$F$C$P$C$M$GT$$u20$as$u20$dioxus_core..any_props..AnyProps$GT$6render28_$u7b$$u7b$closure$u7d$$u7d$17hfbf53ec21013c460E",
    "__ZN4core3ops8function6FnOnce9call_once17hb1250f82ab822998E",
    "__ZN115_$LT$core..panic..unwind_safe..AssertUnwindSafe$LT$F$GT$$u20$as$u20$core..ops..function..FnOnce$LT$$LP$$RP$$GT$$GT$9call_once17h156df01ab880499cE",
    "__ZN3std9panicking3try7do_call17h12b00f5c1afca0e5E",
    "__ZN3std5panic12catch_unwind17h9623dc210b33032cE",
    "__ZN100_$LT$dioxus_core..any_props..VProps$LT$F$C$P$C$M$GT$$u20$as$u20$dioxus_core..any_props..AnyProps$GT$6render17h724478bd10ae45abE",
    "l___unnamed_8_harness-df4868ea1b5cadad.e382ndox9j839chz9esswif6u.rcgu.o",
    "__ZN100_$LT$dioxus_core..any_props..VProps$LT$F$C$P$C$M$GT$$u20$as$u20$dioxus_core..any_props..AnyProps$GT$9duplicate17hbcc315160800576aE",
    "l___unnamed_2_harness-df4868ea1b5cadad.c6wmz0dxwkc7r3o02wr81u9oy.rcgu.o",
    "__ZN11dioxus_core5nodes10VComponent3new17h64d3a0812e77f0edE",
    "__ZN11dioxus_core10properties10Properties15into_vcomponent17h7753673354bc1edfE",
    "__ZN7harness13zoom_controls17h3a73844835917e06E",
    "__ZN4core3ops8function2Fn4call17heb220dff9cb64346E",
    "__ZN119_$LT$F$u20$as$u20$dioxus_core..properties..ComponentFunction$LT$$LP$$RP$$C$dioxus_core..properties..EmptyMarker$GT$$GT$7rebuild17h1485b718be4dcc97E",
    "__ZN100_$LT$dioxus_core..any_props..VProps$LT$F$C$P$C$M$GT$$u20$as$u20$dioxus_core..any_props..AnyProps$GT$6render28_$u7b$$u7b$closure$u7d$$u7d$17h5f5c31c2c4fcd3edE",
    "__ZN4core3ops8function6FnOnce9call_once17haf610c889d773240E",
    "__ZN115_$LT$core..panic..unwind_safe..AssertUnwindSafe$LT$F$GT$$u20$as$u20$core..ops..function..FnOnce$LT$$LP$$RP$$GT$$GT$9call_once17he0621d6d235d0c08E",
    "__ZN3std9panicking3try7do_call17h8e7a94c382a5e60cE",
    "__ZN3std5panic12catch_unwind17h1f6291afe955bbfcE",
    "__ZN100_$LT$dioxus_core..any_props..VProps$LT$F$C$P$C$M$GT$$u20$as$u20$dioxus_core..any_props..AnyProps$GT$6render17h45480eba660d5148E",
    "l___unnamed_7_harness-df4868ea1b5cadad.c6wmz0dxwkc7r3o02wr81u9oy.rcgu.o",
    "__ZN11dioxus_core5nodes10VComponent3new17hcaaa6729c16dc137E",
    "__ZN11dioxus_core10properties10Properties15into_vcomponent17h79bafc80aea2aab7E",
    "___hotreload_start_app",
    "__ZN7harness3app17h400735d18e59eec4E",
    "__ZN7harness4main17h4654d77b3f37379bE",
    "_main",
]
GCC_except_table387
[]
__ZN16generational_box10references24GenerationalRef$LT$R$GT$3new17hf78b6aef46d9c249E
[
    "__ZN16generational_box10references24GenerationalRef$LT$R$GT$3new17hf78b6aef46d9c249E",
    "__ZN94_$LT$generational_box..unsync..UnsyncStorage$u20$as$u20$generational_box..Storage$LT$T$GT$$GT$8try_read17h016a876643561fa6E",
    "__ZN16generational_box28GenerationalPointer$LT$S$GT$8try_read17hdb8cc3b1a8fdba97E",
    "__ZN16generational_box28GenerationalBox$LT$T$C$S$GT$8try_read17h49094ce29cdca583E",
    "__ZN101_$LT$dioxus_signals..copy_value..CopyValue$LT$T$C$S$GT$$u20$as$u20$dioxus_signals..read..Readable$GT$18try_read_unchecked17hcbacf7f4f84ff432E",
    "__ZN14dioxus_signals4read8Readable8try_read17h3f53ef44cef9d75bE",
    "__ZN14dioxus_signals8warnings41__signal_read_and_write_in_reactive_scope23__Callable$LT$T$C$S$GT$16__run_if_enabled28_$u7b$$u7b$closure$u7d$$u7d$39signal_read_and_write_in_reactive_scope17h1ad309ff6660ea62E",
    "__ZN14dioxus_signals8warnings41__signal_read_and_write_in_reactive_scope23__Callable$LT$T$C$S$GT$16__run_if_enabled28_$u7b$$u7b$closure$u7d$$u7d$17h1b0f83081d19009bE",
    "__ZN8warnings8warnings9WarningId10if_enabled17ha6ef6cba53b085f6E",
    "__ZN14dioxus_signals8warnings41__signal_read_and_write_in_reactive_scope23__Callable$LT$T$C$S$GT$16__run_if_enabled17he99b0af967ae97feE",
    "l___unnamed_2_harness-df4868ea1b5cadad.a64hlspyskaofkyts3cee93he.rcgu.o",
    "__ZN136_$LT$dioxus_signals..warnings..__signal_read_and_write_in_reactive_scope..__Callable$LT$T$C$S$GT$$u20$as$u20$core..ops..deref..Deref$GT$5deref17h86c7f97abc3f6c06E",
    "__ZN99_$LT$dioxus_signals..signal..SignalSubscriberDrop$LT$T$C$S$GT$$u20$as$u20$core..ops..drop..Drop$GT$4drop17h330fbe4f6664ee0bE",
    "__ZN4core3ptr118drop_in_place$LT$dioxus_signals..signal..SignalSubscriberDrop$LT$i64$C$generational_box..unsync..UnsyncStorage$GT$$GT$17h25b2886afdcde067E",
    "l___unnamed_21_harness-df4868ea1b5cadad.5qrn0xfhbv2rouh4f52itu55i.rcgu.o",
    "__ZN95_$LT$dioxus_signals..signal..Signal$LT$T$C$S$GT$$u20$as$u20$dioxus_signals..write..Writable$GT$19try_write_unchecked28_$u7b$$u7b$closure$u7d$$u7d$17he1b9191098da229cE",
    "__ZN4core6result19Result$LT$T$C$E$GT$3map17he4a924266e5e9d5aE",
    "__ZN95_$LT$dioxus_signals..signal..Signal$LT$T$C$S$GT$$u20$as$u20$dioxus_signals..write..Writable$GT$19try_write_unchecked17h4cba87c5ead1eb17E",
    "__ZN14dioxus_signals6global19Global$LT$T$C$R$GT$5write17h2228387cbea56f90E",
    "__ZN7harness11GlobalInner28_$u7b$$u7b$closure$u7d$$u7d$17hb42c5660948e5f3bE",
    "__ZN11dioxus_core6events26Callback$LT$Args$C$Ret$GT$3new28_$u7b$$u7b$closure$u7d$$u7d$17h6f96a569a9f12b13E",
    "l___unnamed_9_harness-df4868ea1b5cadad.egexdem49eejgynie32zwugcu.rcgu.o",
    "__ZN11dioxus_core6events26Callback$LT$Args$C$Ret$GT$3new17he13b8bd10ebc92d6E",
    "__ZN169_$LT$dioxus_core..events..Callback$LT$Args$C$Ret$GT$$u20$as$u20$dioxus_core..properties..SuperFrom$LT$Function$C$dioxus_core..events..MarkerWrapper$LT$Marker$GT$$GT$$GT$10super_from17h0f0cdd7a8468e271E",
    "__ZN69_$LT$T$u20$as$u20$dioxus_core..properties..SuperInto$LT$O$C$M$GT$$GT$10super_into17he799bb527ae17417E",
    "__ZN11dioxus_html6events5mouse7onclick28_$u7b$$u7b$closure$u7d$$u7d$17hcda8013b3fb0a7b1E",
    "__ZN11dioxus_core16generational_box10with_owner17hb0ca740788bcf0beE",
    "__ZN11dioxus_html6events5mouse7onclick17hcc75453cf267d2c1E",
    "__ZN11dioxus_html6events5mouse7onclick26call_with_explicit_closure17hc65524ea0f855dd4E",
    "__ZN7harness11GlobalInner17h56fe43aa3656219bE",
    "__ZN4core3ops8function2Fn4call17h3c8f851ee4dd175bE",
    "__ZN119_$LT$F$u20$as$u20$dioxus_core..properties..ComponentFunction$LT$$LP$$RP$$C$dioxus_core..properties..EmptyMarker$GT$$GT$7rebuild17hf7f1250efa3fb04cE",
    "__ZN100_$LT$dioxus_core..any_props..VProps$LT$F$C$P$C$M$GT$$u20$as$u20$dioxus_core..any_props..AnyProps$GT$6render28_$u7b$$u7b$closure$u7d$$u7d$17h025de8e22280b207E",
    "__ZN4core3ops8function6FnOnce9call_once17h371dcf20a99f261bE",
    "__ZN115_$LT$core..panic..unwind_safe..AssertUnwindSafe$LT$F$GT$$u20$as$u20$core..ops..function..FnOnce$LT$$LP$$RP$$GT$$GT$9call_once17h25a92dc564e3d7ffE",
    "__ZN3std9panicking3try7do_call17ha023efa9fb2ba8f7E",
    "__ZN3std5panic12catch_unwind17h48b71dec49934bf1E",
    "__ZN100_$LT$dioxus_core..any_props..VProps$LT$F$C$P$C$M$GT$$u20$as$u20$dioxus_core..any_props..AnyProps$GT$6render17h543a97c06bfefa3bE",
    "l___unnamed_4_harness-df4868ea1b5cadad.e382ndox9j839chz9esswif6u.rcgu.o",
    "__ZN100_$LT$dioxus_core..any_props..VProps$LT$F$C$P$C$M$GT$$u20$as$u20$dioxus_core..any_props..AnyProps$GT$9duplicate17h675ac73f4925ce25E",
    "l___unnamed_4_harness-df4868ea1b5cadad.c6wmz0dxwkc7r3o02wr81u9oy.rcgu.o",
    "__ZN11dioxus_core5nodes10VComponent3new17h993f8b3d9eb93954E",
    "__ZN11dioxus_core10properties10Properties15into_vcomponent17h965196ec13444056E",
    "__ZN7harness5Child17h2b32aeaba0b4c00dE",
    "__ZN4core3ops8function2Fn4call17hf86b26e1f09dbfc5E",
    "__ZN73_$LT$F$u20$as$u20$dioxus_core..properties..ComponentFunction$LT$P$GT$$GT$7rebuild17hdcc2e237eec08339E",
    "__ZN100_$LT$dioxus_core..any_props..VProps$LT$F$C$P$C$M$GT$$u20$as$u20$dioxus_core..any_props..AnyProps$GT$6render28_$u7b$$u7b$closure$u7d$$u7d$17hfbf53ec21013c460E",
    "__ZN4core3ops8function6FnOnce9call_once17hb1250f82ab822998E",
    "__ZN115_$LT$core..panic..unwind_safe..AssertUnwindSafe$LT$F$GT$$u20$as$u20$core..ops..function..FnOnce$LT$$LP$$RP$$GT$$GT$9call_once17h156df01ab880499cE",
    "__ZN3std9panicking3try7do_call17h12b00f5c1afca0e5E",
    "__ZN3std5panic12catch_unwind17h9623dc210b33032cE",
    "__ZN100_$LT$dioxus_core..any_props..VProps$LT$F$C$P$C$M$GT$$u20$as$u20$dioxus_core..any_props..AnyProps$GT$6render17h724478bd10ae45abE",
    "l___unnamed_8_harness-df4868ea1b5cadad.e382ndox9j839chz9esswif6u.rcgu.o",
    "__ZN100_$LT$dioxus_core..any_props..VProps$LT$F$C$P$C$M$GT$$u20$as$u20$dioxus_core..any_props..AnyProps$GT$9duplicate17hbcc315160800576aE",
    "l___unnamed_2_harness-df4868ea1b5cadad.c6wmz0dxwkc7r3o02wr81u9oy.rcgu.o",
    "__ZN11dioxus_core5nodes10VComponent3new17h64d3a0812e77f0edE",
    "__ZN11dioxus_core10properties10Properties15into_vcomponent17h7753673354bc1edfE",
    "__ZN7harness13zoom_controls17h3a73844835917e06E",
    "__ZN4core3ops8function2Fn4call17heb220dff9cb64346E",
    "__ZN119_$LT$F$u20$as$u20$dioxus_core..properties..ComponentFunction$LT$$LP$$RP$$C$dioxus_core..properties..EmptyMarker$GT$$GT$7rebuild17h1485b718be4dcc97E",
    "__ZN100_$LT$dioxus_core..any_props..VProps$LT$F$C$P$C$M$GT$$u20$as$u20$dioxus_core..any_props..AnyProps$GT$6render28_$u7b$$u7b$closure$u7d$$u7d$17h5f5c31c2c4fcd3edE",
    "__ZN4core3ops8function6FnOnce9call_once17haf610c889d773240E",
    "__ZN115_$LT$core..panic..unwind_safe..AssertUnwindSafe$LT$F$GT$$u20$as$u20$core..ops..function..FnOnce$LT$$LP$$RP$$GT$$GT$9call_once17he0621d6d235d0c08E",
    "__ZN3std9panicking3try7do_call17h8e7a94c382a5e60cE",
    "__ZN3std5panic12catch_unwind17h1f6291afe955bbfcE",
    "__ZN100_$LT$dioxus_core..any_props..VProps$LT$F$C$P$C$M$GT$$u20$as$u20$dioxus_core..any_props..AnyProps$GT$6render17h45480eba660d5148E",
    "l___unnamed_7_harness-df4868ea1b5cadad.c6wmz0dxwkc7r3o02wr81u9oy.rcgu.o",
    "__ZN11dioxus_core5nodes10VComponent3new17hcaaa6729c16dc137E",
    "__ZN11dioxus_core10properties10Properties15into_vcomponent17h79bafc80aea2aab7E",
    "___hotreload_start_app",
    "__ZN7harness3app17h400735d18e59eec4E",
    "__ZN7harness4main17h4654d77b3f37379bE",
    "_main",
]
l___unnamed_3_harness-df4868ea1b5cadad.a64hlspyskaofkyts3cee93he.rcgu.o
[
    "l___unnamed_3_harness-df4868ea1b5cadad.a64hlspyskaofkyts3cee93he.rcgu.o",
    "__ZN136_$LT$dioxus_signals..warnings..__signal_read_and_write_in_reactive_scope..__Callable$LT$T$C$S$GT$$u20$as$u20$core..ops..deref..Deref$GT$5deref17hcdc2806cc5e73aefE",
    "__ZN99_$LT$dioxus_signals..signal..SignalSubscriberDrop$LT$T$C$S$GT$$u20$as$u20$core..ops..drop..Drop$GT$4drop17h439b01a79c622f40E",
    "__ZN4core3ptr136drop_in_place$LT$dioxus_signals..signal..SignalSubscriberDrop$LT$alloc..string..String$C$generational_box..unsync..UnsyncStorage$GT$$GT$17h76f16bc26a5eceaeE",
    "l___unnamed_19_harness-df4868ea1b5cadad.5qrn0xfhbv2rouh4f52itu55i.rcgu.o",
    "__ZN95_$LT$dioxus_signals..signal..Signal$LT$T$C$S$GT$$u20$as$u20$dioxus_signals..write..Writable$GT$19try_write_unchecked28_$u7b$$u7b$closure$u7d$$u7d$17h865a521fd903c3c5E",
    "__ZN4core6result19Result$LT$T$C$E$GT$3map17h24e35ff5a4f7e733E",
    "__ZN95_$LT$dioxus_signals..signal..Signal$LT$T$C$S$GT$$u20$as$u20$dioxus_signals..write..Writable$GT$19try_write_unchecked17h9f54c2f8e942c2a4E",
    "__ZN14dioxus_signals5write8Writable9try_write17h3a2a0d9e10106e27E",
    "__ZN14dioxus_signals5write8Writable5write17h65cbdb1d141bcb4aE",
    "__ZN14dioxus_signals5write8Writable3set17h3a13261e78c59963E",
    "__ZN7harness12AddingLogger28_$u7b$$u7b$closure$u7d$$u7d$17h7550ef02f1861627E",
    "__ZN7harness12AddingLogger28_$u7b$$u7b$closure$u7d$$u7d$17hd8e6be41b9a84583E",
    "__ZN11dioxus_core6events26Callback$LT$Args$C$Ret$GT$3new28_$u7b$$u7b$closure$u7d$$u7d$17hf771f51420dabaaeE",
    "l___unnamed_11_harness-df4868ea1b5cadad.egexdem49eejgynie32zwugcu.rcgu.o",
    "__ZN11dioxus_core6events26Callback$LT$Args$C$Ret$GT$3new17hf49a7ba233cfcb4bE",
    "__ZN169_$LT$dioxus_core..events..Callback$LT$Args$C$Ret$GT$$u20$as$u20$dioxus_core..properties..SuperFrom$LT$Function$C$dioxus_core..events..MarkerWrapper$LT$Marker$GT$$GT$$GT$10super_from17ha0eb73359dcf2b5fE",
    "__ZN69_$LT$T$u20$as$u20$dioxus_core..properties..SuperInto$LT$O$C$M$GT$$GT$10super_into17he725d2a59af62b36E",
    "__ZN11dioxus_html6events5mouse7onclick28_$u7b$$u7b$closure$u7d$$u7d$17h088593d399a17bb2E",
    "__ZN11dioxus_core16generational_box10with_owner17ha770f68327e79831E",
    "__ZN11dioxus_html6events5mouse7onclick17h44f66615c6057071E",
    "__ZN11dioxus_html6events5mouse7onclick26call_with_explicit_closure17h85538a841367551bE",
    "__ZN7harness12AddingLogger17h283889c677656013E",
    "__ZN4core3ops8function2Fn4call17hc1d984302f90d6b5E",
    "__ZN119_$LT$F$u20$as$u20$dioxus_core..properties..ComponentFunction$LT$$LP$$RP$$C$dioxus_core..properties..EmptyMarker$GT$$GT$7rebuild17ha7658b769122d22aE",
    "__ZN100_$LT$dioxus_core..any_props..VProps$LT$F$C$P$C$M$GT$$u20$as$u20$dioxus_core..any_props..AnyProps$GT$6render28_$u7b$$u7b$closure$u7d$$u7d$17h90af567fab99d4f7E",
    "__ZN4core3ops8function6FnOnce9call_once17he98e8829e2ade214E",
    "__ZN115_$LT$core..panic..unwind_safe..AssertUnwindSafe$LT$F$GT$$u20$as$u20$core..ops..function..FnOnce$LT$$LP$$RP$$GT$$GT$9call_once17h8b675a067d6b378fE",
    "__ZN3std9panicking3try7do_call17h042d1df4c42c9398E",
    "__ZN3std5panic12catch_unwind17hebad81528f98f478E",
    "__ZN100_$LT$dioxus_core..any_props..VProps$LT$F$C$P$C$M$GT$$u20$as$u20$dioxus_core..any_props..AnyProps$GT$6render17h6d3194045a8447dcE",
    "l___unnamed_6_harness-df4868ea1b5cadad.c6wmz0dxwkc7r3o02wr81u9oy.rcgu.o",
    "__ZN11dioxus_core5nodes10VComponent3new17hc4f98269bb25b058E",
    "__ZN11dioxus_core10properties10Properties15into_vcomponent17had2a4ffa139fd691E",
    "__ZN7harness5Child17h2b32aeaba0b4c00dE",
    "__ZN4core3ops8function2Fn4call17hf86b26e1f09dbfc5E",
    "__ZN73_$LT$F$u20$as$u20$dioxus_core..properties..ComponentFunction$LT$P$GT$$GT$7rebuild17hdcc2e237eec08339E",
    "__ZN100_$LT$dioxus_core..any_props..VProps$LT$F$C$P$C$M$GT$$u20$as$u20$dioxus_core..any_props..AnyProps$GT$6render28_$u7b$$u7b$closure$u7d$$u7d$17hfbf53ec21013c460E",
    "__ZN4core3ops8function6FnOnce9call_once17hb1250f82ab822998E",
    "__ZN115_$LT$core..panic..unwind_safe..AssertUnwindSafe$LT$F$GT$$u20$as$u20$core..ops..function..FnOnce$LT$$LP$$RP$$GT$$GT$9call_once17h156df01ab880499cE",
    "__ZN3std9panicking3try7do_call17h12b00f5c1afca0e5E",
    "__ZN3std5panic12catch_unwind17h9623dc210b33032cE",
    "__ZN100_$LT$dioxus_core..any_props..VProps$LT$F$C$P$C$M$GT$$u20$as$u20$dioxus_core..any_props..AnyProps$GT$6render17h724478bd10ae45abE",
    "l___unnamed_8_harness-df4868ea1b5cadad.e382ndox9j839chz9esswif6u.rcgu.o",
    "__ZN100_$LT$dioxus_core..any_props..VProps$LT$F$C$P$C$M$GT$$u20$as$u20$dioxus_core..any_props..AnyProps$GT$9duplicate17hbcc315160800576aE",
    "l___unnamed_2_harness-df4868ea1b5cadad.c6wmz0dxwkc7r3o02wr81u9oy.rcgu.o",
    "__ZN11dioxus_core5nodes10VComponent3new17h64d3a0812e77f0edE",
    "__ZN11dioxus_core10properties10Properties15into_vcomponent17h7753673354bc1edfE",
    "__ZN7harness13zoom_controls17h3a73844835917e06E",
    "__ZN4core3ops8function2Fn4call17heb220dff9cb64346E",
    "__ZN119_$LT$F$u20$as$u20$dioxus_core..properties..ComponentFunction$LT$$LP$$RP$$C$dioxus_core..properties..EmptyMarker$GT$$GT$7rebuild17h1485b718be4dcc97E",
    "__ZN100_$LT$dioxus_core..any_props..VProps$LT$F$C$P$C$M$GT$$u20$as$u20$dioxus_core..any_props..AnyProps$GT$6render28_$u7b$$u7b$closure$u7d$$u7d$17h5f5c31c2c4fcd3edE",
    "__ZN4core3ops8function6FnOnce9call_once17haf610c889d773240E",
    "__ZN115_$LT$core..panic..unwind_safe..AssertUnwindSafe$LT$F$GT$$u20$as$u20$core..ops..function..FnOnce$LT$$LP$$RP$$GT$$GT$9call_once17he0621d6d235d0c08E",
    "__ZN3std9panicking3try7do_call17h8e7a94c382a5e60cE",
    "__ZN3std5panic12catch_unwind17h1f6291afe955bbfcE",
    "__ZN100_$LT$dioxus_core..any_props..VProps$LT$F$C$P$C$M$GT$$u20$as$u20$dioxus_core..any_props..AnyProps$GT$6render17h45480eba660d5148E",
    "l___unnamed_7_harness-df4868ea1b5cadad.c6wmz0dxwkc7r3o02wr81u9oy.rcgu.o",
    "__ZN11dioxus_core5nodes10VComponent3new17hcaaa6729c16dc137E",
    "__ZN11dioxus_core10properties10Properties15into_vcomponent17h79bafc80aea2aab7E",
    "___hotreload_start_app",
    "__ZN7harness3app17h400735d18e59eec4E",
    "__ZN7harness4main17h4654d77b3f37379bE",
    "_main",
]
GCC_except_table80
[]
__ZN14dioxus_signals8warnings20__copy_value_hoisted23__Callable$LT$T$C$S$GT$16__run_if_enabled28_$u7b$$u7b$closure$u7d$$u7d$18copy_value_hoisted17h4bcd4bf1c0d65963E
[
    "__ZN14dioxus_signals8warnings20__copy_value_hoisted23__Callable$LT$T$C$S$GT$16__run_if_enabled28_$u7b$$u7b$closure$u7d$$u7d$18copy_value_hoisted17h4bcd4bf1c0d65963E",
    "__ZN14dioxus_signals8warnings20__copy_value_hoisted23__Callable$LT$T$C$S$GT$16__run_if_enabled28_$u7b$$u7b$closure$u7d$$u7d$17h19a8eb07ae274774E",
    "__ZN8warnings8warnings9WarningId10if_enabled17h6c5ef0372f8fde45E",
    "__ZN14dioxus_signals8warnings20__copy_value_hoisted23__Callable$LT$T$C$S$GT$16__run_if_enabled17h697dcbc98164d162E",
    "l___unnamed_4_harness-df4868ea1b5cadad.57p783wz0mdr6vmpci89msrb7.rcgu.o",
    "__ZN115_$LT$dioxus_signals..warnings..__copy_value_hoisted..__Callable$LT$T$C$S$GT$$u20$as$u20$core..ops..deref..Deref$GT$5deref17h864a251dc80c21cdE",
    "__ZN102_$LT$dioxus_signals..copy_value..CopyValue$LT$T$C$S$GT$$u20$as$u20$dioxus_signals..write..Writable$GT$19try_write_unchecked17h0259d3be568e3fb2E",
    "__ZN95_$LT$dioxus_signals..signal..Signal$LT$T$C$S$GT$$u20$as$u20$dioxus_signals..write..Writable$GT$19try_write_unchecked17hdcf2eb8de4478aeaE",
    "__ZN14dioxus_signals5write8Writable9try_write17hae765eca398f8ac5E",
    "__ZN14dioxus_signals5write8Writable5write17h4e8272cf09e11ce0E",
    "__ZN14dioxus_signals5write8Writable3set17h364d6451a18ce01cE",
    "__ZN7harness5Child28_$u7b$$u7b$closure$u7d$$u7d$17haa258cc19113625bE",
    "__ZN11dioxus_core6events26Callback$LT$Args$C$Ret$GT$3new28_$u7b$$u7b$closure$u7d$$u7d$17h29ff8d84f1464c02E",
    "__ZN4core3ops8function6FnOnce9call_once17h97fcd42365d86ecdE",
    "__ZN4core3ops8function6FnOnce40call_once$u7b$$u7b$vtable.shim$u7d$$u7d$17h3ad06f9e3bd1d3a5E",
    "l___unnamed_2_harness-df4868ea1b5cadad.egexdem49eejgynie32zwugcu.rcgu.o",
    "__ZN11dioxus_core6events26Callback$LT$Args$C$Ret$GT$3new17h05bc5bd9792aac62E",
    "__ZN169_$LT$dioxus_core..events..Callback$LT$Args$C$Ret$GT$$u20$as$u20$dioxus_core..properties..SuperFrom$LT$Function$C$dioxus_core..events..MarkerWrapper$LT$Marker$GT$$GT$$GT$10super_from17h1bd476b8f48d9334E",
    "__ZN69_$LT$T$u20$as$u20$dioxus_core..properties..SuperInto$LT$O$C$M$GT$$GT$10super_into17hb65f9379448067e8E",
    "__ZN11dioxus_html6events5mouse7onclick28_$u7b$$u7b$closure$u7d$$u7d$17hf727a1c1abe214abE",
    "__ZN11dioxus_core16generational_box10with_owner17h9d89806d02eff80dE",
    "__ZN11dioxus_html6events5mouse7onclick17h63b1d816c5d51a43E",
    "__ZN11dioxus_html6events5mouse7onclick26call_with_explicit_closure17hf29c25ce3f1dc3aeE",
    "__ZN7harness5Child17h2b32aeaba0b4c00dE",
    "__ZN4core3ops8function2Fn4call17hf86b26e1f09dbfc5E",
    "__ZN73_$LT$F$u20$as$u20$dioxus_core..properties..ComponentFunction$LT$P$GT$$GT$7rebuild17hdcc2e237eec08339E",
    "__ZN100_$LT$dioxus_core..any_props..VProps$LT$F$C$P$C$M$GT$$u20$as$u20$dioxus_core..any_props..AnyProps$GT$6render28_$u7b$$u7b$closure$u7d$$u7d$17hfbf53ec21013c460E",
    "__ZN4core3ops8function6FnOnce9call_once17hb1250f82ab822998E",
    "__ZN115_$LT$core..panic..unwind_safe..AssertUnwindSafe$LT$F$GT$$u20$as$u20$core..ops..function..FnOnce$LT$$LP$$RP$$GT$$GT$9call_once17h156df01ab880499cE",
    "__ZN3std9panicking3try7do_call17h12b00f5c1afca0e5E",
    "__ZN3std5panic12catch_unwind17h9623dc210b33032cE",
    "__ZN100_$LT$dioxus_core..any_props..VProps$LT$F$C$P$C$M$GT$$u20$as$u20$dioxus_core..any_props..AnyProps$GT$6render17h724478bd10ae45abE",
    "l___unnamed_8_harness-df4868ea1b5cadad.e382ndox9j839chz9esswif6u.rcgu.o",
    "__ZN100_$LT$dioxus_core..any_props..VProps$LT$F$C$P$C$M$GT$$u20$as$u20$dioxus_core..any_props..AnyProps$GT$9duplicate17hbcc315160800576aE",
    "l___unnamed_2_harness-df4868ea1b5cadad.c6wmz0dxwkc7r3o02wr81u9oy.rcgu.o",
    "__ZN11dioxus_core5nodes10VComponent3new17h64d3a0812e77f0edE",
    "__ZN11dioxus_core10properties10Properties15into_vcomponent17h7753673354bc1edfE",
    "__ZN7harness13zoom_controls17h3a73844835917e06E",
    "__ZN4core3ops8function2Fn4call17heb220dff9cb64346E",
    "__ZN119_$LT$F$u20$as$u20$dioxus_core..properties..ComponentFunction$LT$$LP$$RP$$C$dioxus_core..properties..EmptyMarker$GT$$GT$7rebuild17h1485b718be4dcc97E",
    "__ZN100_$LT$dioxus_core..any_props..VProps$LT$F$C$P$C$M$GT$$u20$as$u20$dioxus_core..any_props..AnyProps$GT$6render28_$u7b$$u7b$closure$u7d$$u7d$17h5f5c31c2c4fcd3edE",
    "__ZN4core3ops8function6FnOnce9call_once17haf610c889d773240E",
    "__ZN115_$LT$core..panic..unwind_safe..AssertUnwindSafe$LT$F$GT$$u20$as$u20$core..ops..function..FnOnce$LT$$LP$$RP$$GT$$GT$9call_once17he0621d6d235d0c08E",
    "__ZN3std9panicking3try7do_call17h8e7a94c382a5e60cE",
    "__ZN3std5panic12catch_unwind17h1f6291afe955bbfcE",
    "__ZN100_$LT$dioxus_core..any_props..VProps$LT$F$C$P$C$M$GT$$u20$as$u20$dioxus_core..any_props..AnyProps$GT$6render17h45480eba660d5148E",
    "l___unnamed_7_harness-df4868ea1b5cadad.c6wmz0dxwkc7r3o02wr81u9oy.rcgu.o",
    "__ZN11dioxus_core5nodes10VComponent3new17hcaaa6729c16dc137E",
    "__ZN11dioxus_core10properties10Properties15into_vcomponent17h79bafc80aea2aab7E",
    "___hotreload_start_app",
    "__ZN7harness3app17h400735d18e59eec4E",
    "__ZN7harness4main17h4654d77b3f37379bE",
    "_main",
]
GCC_except_table378
[]
GCC_except_table24
[]
__ZN95_$LT$dioxus_signals..signal..Signal$LT$T$C$S$GT$$u20$as$u20$dioxus_signals..write..Writable$GT$19try_write_unchecked28_$u7b$$u7b$closure$u7d$$u7d$17he1b9191098da229cE
[
    "__ZN95_$LT$dioxus_signals..signal..Signal$LT$T$C$S$GT$$u20$as$u20$dioxus_signals..write..Writable$GT$19try_write_unchecked28_$u7b$$u7b$closure$u7d$$u7d$17he1b9191098da229cE",
    "__ZN4core6result19Result$LT$T$C$E$GT$3map17he4a924266e5e9d5aE",
    "__ZN95_$LT$dioxus_signals..signal..Signal$LT$T$C$S$GT$$u20$as$u20$dioxus_signals..write..Writable$GT$19try_write_unchecked17h4cba87c5ead1eb17E",
    "__ZN14dioxus_signals6global19Global$LT$T$C$R$GT$5write17h2228387cbea56f90E",
    "__ZN7harness11GlobalInner28_$u7b$$u7b$closure$u7d$$u7d$17hb42c5660948e5f3bE",
    "__ZN11dioxus_core6events26Callback$LT$Args$C$Ret$GT$3new28_$u7b$$u7b$closure$u7d$$u7d$17h6f96a569a9f12b13E",
    "l___unnamed_9_harness-df4868ea1b5cadad.egexdem49eejgynie32zwugcu.rcgu.o",
    "__ZN11dioxus_core6events26Callback$LT$Args$C$Ret$GT$3new17he13b8bd10ebc92d6E",
    "__ZN169_$LT$dioxus_core..events..Callback$LT$Args$C$Ret$GT$$u20$as$u20$dioxus_core..properties..SuperFrom$LT$Function$C$dioxus_core..events..MarkerWrapper$LT$Marker$GT$$GT$$GT$10super_from17h0f0cdd7a8468e271E",
    "__ZN69_$LT$T$u20$as$u20$dioxus_core..properties..SuperInto$LT$O$C$M$GT$$GT$10super_into17he799bb527ae17417E",
    "__ZN11dioxus_html6events5mouse7onclick28_$u7b$$u7b$closure$u7d$$u7d$17hcda8013b3fb0a7b1E",
    "__ZN11dioxus_core16generational_box10with_owner17hb0ca740788bcf0beE",
    "__ZN11dioxus_html6events5mouse7onclick17hcc75453cf267d2c1E",
    "__ZN11dioxus_html6events5mouse7onclick26call_with_explicit_closure17hc65524ea0f855dd4E",
    "__ZN7harness11GlobalInner17h56fe43aa3656219bE",
    "__ZN4core3ops8function2Fn4call17h3c8f851ee4dd175bE",
    "__ZN119_$LT$F$u20$as$u20$dioxus_core..properties..ComponentFunction$LT$$LP$$RP$$C$dioxus_core..properties..EmptyMarker$GT$$GT$7rebuild17hf7f1250efa3fb04cE",
    "__ZN100_$LT$dioxus_core..any_props..VProps$LT$F$C$P$C$M$GT$$u20$as$u20$dioxus_core..any_props..AnyProps$GT$6render28_$u7b$$u7b$closure$u7d$$u7d$17h025de8e22280b207E",
    "__ZN4core3ops8function6FnOnce9call_once17h371dcf20a99f261bE",
    "__ZN115_$LT$core..panic..unwind_safe..AssertUnwindSafe$LT$F$GT$$u20$as$u20$core..ops..function..FnOnce$LT$$LP$$RP$$GT$$GT$9call_once17h25a92dc564e3d7ffE",
    "__ZN3std9panicking3try7do_call17ha023efa9fb2ba8f7E",
    "__ZN3std5panic12catch_unwind17h48b71dec49934bf1E",
    "__ZN100_$LT$dioxus_core..any_props..VProps$LT$F$C$P$C$M$GT$$u20$as$u20$dioxus_core..any_props..AnyProps$GT$6render17h543a97c06bfefa3bE",
    "l___unnamed_4_harness-df4868ea1b5cadad.e382ndox9j839chz9esswif6u.rcgu.o",
    "__ZN100_$LT$dioxus_core..any_props..VProps$LT$F$C$P$C$M$GT$$u20$as$u20$dioxus_core..any_props..AnyProps$GT$9duplicate17h675ac73f4925ce25E",
    "l___unnamed_4_harness-df4868ea1b5cadad.c6wmz0dxwkc7r3o02wr81u9oy.rcgu.o",
    "__ZN11dioxus_core5nodes10VComponent3new17h993f8b3d9eb93954E",
    "__ZN11dioxus_core10properties10Properties15into_vcomponent17h965196ec13444056E",
    "__ZN7harness5Child17h2b32aeaba0b4c00dE",
    "__ZN4core3ops8function2Fn4call17hf86b26e1f09dbfc5E",
    "__ZN73_$LT$F$u20$as$u20$dioxus_core..properties..ComponentFunction$LT$P$GT$$GT$7rebuild17hdcc2e237eec08339E",
    "__ZN100_$LT$dioxus_core..any_props..VProps$LT$F$C$P$C$M$GT$$u20$as$u20$dioxus_core..any_props..AnyProps$GT$6render28_$u7b$$u7b$closure$u7d$$u7d$17hfbf53ec21013c460E",
    "__ZN4core3ops8function6FnOnce9call_once17hb1250f82ab822998E",
    "__ZN115_$LT$core..panic..unwind_safe..AssertUnwindSafe$LT$F$GT$$u20$as$u20$core..ops..function..FnOnce$LT$$LP$$RP$$GT$$GT$9call_once17h156df01ab880499cE",
    "__ZN3std9panicking3try7do_call17h12b00f5c1afca0e5E",
    "__ZN3std5panic12catch_unwind17h9623dc210b33032cE",
    "__ZN100_$LT$dioxus_core..any_props..VProps$LT$F$C$P$C$M$GT$$u20$as$u20$dioxus_core..any_props..AnyProps$GT$6render17h724478bd10ae45abE",
    "l___unnamed_8_harness-df4868ea1b5cadad.e382ndox9j839chz9esswif6u.rcgu.o",
    "__ZN100_$LT$dioxus_core..any_props..VProps$LT$F$C$P$C$M$GT$$u20$as$u20$dioxus_core..any_props..AnyProps$GT$9duplicate17hbcc315160800576aE",
    "l___unnamed_2_harness-df4868ea1b5cadad.c6wmz0dxwkc7r3o02wr81u9oy.rcgu.o",
    "__ZN11dioxus_core5nodes10VComponent3new17h64d3a0812e77f0edE",
    "__ZN11dioxus_core10properties10Properties15into_vcomponent17h7753673354bc1edfE",
    "__ZN7harness13zoom_controls17h3a73844835917e06E",
    "__ZN4core3ops8function2Fn4call17heb220dff9cb64346E",
    "__ZN119_$LT$F$u20$as$u20$dioxus_core..properties..ComponentFunction$LT$$LP$$RP$$C$dioxus_core..properties..EmptyMarker$GT$$GT$7rebuild17h1485b718be4dcc97E",
    "__ZN100_$LT$dioxus_core..any_props..VProps$LT$F$C$P$C$M$GT$$u20$as$u20$dioxus_core..any_props..AnyProps$GT$6render28_$u7b$$u7b$closure$u7d$$u7d$17h5f5c31c2c4fcd3edE",
    "__ZN4core3ops8function6FnOnce9call_once17haf610c889d773240E",
    "__ZN115_$LT$core..panic..unwind_safe..AssertUnwindSafe$LT$F$GT$$u20$as$u20$core..ops..function..FnOnce$LT$$LP$$RP$$GT$$GT$9call_once17he0621d6d235d0c08E",
    "__ZN3std9panicking3try7do_call17h8e7a94c382a5e60cE",
    "__ZN3std5panic12catch_unwind17h1f6291afe955bbfcE",
    "__ZN100_$LT$dioxus_core..any_props..VProps$LT$F$C$P$C$M$GT$$u20$as$u20$dioxus_core..any_props..AnyProps$GT$6render17h45480eba660d5148E",
    "l___unnamed_7_harness-df4868ea1b5cadad.c6wmz0dxwkc7r3o02wr81u9oy.rcgu.o",
    "__ZN11dioxus_core5nodes10VComponent3new17hcaaa6729c16dc137E",
    "__ZN11dioxus_core10properties10Properties15into_vcomponent17h79bafc80aea2aab7E",
    "___hotreload_start_app",
    "__ZN7harness3app17h400735d18e59eec4E",
    "__ZN7harness4main17h4654d77b3f37379bE",
    "_main",
]
GCC_except_table41
[]
__ZN14dioxus_signals8warnings41__signal_read_and_write_in_reactive_scope23__Callable$LT$T$C$S$GT$16__run_if_enabled28_$u7b$$u7b$closure$u7d$$u7d$39signal_read_and_write_in_reactive_scope28_$u7b$$u7b$closure$u7d$$u7d$17h9d1e9b9a91c1c61eE
[
    "__ZN14dioxus_signals8warnings41__signal_read_and_write_in_reactive_scope23__Callable$LT$T$C$S$GT$16__run_if_enabled28_$u7b$$u7b$closure$u7d$$u7d$39signal_read_and_write_in_reactive_scope28_$u7b$$u7b$closure$u7d$$u7d$17h9d1e9b9a91c1c61eE",
    "__ZN14dioxus_signals8warnings41__signal_read_and_write_in_reactive_scope23__Callable$LT$T$C$S$GT$16__run_if_enabled28_$u7b$$u7b$closure$u7d$$u7d$39signal_read_and_write_in_reactive_scope17h1ad309ff6660ea62E",
    "__ZN14dioxus_signals8warnings41__signal_read_and_write_in_reactive_scope23__Callable$LT$T$C$S$GT$16__run_if_enabled28_$u7b$$u7b$closure$u7d$$u7d$17h1b0f83081d19009bE",
    "__ZN8warnings8warnings9WarningId10if_enabled17ha6ef6cba53b085f6E",
    "__ZN14dioxus_signals8warnings41__signal_read_and_write_in_reactive_scope23__Callable$LT$T$C$S$GT$16__run_if_enabled17he99b0af967ae97feE",
    "l___unnamed_2_harness-df4868ea1b5cadad.a64hlspyskaofkyts3cee93he.rcgu.o",
    "__ZN136_$LT$dioxus_signals..warnings..__signal_read_and_write_in_reactive_scope..__Callable$LT$T$C$S$GT$$u20$as$u20$core..ops..deref..Deref$GT$5deref17h86c7f97abc3f6c06E",
    "__ZN99_$LT$dioxus_signals..signal..SignalSubscriberDrop$LT$T$C$S$GT$$u20$as$u20$core..ops..drop..Drop$GT$4drop17h330fbe4f6664ee0bE",
    "__ZN4core3ptr118drop_in_place$LT$dioxus_signals..signal..SignalSubscriberDrop$LT$i64$C$generational_box..unsync..UnsyncStorage$GT$$GT$17h25b2886afdcde067E",
    "l___unnamed_21_harness-df4868ea1b5cadad.5qrn0xfhbv2rouh4f52itu55i.rcgu.o",
    "__ZN95_$LT$dioxus_signals..signal..Signal$LT$T$C$S$GT$$u20$as$u20$dioxus_signals..write..Writable$GT$19try_write_unchecked28_$u7b$$u7b$closure$u7d$$u7d$17he1b9191098da229cE",
    "__ZN4core6result19Result$LT$T$C$E$GT$3map17he4a924266e5e9d5aE",
    "__ZN95_$LT$dioxus_signals..signal..Signal$LT$T$C$S$GT$$u20$as$u20$dioxus_signals..write..Writable$GT$19try_write_unchecked17h4cba87c5ead1eb17E",
    "__ZN14dioxus_signals6global19Global$LT$T$C$R$GT$5write17h2228387cbea56f90E",
    "__ZN7harness11GlobalInner28_$u7b$$u7b$closure$u7d$$u7d$17hb42c5660948e5f3bE",
    "__ZN11dioxus_core6events26Callback$LT$Args$C$Ret$GT$3new28_$u7b$$u7b$closure$u7d$$u7d$17h6f96a569a9f12b13E",
    "l___unnamed_9_harness-df4868ea1b5cadad.egexdem49eejgynie32zwugcu.rcgu.o",
    "__ZN11dioxus_core6events26Callback$LT$Args$C$Ret$GT$3new17he13b8bd10ebc92d6E",
    "__ZN169_$LT$dioxus_core..events..Callback$LT$Args$C$Ret$GT$$u20$as$u20$dioxus_core..properties..SuperFrom$LT$Function$C$dioxus_core..events..MarkerWrapper$LT$Marker$GT$$GT$$GT$10super_from17h0f0cdd7a8468e271E",
    "__ZN69_$LT$T$u20$as$u20$dioxus_core..properties..SuperInto$LT$O$C$M$GT$$GT$10super_into17he799bb527ae17417E",
    "__ZN11dioxus_html6events5mouse7onclick28_$u7b$$u7b$closure$u7d$$u7d$17hcda8013b3fb0a7b1E",
    "__ZN11dioxus_core16generational_box10with_owner17hb0ca740788bcf0beE",
    "__ZN11dioxus_html6events5mouse7onclick17hcc75453cf267d2c1E",
    "__ZN11dioxus_html6events5mouse7onclick26call_with_explicit_closure17hc65524ea0f855dd4E",
    "__ZN7harness11GlobalInner17h56fe43aa3656219bE",
    "__ZN4core3ops8function2Fn4call17h3c8f851ee4dd175bE",
    "__ZN119_$LT$F$u20$as$u20$dioxus_core..properties..ComponentFunction$LT$$LP$$RP$$C$dioxus_core..properties..EmptyMarker$GT$$GT$7rebuild17hf7f1250efa3fb04cE",
    "__ZN100_$LT$dioxus_core..any_props..VProps$LT$F$C$P$C$M$GT$$u20$as$u20$dioxus_core..any_props..AnyProps$GT$6render28_$u7b$$u7b$closure$u7d$$u7d$17h025de8e22280b207E",
    "__ZN4core3ops8function6FnOnce9call_once17h371dcf20a99f261bE",
    "__ZN115_$LT$core..panic..unwind_safe..AssertUnwindSafe$LT$F$GT$$u20$as$u20$core..ops..function..FnOnce$LT$$LP$$RP$$GT$$GT$9call_once17h25a92dc564e3d7ffE",
    "__ZN3std9panicking3try7do_call17ha023efa9fb2ba8f7E",
    "__ZN3std5panic12catch_unwind17h48b71dec49934bf1E",
    "__ZN100_$LT$dioxus_core..any_props..VProps$LT$F$C$P$C$M$GT$$u20$as$u20$dioxus_core..any_props..AnyProps$GT$6render17h543a97c06bfefa3bE",
    "l___unnamed_4_harness-df4868ea1b5cadad.e382ndox9j839chz9esswif6u.rcgu.o",
    "__ZN100_$LT$dioxus_core..any_props..VProps$LT$F$C$P$C$M$GT$$u20$as$u20$dioxus_core..any_props..AnyProps$GT$9duplicate17h675ac73f4925ce25E",
    "l___unnamed_4_harness-df4868ea1b5cadad.c6wmz0dxwkc7r3o02wr81u9oy.rcgu.o",
    "__ZN11dioxus_core5nodes10VComponent3new17h993f8b3d9eb93954E",
    "__ZN11dioxus_core10properties10Properties15into_vcomponent17h965196ec13444056E",
    "__ZN7harness5Child17h2b32aeaba0b4c00dE",
    "__ZN4core3ops8function2Fn4call17hf86b26e1f09dbfc5E",
    "__ZN73_$LT$F$u20$as$u20$dioxus_core..properties..ComponentFunction$LT$P$GT$$GT$7rebuild17hdcc2e237eec08339E",
    "__ZN100_$LT$dioxus_core..any_props..VProps$LT$F$C$P$C$M$GT$$u20$as$u20$dioxus_core..any_props..AnyProps$GT$6render28_$u7b$$u7b$closure$u7d$$u7d$17hfbf53ec21013c460E",
    "__ZN4core3ops8function6FnOnce9call_once17hb1250f82ab822998E",
    "__ZN115_$LT$core..panic..unwind_safe..AssertUnwindSafe$LT$F$GT$$u20$as$u20$core..ops..function..FnOnce$LT$$LP$$RP$$GT$$GT$9call_once17h156df01ab880499cE",
    "__ZN3std9panicking3try7do_call17h12b00f5c1afca0e5E",
    "__ZN3std5panic12catch_unwind17h9623dc210b33032cE",
    "__ZN100_$LT$dioxus_core..any_props..VProps$LT$F$C$P$C$M$GT$$u20$as$u20$dioxus_core..any_props..AnyProps$GT$6render17h724478bd10ae45abE",
    "l___unnamed_8_harness-df4868ea1b5cadad.e382ndox9j839chz9esswif6u.rcgu.o",
    "__ZN100_$LT$dioxus_core..any_props..VProps$LT$F$C$P$C$M$GT$$u20$as$u20$dioxus_core..any_props..AnyProps$GT$9duplicate17hbcc315160800576aE",
    "l___unnamed_2_harness-df4868ea1b5cadad.c6wmz0dxwkc7r3o02wr81u9oy.rcgu.o",
    "__ZN11dioxus_core5nodes10VComponent3new17h64d3a0812e77f0edE",
    "__ZN11dioxus_core10properties10Properties15into_vcomponent17h7753673354bc1edfE",
    "__ZN7harness13zoom_controls17h3a73844835917e06E",
    "__ZN4core3ops8function2Fn4call17heb220dff9cb64346E",
    "__ZN119_$LT$F$u20$as$u20$dioxus_core..properties..ComponentFunction$LT$$LP$$RP$$C$dioxus_core..properties..EmptyMarker$GT$$GT$7rebuild17h1485b718be4dcc97E",
    "__ZN100_$LT$dioxus_core..any_props..VProps$LT$F$C$P$C$M$GT$$u20$as$u20$dioxus_core..any_props..AnyProps$GT$6render28_$u7b$$u7b$closure$u7d$$u7d$17h5f5c31c2c4fcd3edE",
    "__ZN4core3ops8function6FnOnce9call_once17haf610c889d773240E",
    "__ZN115_$LT$core..panic..unwind_safe..AssertUnwindSafe$LT$F$GT$$u20$as$u20$core..ops..function..FnOnce$LT$$LP$$RP$$GT$$GT$9call_once17he0621d6d235d0c08E",
    "__ZN3std9panicking3try7do_call17h8e7a94c382a5e60cE",
    "__ZN3std5panic12catch_unwind17h1f6291afe955bbfcE",
    "__ZN100_$LT$dioxus_core..any_props..VProps$LT$F$C$P$C$M$GT$$u20$as$u20$dioxus_core..any_props..AnyProps$GT$6render17h45480eba660d5148E",
    "l___unnamed_7_harness-df4868ea1b5cadad.c6wmz0dxwkc7r3o02wr81u9oy.rcgu.o",
    "__ZN11dioxus_core5nodes10VComponent3new17hcaaa6729c16dc137E",
    "__ZN11dioxus_core10properties10Properties15into_vcomponent17h79bafc80aea2aab7E",
    "___hotreload_start_app",
    "__ZN7harness3app17h400735d18e59eec4E",
    "__ZN7harness4main17h4654d77b3f37379bE",
    "_main",
]
__ZN4core3ptr47drop_in_place$LT$core..cell..Ref$LT$i64$GT$$GT$17h2a905760e975d6b5E
[
    "__ZN4core3ptr47drop_in_place$LT$core..cell..Ref$LT$i64$GT$$GT$17h2a905760e975d6b5E",
    "__ZN4core3ptr100drop_in_place$LT$generational_box..references..GenerationalRef$LT$core..cell..Ref$LT$i64$GT$$GT$$GT$17he0d124774cca5bf1E",
    "__ZN14dioxus_signals4read8Readable4with17h40ffefba83cf26acE",
    "__ZN14dioxus_signals6global6signal130_$LT$impl$u20$core..fmt..Display$u20$for$u20$dioxus_signals..global..Global$LT$dioxus_signals..signal..Signal$LT$T$GT$$C$T$GT$$GT$3fmt17h9bae2be454d81459E",
    "__ZN14dioxus_signals6global6signal130_$LT$impl$u20$core..fmt..Display$u20$for$u20$dioxus_signals..global..Global$LT$dioxus_signals..signal..Signal$LT$T$GT$$C$T$GT$$GT$33fmt$u7b$$u7b$reify.shim$u7d$$u7d$17h6614528e6ee54eebE",
    "__ZN7harness11GlobalInner17h56fe43aa3656219bE",
    "__ZN4core3ops8function2Fn4call17h3c8f851ee4dd175bE",
    "__ZN119_$LT$F$u20$as$u20$dioxus_core..properties..ComponentFunction$LT$$LP$$RP$$C$dioxus_core..properties..EmptyMarker$GT$$GT$7rebuild17hf7f1250efa3fb04cE",
    "__ZN100_$LT$dioxus_core..any_props..VProps$LT$F$C$P$C$M$GT$$u20$as$u20$dioxus_core..any_props..AnyProps$GT$6render28_$u7b$$u7b$closure$u7d$$u7d$17h025de8e22280b207E",
    "__ZN4core3ops8function6FnOnce9call_once17h371dcf20a99f261bE",
    "__ZN115_$LT$core..panic..unwind_safe..AssertUnwindSafe$LT$F$GT$$u20$as$u20$core..ops..function..FnOnce$LT$$LP$$RP$$GT$$GT$9call_once17h25a92dc564e3d7ffE",
    "__ZN3std9panicking3try7do_call17ha023efa9fb2ba8f7E",
    "__ZN3std5panic12catch_unwind17h48b71dec49934bf1E",
    "__ZN100_$LT$dioxus_core..any_props..VProps$LT$F$C$P$C$M$GT$$u20$as$u20$dioxus_core..any_props..AnyProps$GT$6render17h543a97c06bfefa3bE",
    "l___unnamed_4_harness-df4868ea1b5cadad.e382ndox9j839chz9esswif6u.rcgu.o",
    "__ZN100_$LT$dioxus_core..any_props..VProps$LT$F$C$P$C$M$GT$$u20$as$u20$dioxus_core..any_props..AnyProps$GT$9duplicate17h675ac73f4925ce25E",
    "l___unnamed_4_harness-df4868ea1b5cadad.c6wmz0dxwkc7r3o02wr81u9oy.rcgu.o",
    "__ZN11dioxus_core5nodes10VComponent3new17h993f8b3d9eb93954E",
    "__ZN11dioxus_core10properties10Properties15into_vcomponent17h965196ec13444056E",
    "__ZN7harness5Child17h2b32aeaba0b4c00dE",
    "__ZN4core3ops8function2Fn4call17hf86b26e1f09dbfc5E",
    "__ZN73_$LT$F$u20$as$u20$dioxus_core..properties..ComponentFunction$LT$P$GT$$GT$7rebuild17hdcc2e237eec08339E",
    "__ZN100_$LT$dioxus_core..any_props..VProps$LT$F$C$P$C$M$GT$$u20$as$u20$dioxus_core..any_props..AnyProps$GT$6render28_$u7b$$u7b$closure$u7d$$u7d$17hfbf53ec21013c460E",
    "__ZN4core3ops8function6FnOnce9call_once17hb1250f82ab822998E",
    "__ZN115_$LT$core..panic..unwind_safe..AssertUnwindSafe$LT$F$GT$$u20$as$u20$core..ops..function..FnOnce$LT$$LP$$RP$$GT$$GT$9call_once17h156df01ab880499cE",
    "__ZN3std9panicking3try7do_call17h12b00f5c1afca0e5E",
    "__ZN3std5panic12catch_unwind17h9623dc210b33032cE",
    "__ZN100_$LT$dioxus_core..any_props..VProps$LT$F$C$P$C$M$GT$$u20$as$u20$dioxus_core..any_props..AnyProps$GT$6render17h724478bd10ae45abE",
    "l___unnamed_8_harness-df4868ea1b5cadad.e382ndox9j839chz9esswif6u.rcgu.o",
    "__ZN100_$LT$dioxus_core..any_props..VProps$LT$F$C$P$C$M$GT$$u20$as$u20$dioxus_core..any_props..AnyProps$GT$9duplicate17hbcc315160800576aE",
    "l___unnamed_2_harness-df4868ea1b5cadad.c6wmz0dxwkc7r3o02wr81u9oy.rcgu.o",
    "__ZN11dioxus_core5nodes10VComponent3new17h64d3a0812e77f0edE",
    "__ZN11dioxus_core10properties10Properties15into_vcomponent17h7753673354bc1edfE",
    "__ZN7harness13zoom_controls17h3a73844835917e06E",
    "__ZN4core3ops8function2Fn4call17heb220dff9cb64346E",
    "__ZN119_$LT$F$u20$as$u20$dioxus_core..properties..ComponentFunction$LT$$LP$$RP$$C$dioxus_core..properties..EmptyMarker$GT$$GT$7rebuild17h1485b718be4dcc97E",
    "__ZN100_$LT$dioxus_core..any_props..VProps$LT$F$C$P$C$M$GT$$u20$as$u20$dioxus_core..any_props..AnyProps$GT$6render28_$u7b$$u7b$closure$u7d$$u7d$17h5f5c31c2c4fcd3edE",
    "__ZN4core3ops8function6FnOnce9call_once17haf610c889d773240E",
    "__ZN115_$LT$core..panic..unwind_safe..AssertUnwindSafe$LT$F$GT$$u20$as$u20$core..ops..function..FnOnce$LT$$LP$$RP$$GT$$GT$9call_once17he0621d6d235d0c08E",
    "__ZN3std9panicking3try7do_call17h8e7a94c382a5e60cE",
    "__ZN3std5panic12catch_unwind17h1f6291afe955bbfcE",
    "__ZN100_$LT$dioxus_core..any_props..VProps$LT$F$C$P$C$M$GT$$u20$as$u20$dioxus_core..any_props..AnyProps$GT$6render17h45480eba660d5148E",
    "l___unnamed_7_harness-df4868ea1b5cadad.c6wmz0dxwkc7r3o02wr81u9oy.rcgu.o",
    "__ZN11dioxus_core5nodes10VComponent3new17hcaaa6729c16dc137E",
    "__ZN11dioxus_core10properties10Properties15into_vcomponent17h79bafc80aea2aab7E",
    "___hotreload_start_app",
    "__ZN7harness3app17h400735d18e59eec4E",
    "__ZN7harness4main17h4654d77b3f37379bE",
    "_main",
]
ltmp3_harness-df4868ea1b5cadad.b49gcyyo2jyzfqsfrr79kgnha.rcgu.o
[]
ltmp7_harness-df4868ea1b5cadad.3c2tm4jj9yl4umdxtid0wfenb.rcgu.o
[]
__ZN94_$LT$generational_box..unsync..UnsyncStorage$u20$as$u20$generational_box..Storage$LT$T$GT$$GT$9try_write17hbf4c3a686420c2f4E
[
    "__ZN94_$LT$generational_box..unsync..UnsyncStorage$u20$as$u20$generational_box..Storage$LT$T$GT$$GT$9try_write17hbf4c3a686420c2f4E",
    "__ZN16generational_box28GenerationalPointer$LT$S$GT$9try_write17hae0222b657cc2ac8E",
    "__ZN16generational_box28GenerationalBox$LT$T$C$S$GT$9try_write17hcf63fbb652119ae9E",
    "__ZN102_$LT$dioxus_signals..copy_value..CopyValue$LT$T$C$S$GT$$u20$as$u20$dioxus_signals..write..Writable$GT$19try_write_unchecked17h42184b5e72236e49E",
    "__ZN95_$LT$dioxus_signals..signal..Signal$LT$T$C$S$GT$$u20$as$u20$dioxus_signals..write..Writable$GT$19try_write_unchecked17h4cba87c5ead1eb17E",
    "__ZN14dioxus_signals6global19Global$LT$T$C$R$GT$5write17h2228387cbea56f90E",
    "__ZN7harness11GlobalInner28_$u7b$$u7b$closure$u7d$$u7d$17hb42c5660948e5f3bE",
    "__ZN11dioxus_core6events26Callback$LT$Args$C$Ret$GT$3new28_$u7b$$u7b$closure$u7d$$u7d$17h6f96a569a9f12b13E",
    "l___unnamed_9_harness-df4868ea1b5cadad.egexdem49eejgynie32zwugcu.rcgu.o",
    "__ZN11dioxus_core6events26Callback$LT$Args$C$Ret$GT$3new17he13b8bd10ebc92d6E",
    "__ZN169_$LT$dioxus_core..events..Callback$LT$Args$C$Ret$GT$$u20$as$u20$dioxus_core..properties..SuperFrom$LT$Function$C$dioxus_core..events..MarkerWrapper$LT$Marker$GT$$GT$$GT$10super_from17h0f0cdd7a8468e271E",
    "__ZN69_$LT$T$u20$as$u20$dioxus_core..properties..SuperInto$LT$O$C$M$GT$$GT$10super_into17he799bb527ae17417E",
    "__ZN11dioxus_html6events5mouse7onclick28_$u7b$$u7b$closure$u7d$$u7d$17hcda8013b3fb0a7b1E",
    "__ZN11dioxus_core16generational_box10with_owner17hb0ca740788bcf0beE",
    "__ZN11dioxus_html6events5mouse7onclick17hcc75453cf267d2c1E",
    "__ZN11dioxus_html6events5mouse7onclick26call_with_explicit_closure17hc65524ea0f855dd4E",
    "__ZN7harness11GlobalInner17h56fe43aa3656219bE",
    "__ZN4core3ops8function2Fn4call17h3c8f851ee4dd175bE",
    "__ZN119_$LT$F$u20$as$u20$dioxus_core..properties..ComponentFunction$LT$$LP$$RP$$C$dioxus_core..properties..EmptyMarker$GT$$GT$7rebuild17hf7f1250efa3fb04cE",
    "__ZN100_$LT$dioxus_core..any_props..VProps$LT$F$C$P$C$M$GT$$u20$as$u20$dioxus_core..any_props..AnyProps$GT$6render28_$u7b$$u7b$closure$u7d$$u7d$17h025de8e22280b207E",
    "__ZN4core3ops8function6FnOnce9call_once17h371dcf20a99f261bE",
    "__ZN115_$LT$core..panic..unwind_safe..AssertUnwindSafe$LT$F$GT$$u20$as$u20$core..ops..function..FnOnce$LT$$LP$$RP$$GT$$GT$9call_once17h25a92dc564e3d7ffE",
    "__ZN3std9panicking3try7do_call17ha023efa9fb2ba8f7E",
    "__ZN3std5panic12catch_unwind17h48b71dec49934bf1E",
    "__ZN100_$LT$dioxus_core..any_props..VProps$LT$F$C$P$C$M$GT$$u20$as$u20$dioxus_core..any_props..AnyProps$GT$6render17h543a97c06bfefa3bE",
    "l___unnamed_4_harness-df4868ea1b5cadad.e382ndox9j839chz9esswif6u.rcgu.o",
    "__ZN100_$LT$dioxus_core..any_props..VProps$LT$F$C$P$C$M$GT$$u20$as$u20$dioxus_core..any_props..AnyProps$GT$9duplicate17h675ac73f4925ce25E",
    "l___unnamed_4_harness-df4868ea1b5cadad.c6wmz0dxwkc7r3o02wr81u9oy.rcgu.o",
    "__ZN11dioxus_core5nodes10VComponent3new17h993f8b3d9eb93954E",
    "__ZN11dioxus_core10properties10Properties15into_vcomponent17h965196ec13444056E",
    "__ZN7harness5Child17h2b32aeaba0b4c00dE",
    "__ZN4core3ops8function2Fn4call17hf86b26e1f09dbfc5E",
    "__ZN73_$LT$F$u20$as$u20$dioxus_core..properties..ComponentFunction$LT$P$GT$$GT$7rebuild17hdcc2e237eec08339E",
    "__ZN100_$LT$dioxus_core..any_props..VProps$LT$F$C$P$C$M$GT$$u20$as$u20$dioxus_core..any_props..AnyProps$GT$6render28_$u7b$$u7b$closure$u7d$$u7d$17hfbf53ec21013c460E",
    "__ZN4core3ops8function6FnOnce9call_once17hb1250f82ab822998E",
    "__ZN115_$LT$core..panic..unwind_safe..AssertUnwindSafe$LT$F$GT$$u20$as$u20$core..ops..function..FnOnce$LT$$LP$$RP$$GT$$GT$9call_once17h156df01ab880499cE",
    "__ZN3std9panicking3try7do_call17h12b00f5c1afca0e5E",
    "__ZN3std5panic12catch_unwind17h9623dc210b33032cE",
    "__ZN100_$LT$dioxus_core..any_props..VProps$LT$F$C$P$C$M$GT$$u20$as$u20$dioxus_core..any_props..AnyProps$GT$6render17h724478bd10ae45abE",
    "l___unnamed_8_harness-df4868ea1b5cadad.e382ndox9j839chz9esswif6u.rcgu.o",
    "__ZN100_$LT$dioxus_core..any_props..VProps$LT$F$C$P$C$M$GT$$u20$as$u20$dioxus_core..any_props..AnyProps$GT$9duplicate17hbcc315160800576aE",
    "l___unnamed_2_harness-df4868ea1b5cadad.c6wmz0dxwkc7r3o02wr81u9oy.rcgu.o",
    "__ZN11dioxus_core5nodes10VComponent3new17h64d3a0812e77f0edE",
    "__ZN11dioxus_core10properties10Properties15into_vcomponent17h7753673354bc1edfE",
    "__ZN7harness13zoom_controls17h3a73844835917e06E",
    "__ZN4core3ops8function2Fn4call17heb220dff9cb64346E",
    "__ZN119_$LT$F$u20$as$u20$dioxus_core..properties..ComponentFunction$LT$$LP$$RP$$C$dioxus_core..properties..EmptyMarker$GT$$GT$7rebuild17h1485b718be4dcc97E",
    "__ZN100_$LT$dioxus_core..any_props..VProps$LT$F$C$P$C$M$GT$$u20$as$u20$dioxus_core..any_props..AnyProps$GT$6render28_$u7b$$u7b$closure$u7d$$u7d$17h5f5c31c2c4fcd3edE",
    "__ZN4core3ops8function6FnOnce9call_once17haf610c889d773240E",
    "__ZN115_$LT$core..panic..unwind_safe..AssertUnwindSafe$LT$F$GT$$u20$as$u20$core..ops..function..FnOnce$LT$$LP$$RP$$GT$$GT$9call_once17he0621d6d235d0c08E",
    "__ZN3std9panicking3try7do_call17h8e7a94c382a5e60cE",
    "__ZN3std5panic12catch_unwind17h1f6291afe955bbfcE",
    "__ZN100_$LT$dioxus_core..any_props..VProps$LT$F$C$P$C$M$GT$$u20$as$u20$dioxus_core..any_props..AnyProps$GT$6render17h45480eba660d5148E",
    "l___unnamed_7_harness-df4868ea1b5cadad.c6wmz0dxwkc7r3o02wr81u9oy.rcgu.o",
    "__ZN11dioxus_core5nodes10VComponent3new17hcaaa6729c16dc137E",
    "__ZN11dioxus_core10properties10Properties15into_vcomponent17h79bafc80aea2aab7E",
    "___hotreload_start_app",
    "__ZN7harness3app17h400735d18e59eec4E",
    "__ZN7harness4main17h4654d77b3f37379bE",
    "_main",
]
ltmp6_harness-df4868ea1b5cadad.a64hlspyskaofkyts3cee93he.rcgu.o
[]
l___unnamed_25_harness-df4868ea1b5cadad.a64hlspyskaofkyts3cee93he.rcgu.o
[
    "l___unnamed_25_harness-df4868ea1b5cadad.a64hlspyskaofkyts3cee93he.rcgu.o",
    "l___unnamed_11_harness-df4868ea1b5cadad.a64hlspyskaofkyts3cee93he.rcgu.o",
    "__ZN14dioxus_signals8warnings41__signal_read_and_write_in_reactive_scope23__Callable$LT$T$C$S$GT$16__run_if_enabled28_$u7b$$u7b$closure$u7d$$u7d$39signal_read_and_write_in_reactive_scope17h221e571ef7520107E",
    "__ZN14dioxus_signals8warnings41__signal_read_and_write_in_reactive_scope23__Callable$LT$T$C$S$GT$16__run_if_enabled28_$u7b$$u7b$closure$u7d$$u7d$17h9b61e901979ebe37E",
    "__ZN8warnings8warnings9WarningId10if_enabled17h1e1ada791f843c4bE",
    "__ZN14dioxus_signals8warnings41__signal_read_and_write_in_reactive_scope23__Callable$LT$T$C$S$GT$16__run_if_enabled17hbe10b8bfcdd507adE",
    "l___unnamed_1_harness-df4868ea1b5cadad.a64hlspyskaofkyts3cee93he.rcgu.o",
    "__ZN136_$LT$dioxus_signals..warnings..__signal_read_and_write_in_reactive_scope..__Callable$LT$T$C$S$GT$$u20$as$u20$core..ops..deref..Deref$GT$5deref17h12fc0a983cda1955E",
    "__ZN99_$LT$dioxus_signals..signal..SignalSubscriberDrop$LT$T$C$S$GT$$u20$as$u20$core..ops..drop..Drop$GT$4drop17hcae7f731b4ba3f74E",
    "__ZN4core3ptr159drop_in_place$LT$dioxus_signals..signal..SignalSubscriberDrop$LT$alloc..vec..Vec$LT$alloc..string..String$GT$$C$generational_box..unsync..UnsyncStorage$GT$$GT$17hd180e51942450b51E",
    "l___unnamed_20_harness-df4868ea1b5cadad.5qrn0xfhbv2rouh4f52itu55i.rcgu.o",
    "__ZN95_$LT$dioxus_signals..signal..Signal$LT$T$C$S$GT$$u20$as$u20$dioxus_signals..write..Writable$GT$19try_write_unchecked28_$u7b$$u7b$closure$u7d$$u7d$17hc7cbd98efeef2228E",
    "__ZN4core6result19Result$LT$T$C$E$GT$3map17h209be385f2abb021E",
    "__ZN95_$LT$dioxus_signals..signal..Signal$LT$T$C$S$GT$$u20$as$u20$dioxus_signals..write..Writable$GT$19try_write_unchecked17h8e8e363f48a63db6E",
    "__ZN14dioxus_signals5write8Writable9try_write17h9fa331eedb586fe4E",
    "__ZN14dioxus_signals5write8Writable5write17h9a26affdc2ccd616E",
    "__ZN7harness12AddingLogger28_$u7b$$u7b$closure$u7d$$u7d$17h7550ef02f1861627E",
    "__ZN7harness12AddingLogger28_$u7b$$u7b$closure$u7d$$u7d$17hd8e6be41b9a84583E",
    "__ZN11dioxus_core6events26Callback$LT$Args$C$Ret$GT$3new28_$u7b$$u7b$closure$u7d$$u7d$17hf771f51420dabaaeE",
    "l___unnamed_11_harness-df4868ea1b5cadad.egexdem49eejgynie32zwugcu.rcgu.o",
    "__ZN11dioxus_core6events26Callback$LT$Args$C$Ret$GT$3new17hf49a7ba233cfcb4bE",
    "__ZN169_$LT$dioxus_core..events..Callback$LT$Args$C$Ret$GT$$u20$as$u20$dioxus_core..properties..SuperFrom$LT$Function$C$dioxus_core..events..MarkerWrapper$LT$Marker$GT$$GT$$GT$10super_from17ha0eb73359dcf2b5fE",
    "__ZN69_$LT$T$u20$as$u20$dioxus_core..properties..SuperInto$LT$O$C$M$GT$$GT$10super_into17he725d2a59af62b36E",
    "__ZN11dioxus_html6events5mouse7onclick28_$u7b$$u7b$closure$u7d$$u7d$17h088593d399a17bb2E",
    "__ZN11dioxus_core16generational_box10with_owner17ha770f68327e79831E",
    "__ZN11dioxus_html6events5mouse7onclick17h44f66615c6057071E",
    "__ZN11dioxus_html6events5mouse7onclick26call_with_explicit_closure17h85538a841367551bE",
    "__ZN7harness12AddingLogger17h283889c677656013E",
    "__ZN4core3ops8function2Fn4call17hc1d984302f90d6b5E",
    "__ZN119_$LT$F$u20$as$u20$dioxus_core..properties..ComponentFunction$LT$$LP$$RP$$C$dioxus_core..properties..EmptyMarker$GT$$GT$7rebuild17ha7658b769122d22aE",
    "__ZN100_$LT$dioxus_core..any_props..VProps$LT$F$C$P$C$M$GT$$u20$as$u20$dioxus_core..any_props..AnyProps$GT$6render28_$u7b$$u7b$closure$u7d$$u7d$17h90af567fab99d4f7E",
    "__ZN4core3ops8function6FnOnce9call_once17he98e8829e2ade214E",
    "__ZN115_$LT$core..panic..unwind_safe..AssertUnwindSafe$LT$F$GT$$u20$as$u20$core..ops..function..FnOnce$LT$$LP$$RP$$GT$$GT$9call_once17h8b675a067d6b378fE",
    "__ZN3std9panicking3try7do_call17h042d1df4c42c9398E",
    "__ZN3std5panic12catch_unwind17hebad81528f98f478E",
    "__ZN100_$LT$dioxus_core..any_props..VProps$LT$F$C$P$C$M$GT$$u20$as$u20$dioxus_core..any_props..AnyProps$GT$6render17h6d3194045a8447dcE",
    "l___unnamed_6_harness-df4868ea1b5cadad.c6wmz0dxwkc7r3o02wr81u9oy.rcgu.o",
    "__ZN11dioxus_core5nodes10VComponent3new17hc4f98269bb25b058E",
    "__ZN11dioxus_core10properties10Properties15into_vcomponent17had2a4ffa139fd691E",
    "__ZN7harness5Child17h2b32aeaba0b4c00dE",
    "__ZN4core3ops8function2Fn4call17hf86b26e1f09dbfc5E",
    "__ZN73_$LT$F$u20$as$u20$dioxus_core..properties..ComponentFunction$LT$P$GT$$GT$7rebuild17hdcc2e237eec08339E",
    "__ZN100_$LT$dioxus_core..any_props..VProps$LT$F$C$P$C$M$GT$$u20$as$u20$dioxus_core..any_props..AnyProps$GT$6render28_$u7b$$u7b$closure$u7d$$u7d$17hfbf53ec21013c460E",
    "__ZN4core3ops8function6FnOnce9call_once17hb1250f82ab822998E",
    "__ZN115_$LT$core..panic..unwind_safe..AssertUnwindSafe$LT$F$GT$$u20$as$u20$core..ops..function..FnOnce$LT$$LP$$RP$$GT$$GT$9call_once17h156df01ab880499cE",
    "__ZN3std9panicking3try7do_call17h12b00f5c1afca0e5E",
    "__ZN3std5panic12catch_unwind17h9623dc210b33032cE",
    "__ZN100_$LT$dioxus_core..any_props..VProps$LT$F$C$P$C$M$GT$$u20$as$u20$dioxus_core..any_props..AnyProps$GT$6render17h724478bd10ae45abE",
    "l___unnamed_8_harness-df4868ea1b5cadad.e382ndox9j839chz9esswif6u.rcgu.o",
    "__ZN100_$LT$dioxus_core..any_props..VProps$LT$F$C$P$C$M$GT$$u20$as$u20$dioxus_core..any_props..AnyProps$GT$9duplicate17hbcc315160800576aE",
    "l___unnamed_2_harness-df4868ea1b5cadad.c6wmz0dxwkc7r3o02wr81u9oy.rcgu.o",
    "__ZN11dioxus_core5nodes10VComponent3new17h64d3a0812e77f0edE",
    "__ZN11dioxus_core10properties10Properties15into_vcomponent17h7753673354bc1edfE",
    "__ZN7harness13zoom_controls17h3a73844835917e06E",
    "__ZN4core3ops8function2Fn4call17heb220dff9cb64346E",
    "__ZN119_$LT$F$u20$as$u20$dioxus_core..properties..ComponentFunction$LT$$LP$$RP$$C$dioxus_core..properties..EmptyMarker$GT$$GT$7rebuild17h1485b718be4dcc97E",
    "__ZN100_$LT$dioxus_core..any_props..VProps$LT$F$C$P$C$M$GT$$u20$as$u20$dioxus_core..any_props..AnyProps$GT$6render28_$u7b$$u7b$closure$u7d$$u7d$17h5f5c31c2c4fcd3edE",
    "__ZN4core3ops8function6FnOnce9call_once17haf610c889d773240E",
    "__ZN115_$LT$core..panic..unwind_safe..AssertUnwindSafe$LT$F$GT$$u20$as$u20$core..ops..function..FnOnce$LT$$LP$$RP$$GT$$GT$9call_once17he0621d6d235d0c08E",
    "__ZN3std9panicking3try7do_call17h8e7a94c382a5e60cE",
    "__ZN3std5panic12catch_unwind17h1f6291afe955bbfcE",
    "__ZN100_$LT$dioxus_core..any_props..VProps$LT$F$C$P$C$M$GT$$u20$as$u20$dioxus_core..any_props..AnyProps$GT$6render17h45480eba660d5148E",
    "l___unnamed_7_harness-df4868ea1b5cadad.c6wmz0dxwkc7r3o02wr81u9oy.rcgu.o",
    "__ZN11dioxus_core5nodes10VComponent3new17hcaaa6729c16dc137E",
    "__ZN11dioxus_core10properties10Properties15into_vcomponent17h79bafc80aea2aab7E",
    "___hotreload_start_app",
    "__ZN7harness3app17h400735d18e59eec4E",
    "__ZN7harness4main17h4654d77b3f37379bE",
    "_main",
]
__ZN14dioxus_signals8warnings20__copy_value_hoisted23__Callable$LT$T$C$S$GT$16__run_if_enabled28_$u7b$$u7b$closure$u7d$$u7d$18copy_value_hoisted17hdc3f663266d65af9E
[
    "__ZN14dioxus_signals8warnings20__copy_value_hoisted23__Callable$LT$T$C$S$GT$16__run_if_enabled28_$u7b$$u7b$closure$u7d$$u7d$18copy_value_hoisted17hdc3f663266d65af9E",
    "__ZN14dioxus_signals8warnings20__copy_value_hoisted23__Callable$LT$T$C$S$GT$16__run_if_enabled28_$u7b$$u7b$closure$u7d$$u7d$17h94d7e34ad74fc998E",
    "__ZN8warnings8warnings9WarningId10if_enabled17h5f0d62ccc9013d6fE",
    "__ZN14dioxus_signals8warnings20__copy_value_hoisted23__Callable$LT$T$C$S$GT$16__run_if_enabled17h1ce8217170b11e33E",
    "l___unnamed_2_harness-df4868ea1b5cadad.57p783wz0mdr6vmpci89msrb7.rcgu.o",
    "__ZN115_$LT$dioxus_signals..warnings..__copy_value_hoisted..__Callable$LT$T$C$S$GT$$u20$as$u20$core..ops..deref..Deref$GT$5deref17h6629e18bf8ecf39dE",
    "__ZN102_$LT$dioxus_signals..copy_value..CopyValue$LT$T$C$S$GT$$u20$as$u20$dioxus_signals..write..Writable$GT$19try_write_unchecked17h5155f1cf08aee7f1E",
    "__ZN95_$LT$dioxus_signals..signal..Signal$LT$T$C$S$GT$$u20$as$u20$dioxus_signals..write..Writable$GT$19try_write_unchecked17h8e8e363f48a63db6E",
    "__ZN14dioxus_signals5write8Writable9try_write17h9fa331eedb586fe4E",
    "__ZN14dioxus_signals5write8Writable5write17h9a26affdc2ccd616E",
    "__ZN7harness12AddingLogger28_$u7b$$u7b$closure$u7d$$u7d$17h7550ef02f1861627E",
    "__ZN7harness12AddingLogger28_$u7b$$u7b$closure$u7d$$u7d$17hd8e6be41b9a84583E",
    "__ZN11dioxus_core6events26Callback$LT$Args$C$Ret$GT$3new28_$u7b$$u7b$closure$u7d$$u7d$17hf771f51420dabaaeE",
    "l___unnamed_11_harness-df4868ea1b5cadad.egexdem49eejgynie32zwugcu.rcgu.o",
    "__ZN11dioxus_core6events26Callback$LT$Args$C$Ret$GT$3new17hf49a7ba233cfcb4bE",
    "__ZN169_$LT$dioxus_core..events..Callback$LT$Args$C$Ret$GT$$u20$as$u20$dioxus_core..properties..SuperFrom$LT$Function$C$dioxus_core..events..MarkerWrapper$LT$Marker$GT$$GT$$GT$10super_from17ha0eb73359dcf2b5fE",
    "__ZN69_$LT$T$u20$as$u20$dioxus_core..properties..SuperInto$LT$O$C$M$GT$$GT$10super_into17he725d2a59af62b36E",
    "__ZN11dioxus_html6events5mouse7onclick28_$u7b$$u7b$closure$u7d$$u7d$17h088593d399a17bb2E",
    "__ZN11dioxus_core16generational_box10with_owner17ha770f68327e79831E",
    "__ZN11dioxus_html6events5mouse7onclick17h44f66615c6057071E",
    "__ZN11dioxus_html6events5mouse7onclick26call_with_explicit_closure17h85538a841367551bE",
    "__ZN7harness12AddingLogger17h283889c677656013E",
    "__ZN4core3ops8function2Fn4call17hc1d984302f90d6b5E",
    "__ZN119_$LT$F$u20$as$u20$dioxus_core..properties..ComponentFunction$LT$$LP$$RP$$C$dioxus_core..properties..EmptyMarker$GT$$GT$7rebuild17ha7658b769122d22aE",
    "__ZN100_$LT$dioxus_core..any_props..VProps$LT$F$C$P$C$M$GT$$u20$as$u20$dioxus_core..any_props..AnyProps$GT$6render28_$u7b$$u7b$closure$u7d$$u7d$17h90af567fab99d4f7E",
    "__ZN4core3ops8function6FnOnce9call_once17he98e8829e2ade214E",
    "__ZN115_$LT$core..panic..unwind_safe..AssertUnwindSafe$LT$F$GT$$u20$as$u20$core..ops..function..FnOnce$LT$$LP$$RP$$GT$$GT$9call_once17h8b675a067d6b378fE",
    "__ZN3std9panicking3try7do_call17h042d1df4c42c9398E",
    "__ZN3std5panic12catch_unwind17hebad81528f98f478E",
    "__ZN100_$LT$dioxus_core..any_props..VProps$LT$F$C$P$C$M$GT$$u20$as$u20$dioxus_core..any_props..AnyProps$GT$6render17h6d3194045a8447dcE",
    "l___unnamed_6_harness-df4868ea1b5cadad.c6wmz0dxwkc7r3o02wr81u9oy.rcgu.o",
    "__ZN11dioxus_core5nodes10VComponent3new17hc4f98269bb25b058E",
    "__ZN11dioxus_core10properties10Properties15into_vcomponent17had2a4ffa139fd691E",
    "__ZN7harness5Child17h2b32aeaba0b4c00dE",
    "__ZN4core3ops8function2Fn4call17hf86b26e1f09dbfc5E",
    "__ZN73_$LT$F$u20$as$u20$dioxus_core..properties..ComponentFunction$LT$P$GT$$GT$7rebuild17hdcc2e237eec08339E",
    "__ZN100_$LT$dioxus_core..any_props..VProps$LT$F$C$P$C$M$GT$$u20$as$u20$dioxus_core..any_props..AnyProps$GT$6render28_$u7b$$u7b$closure$u7d$$u7d$17hfbf53ec21013c460E",
    "__ZN4core3ops8function6FnOnce9call_once17hb1250f82ab822998E",
    "__ZN115_$LT$core..panic..unwind_safe..AssertUnwindSafe$LT$F$GT$$u20$as$u20$core..ops..function..FnOnce$LT$$LP$$RP$$GT$$GT$9call_once17h156df01ab880499cE",
    "__ZN3std9panicking3try7do_call17h12b00f5c1afca0e5E",
    "__ZN3std5panic12catch_unwind17h9623dc210b33032cE",
    "__ZN100_$LT$dioxus_core..any_props..VProps$LT$F$C$P$C$M$GT$$u20$as$u20$dioxus_core..any_props..AnyProps$GT$6render17h724478bd10ae45abE",
    "l___unnamed_8_harness-df4868ea1b5cadad.e382ndox9j839chz9esswif6u.rcgu.o",
    "__ZN100_$LT$dioxus_core..any_props..VProps$LT$F$C$P$C$M$GT$$u20$as$u20$dioxus_core..any_props..AnyProps$GT$9duplicate17hbcc315160800576aE",
    "l___unnamed_2_harness-df4868ea1b5cadad.c6wmz0dxwkc7r3o02wr81u9oy.rcgu.o",
    "__ZN11dioxus_core5nodes10VComponent3new17h64d3a0812e77f0edE",
    "__ZN11dioxus_core10properties10Properties15into_vcomponent17h7753673354bc1edfE",
    "__ZN7harness13zoom_controls17h3a73844835917e06E",
    "__ZN4core3ops8function2Fn4call17heb220dff9cb64346E",
    "__ZN119_$LT$F$u20$as$u20$dioxus_core..properties..ComponentFunction$LT$$LP$$RP$$C$dioxus_core..properties..EmptyMarker$GT$$GT$7rebuild17h1485b718be4dcc97E",
    "__ZN100_$LT$dioxus_core..any_props..VProps$LT$F$C$P$C$M$GT$$u20$as$u20$dioxus_core..any_props..AnyProps$GT$6render28_$u7b$$u7b$closure$u7d$$u7d$17h5f5c31c2c4fcd3edE",
    "__ZN4core3ops8function6FnOnce9call_once17haf610c889d773240E",
    "__ZN115_$LT$core..panic..unwind_safe..AssertUnwindSafe$LT$F$GT$$u20$as$u20$core..ops..function..FnOnce$LT$$LP$$RP$$GT$$GT$9call_once17he0621d6d235d0c08E",
    "__ZN3std9panicking3try7do_call17h8e7a94c382a5e60cE",
    "__ZN3std5panic12catch_unwind17h1f6291afe955bbfcE",
    "__ZN100_$LT$dioxus_core..any_props..VProps$LT$F$C$P$C$M$GT$$u20$as$u20$dioxus_core..any_props..AnyProps$GT$6render17h45480eba660d5148E",
    "l___unnamed_7_harness-df4868ea1b5cadad.c6wmz0dxwkc7r3o02wr81u9oy.rcgu.o",
    "__ZN11dioxus_core5nodes10VComponent3new17hcaaa6729c16dc137E",
    "__ZN11dioxus_core10properties10Properties15into_vcomponent17h79bafc80aea2aab7E",
    "___hotreload_start_app",
    "__ZN7harness3app17h400735d18e59eec4E",
    "__ZN7harness4main17h4654d77b3f37379bE",
    "_main",
]
__ZN89_$LT$dioxus_signals..signal..Write$LT$T$C$S$GT$$u20$as$u20$core..ops..deref..DerefMut$GT$9deref_mut17h42fcccbbab308d63E
[
    "__ZN89_$LT$dioxus_signals..signal..Write$LT$T$C$S$GT$$u20$as$u20$core..ops..deref..DerefMut$GT$9deref_mut17h42fcccbbab308d63E",
    "__ZN7harness11GlobalInner28_$u7b$$u7b$closure$u7d$$u7d$17hb42c5660948e5f3bE",
    "__ZN11dioxus_core6events26Callback$LT$Args$C$Ret$GT$3new28_$u7b$$u7b$closure$u7d$$u7d$17h6f96a569a9f12b13E",
    "l___unnamed_9_harness-df4868ea1b5cadad.egexdem49eejgynie32zwugcu.rcgu.o",
    "__ZN11dioxus_core6events26Callback$LT$Args$C$Ret$GT$3new17he13b8bd10ebc92d6E",
    "__ZN169_$LT$dioxus_core..events..Callback$LT$Args$C$Ret$GT$$u20$as$u20$dioxus_core..properties..SuperFrom$LT$Function$C$dioxus_core..events..MarkerWrapper$LT$Marker$GT$$GT$$GT$10super_from17h0f0cdd7a8468e271E",
    "__ZN69_$LT$T$u20$as$u20$dioxus_core..properties..SuperInto$LT$O$C$M$GT$$GT$10super_into17he799bb527ae17417E",
    "__ZN11dioxus_html6events5mouse7onclick28_$u7b$$u7b$closure$u7d$$u7d$17hcda8013b3fb0a7b1E",
    "__ZN11dioxus_core16generational_box10with_owner17hb0ca740788bcf0beE",
    "__ZN11dioxus_html6events5mouse7onclick17hcc75453cf267d2c1E",
    "__ZN11dioxus_html6events5mouse7onclick26call_with_explicit_closure17hc65524ea0f855dd4E",
    "__ZN7harness11GlobalInner17h56fe43aa3656219bE",
    "__ZN4core3ops8function2Fn4call17h3c8f851ee4dd175bE",
    "__ZN119_$LT$F$u20$as$u20$dioxus_core..properties..ComponentFunction$LT$$LP$$RP$$C$dioxus_core..properties..EmptyMarker$GT$$GT$7rebuild17hf7f1250efa3fb04cE",
    "__ZN100_$LT$dioxus_core..any_props..VProps$LT$F$C$P$C$M$GT$$u20$as$u20$dioxus_core..any_props..AnyProps$GT$6render28_$u7b$$u7b$closure$u7d$$u7d$17h025de8e22280b207E",
    "__ZN4core3ops8function6FnOnce9call_once17h371dcf20a99f261bE",
    "__ZN115_$LT$core..panic..unwind_safe..AssertUnwindSafe$LT$F$GT$$u20$as$u20$core..ops..function..FnOnce$LT$$LP$$RP$$GT$$GT$9call_once17h25a92dc564e3d7ffE",
    "__ZN3std9panicking3try7do_call17ha023efa9fb2ba8f7E",
    "__ZN3std5panic12catch_unwind17h48b71dec49934bf1E",
    "__ZN100_$LT$dioxus_core..any_props..VProps$LT$F$C$P$C$M$GT$$u20$as$u20$dioxus_core..any_props..AnyProps$GT$6render17h543a97c06bfefa3bE",
    "l___unnamed_4_harness-df4868ea1b5cadad.e382ndox9j839chz9esswif6u.rcgu.o",
    "__ZN100_$LT$dioxus_core..any_props..VProps$LT$F$C$P$C$M$GT$$u20$as$u20$dioxus_core..any_props..AnyProps$GT$9duplicate17h675ac73f4925ce25E",
    "l___unnamed_4_harness-df4868ea1b5cadad.c6wmz0dxwkc7r3o02wr81u9oy.rcgu.o",
    "__ZN11dioxus_core5nodes10VComponent3new17h993f8b3d9eb93954E",
    "__ZN11dioxus_core10properties10Properties15into_vcomponent17h965196ec13444056E",
    "__ZN7harness5Child17h2b32aeaba0b4c00dE",
    "__ZN4core3ops8function2Fn4call17hf86b26e1f09dbfc5E",
    "__ZN73_$LT$F$u20$as$u20$dioxus_core..properties..ComponentFunction$LT$P$GT$$GT$7rebuild17hdcc2e237eec08339E",
    "__ZN100_$LT$dioxus_core..any_props..VProps$LT$F$C$P$C$M$GT$$u20$as$u20$dioxus_core..any_props..AnyProps$GT$6render28_$u7b$$u7b$closure$u7d$$u7d$17hfbf53ec21013c460E",
    "__ZN4core3ops8function6FnOnce9call_once17hb1250f82ab822998E",
    "__ZN115_$LT$core..panic..unwind_safe..AssertUnwindSafe$LT$F$GT$$u20$as$u20$core..ops..function..FnOnce$LT$$LP$$RP$$GT$$GT$9call_once17h156df01ab880499cE",
    "__ZN3std9panicking3try7do_call17h12b00f5c1afca0e5E",
    "__ZN3std5panic12catch_unwind17h9623dc210b33032cE",
    "__ZN100_$LT$dioxus_core..any_props..VProps$LT$F$C$P$C$M$GT$$u20$as$u20$dioxus_core..any_props..AnyProps$GT$6render17h724478bd10ae45abE",
    "l___unnamed_8_harness-df4868ea1b5cadad.e382ndox9j839chz9esswif6u.rcgu.o",
    "__ZN100_$LT$dioxus_core..any_props..VProps$LT$F$C$P$C$M$GT$$u20$as$u20$dioxus_core..any_props..AnyProps$GT$9duplicate17hbcc315160800576aE",
    "l___unnamed_2_harness-df4868ea1b5cadad.c6wmz0dxwkc7r3o02wr81u9oy.rcgu.o",
    "__ZN11dioxus_core5nodes10VComponent3new17h64d3a0812e77f0edE",
    "__ZN11dioxus_core10properties10Properties15into_vcomponent17h7753673354bc1edfE",
    "__ZN7harness13zoom_controls17h3a73844835917e06E",
    "__ZN4core3ops8function2Fn4call17heb220dff9cb64346E",
    "__ZN119_$LT$F$u20$as$u20$dioxus_core..properties..ComponentFunction$LT$$LP$$RP$$C$dioxus_core..properties..EmptyMarker$GT$$GT$7rebuild17h1485b718be4dcc97E",
    "__ZN100_$LT$dioxus_core..any_props..VProps$LT$F$C$P$C$M$GT$$u20$as$u20$dioxus_core..any_props..AnyProps$GT$6render28_$u7b$$u7b$closure$u7d$$u7d$17h5f5c31c2c4fcd3edE",
    "__ZN4core3ops8function6FnOnce9call_once17haf610c889d773240E",
    "__ZN115_$LT$core..panic..unwind_safe..AssertUnwindSafe$LT$F$GT$$u20$as$u20$core..ops..function..FnOnce$LT$$LP$$RP$$GT$$GT$9call_once17he0621d6d235d0c08E",
    "__ZN3std9panicking3try7do_call17h8e7a94c382a5e60cE",
    "__ZN3std5panic12catch_unwind17h1f6291afe955bbfcE",
    "__ZN100_$LT$dioxus_core..any_props..VProps$LT$F$C$P$C$M$GT$$u20$as$u20$dioxus_core..any_props..AnyProps$GT$6render17h45480eba660d5148E",
    "l___unnamed_7_harness-df4868ea1b5cadad.c6wmz0dxwkc7r3o02wr81u9oy.rcgu.o",
    "__ZN11dioxus_core5nodes10VComponent3new17hcaaa6729c16dc137E",
    "__ZN11dioxus_core10properties10Properties15into_vcomponent17h79bafc80aea2aab7E",
    "___hotreload_start_app",
    "__ZN7harness3app17h400735d18e59eec4E",
    "__ZN7harness4main17h4654d77b3f37379bE",
    "_main",
]
__ZN8warnings8warnings9WarningId10if_enabled17h1c488e65130df26eE
[
    "__ZN8warnings8warnings9WarningId10if_enabled17h1c488e65130df26eE",
    "__ZN14dioxus_signals8warnings20__copy_value_hoisted23__Callable$LT$T$C$S$GT$16__run_if_enabled17ha36d84debd7d7620E",
    "l___unnamed_5_harness-df4868ea1b5cadad.57p783wz0mdr6vmpci89msrb7.rcgu.o",
    "__ZN115_$LT$dioxus_signals..warnings..__copy_value_hoisted..__Callable$LT$T$C$S$GT$$u20$as$u20$core..ops..deref..Deref$GT$5deref17hab58e9f55bd3c5deE",
    "__ZN101_$LT$dioxus_signals..copy_value..CopyValue$LT$T$C$S$GT$$u20$as$u20$dioxus_signals..read..Readable$GT$18try_read_unchecked17hcbacf7f4f84ff432E",
    "__ZN14dioxus_signals4read8Readable8try_read17h3f53ef44cef9d75bE",
    "__ZN14dioxus_signals8warnings41__signal_read_and_write_in_reactive_scope23__Callable$LT$T$C$S$GT$16__run_if_enabled28_$u7b$$u7b$closure$u7d$$u7d$39signal_read_and_write_in_reactive_scope17h1ad309ff6660ea62E",
    "__ZN14dioxus_signals8warnings41__signal_read_and_write_in_reactive_scope23__Callable$LT$T$C$S$GT$16__run_if_enabled28_$u7b$$u7b$closure$u7d$$u7d$17h1b0f83081d19009bE",
    "__ZN8warnings8warnings9WarningId10if_enabled17ha6ef6cba53b085f6E",
    "__ZN14dioxus_signals8warnings41__signal_read_and_write_in_reactive_scope23__Callable$LT$T$C$S$GT$16__run_if_enabled17he99b0af967ae97feE",
    "l___unnamed_2_harness-df4868ea1b5cadad.a64hlspyskaofkyts3cee93he.rcgu.o",
    "__ZN136_$LT$dioxus_signals..warnings..__signal_read_and_write_in_reactive_scope..__Callable$LT$T$C$S$GT$$u20$as$u20$core..ops..deref..Deref$GT$5deref17h86c7f97abc3f6c06E",
    "__ZN99_$LT$dioxus_signals..signal..SignalSubscriberDrop$LT$T$C$S$GT$$u20$as$u20$core..ops..drop..Drop$GT$4drop17h330fbe4f6664ee0bE",
    "__ZN4core3ptr118drop_in_place$LT$dioxus_signals..signal..SignalSubscriberDrop$LT$i64$C$generational_box..unsync..UnsyncStorage$GT$$GT$17h25b2886afdcde067E",
    "l___unnamed_21_harness-df4868ea1b5cadad.5qrn0xfhbv2rouh4f52itu55i.rcgu.o",
    "__ZN95_$LT$dioxus_signals..signal..Signal$LT$T$C$S$GT$$u20$as$u20$dioxus_signals..write..Writable$GT$19try_write_unchecked28_$u7b$$u7b$closure$u7d$$u7d$17he1b9191098da229cE",
    "__ZN4core6result19Result$LT$T$C$E$GT$3map17he4a924266e5e9d5aE",
    "__ZN95_$LT$dioxus_signals..signal..Signal$LT$T$C$S$GT$$u20$as$u20$dioxus_signals..write..Writable$GT$19try_write_unchecked17h4cba87c5ead1eb17E",
    "__ZN14dioxus_signals6global19Global$LT$T$C$R$GT$5write17h2228387cbea56f90E",
    "__ZN7harness11GlobalInner28_$u7b$$u7b$closure$u7d$$u7d$17hb42c5660948e5f3bE",
    "__ZN11dioxus_core6events26Callback$LT$Args$C$Ret$GT$3new28_$u7b$$u7b$closure$u7d$$u7d$17h6f96a569a9f12b13E",
    "l___unnamed_9_harness-df4868ea1b5cadad.egexdem49eejgynie32zwugcu.rcgu.o",
    "__ZN11dioxus_core6events26Callback$LT$Args$C$Ret$GT$3new17he13b8bd10ebc92d6E",
    "__ZN169_$LT$dioxus_core..events..Callback$LT$Args$C$Ret$GT$$u20$as$u20$dioxus_core..properties..SuperFrom$LT$Function$C$dioxus_core..events..MarkerWrapper$LT$Marker$GT$$GT$$GT$10super_from17h0f0cdd7a8468e271E",
    "__ZN69_$LT$T$u20$as$u20$dioxus_core..properties..SuperInto$LT$O$C$M$GT$$GT$10super_into17he799bb527ae17417E",
    "__ZN11dioxus_html6events5mouse7onclick28_$u7b$$u7b$closure$u7d$$u7d$17hcda8013b3fb0a7b1E",
    "__ZN11dioxus_core16generational_box10with_owner17hb0ca740788bcf0beE",
    "__ZN11dioxus_html6events5mouse7onclick17hcc75453cf267d2c1E",
    "__ZN11dioxus_html6events5mouse7onclick26call_with_explicit_closure17hc65524ea0f855dd4E",
    "__ZN7harness11GlobalInner17h56fe43aa3656219bE",
    "__ZN4core3ops8function2Fn4call17h3c8f851ee4dd175bE",
    "__ZN119_$LT$F$u20$as$u20$dioxus_core..properties..ComponentFunction$LT$$LP$$RP$$C$dioxus_core..properties..EmptyMarker$GT$$GT$7rebuild17hf7f1250efa3fb04cE",
    "__ZN100_$LT$dioxus_core..any_props..VProps$LT$F$C$P$C$M$GT$$u20$as$u20$dioxus_core..any_props..AnyProps$GT$6render28_$u7b$$u7b$closure$u7d$$u7d$17h025de8e22280b207E",
    "__ZN4core3ops8function6FnOnce9call_once17h371dcf20a99f261bE",
    "__ZN115_$LT$core..panic..unwind_safe..AssertUnwindSafe$LT$F$GT$$u20$as$u20$core..ops..function..FnOnce$LT$$LP$$RP$$GT$$GT$9call_once17h25a92dc564e3d7ffE",
    "__ZN3std9panicking3try7do_call17ha023efa9fb2ba8f7E",
    "__ZN3std5panic12catch_unwind17h48b71dec49934bf1E",
    "__ZN100_$LT$dioxus_core..any_props..VProps$LT$F$C$P$C$M$GT$$u20$as$u20$dioxus_core..any_props..AnyProps$GT$6render17h543a97c06bfefa3bE",
    "l___unnamed_4_harness-df4868ea1b5cadad.e382ndox9j839chz9esswif6u.rcgu.o",
    "__ZN100_$LT$dioxus_core..any_props..VProps$LT$F$C$P$C$M$GT$$u20$as$u20$dioxus_core..any_props..AnyProps$GT$9duplicate17h675ac73f4925ce25E",
    "l___unnamed_4_harness-df4868ea1b5cadad.c6wmz0dxwkc7r3o02wr81u9oy.rcgu.o",
    "__ZN11dioxus_core5nodes10VComponent3new17h993f8b3d9eb93954E",
    "__ZN11dioxus_core10properties10Properties15into_vcomponent17h965196ec13444056E",
    "__ZN7harness5Child17h2b32aeaba0b4c00dE",
    "__ZN4core3ops8function2Fn4call17hf86b26e1f09dbfc5E",
    "__ZN73_$LT$F$u20$as$u20$dioxus_core..properties..ComponentFunction$LT$P$GT$$GT$7rebuild17hdcc2e237eec08339E",
    "__ZN100_$LT$dioxus_core..any_props..VProps$LT$F$C$P$C$M$GT$$u20$as$u20$dioxus_core..any_props..AnyProps$GT$6render28_$u7b$$u7b$closure$u7d$$u7d$17hfbf53ec21013c460E",
    "__ZN4core3ops8function6FnOnce9call_once17hb1250f82ab822998E",
    "__ZN115_$LT$core..panic..unwind_safe..AssertUnwindSafe$LT$F$GT$$u20$as$u20$core..ops..function..FnOnce$LT$$LP$$RP$$GT$$GT$9call_once17h156df01ab880499cE",
    "__ZN3std9panicking3try7do_call17h12b00f5c1afca0e5E",
    "__ZN3std5panic12catch_unwind17h9623dc210b33032cE",
    "__ZN100_$LT$dioxus_core..any_props..VProps$LT$F$C$P$C$M$GT$$u20$as$u20$dioxus_core..any_props..AnyProps$GT$6render17h724478bd10ae45abE",
    "l___unnamed_8_harness-df4868ea1b5cadad.e382ndox9j839chz9esswif6u.rcgu.o",
    "__ZN100_$LT$dioxus_core..any_props..VProps$LT$F$C$P$C$M$GT$$u20$as$u20$dioxus_core..any_props..AnyProps$GT$9duplicate17hbcc315160800576aE",
    "l___unnamed_2_harness-df4868ea1b5cadad.c6wmz0dxwkc7r3o02wr81u9oy.rcgu.o",
    "__ZN11dioxus_core5nodes10VComponent3new17h64d3a0812e77f0edE",
    "__ZN11dioxus_core10properties10Properties15into_vcomponent17h7753673354bc1edfE",
    "__ZN7harness13zoom_controls17h3a73844835917e06E",
    "__ZN4core3ops8function2Fn4call17heb220dff9cb64346E",
    "__ZN119_$LT$F$u20$as$u20$dioxus_core..properties..ComponentFunction$LT$$LP$$RP$$C$dioxus_core..properties..EmptyMarker$GT$$GT$7rebuild17h1485b718be4dcc97E",
    "__ZN100_$LT$dioxus_core..any_props..VProps$LT$F$C$P$C$M$GT$$u20$as$u20$dioxus_core..any_props..AnyProps$GT$6render28_$u7b$$u7b$closure$u7d$$u7d$17h5f5c31c2c4fcd3edE",
    "__ZN4core3ops8function6FnOnce9call_once17haf610c889d773240E",
    "__ZN115_$LT$core..panic..unwind_safe..AssertUnwindSafe$LT$F$GT$$u20$as$u20$core..ops..function..FnOnce$LT$$LP$$RP$$GT$$GT$9call_once17he0621d6d235d0c08E",
    "__ZN3std9panicking3try7do_call17h8e7a94c382a5e60cE",
    "__ZN3std5panic12catch_unwind17h1f6291afe955bbfcE",
    "__ZN100_$LT$dioxus_core..any_props..VProps$LT$F$C$P$C$M$GT$$u20$as$u20$dioxus_core..any_props..AnyProps$GT$6render17h45480eba660d5148E",
    "l___unnamed_7_harness-df4868ea1b5cadad.c6wmz0dxwkc7r3o02wr81u9oy.rcgu.o",
    "__ZN11dioxus_core5nodes10VComponent3new17hcaaa6729c16dc137E",
    "__ZN11dioxus_core10properties10Properties15into_vcomponent17h79bafc80aea2aab7E",
    "___hotreload_start_app",
    "__ZN7harness3app17h400735d18e59eec4E",
    "__ZN7harness4main17h4654d77b3f37379bE",
    "_main",
]
__ZN4core3ptr196drop_in_place$LT$core..result..Result$LT$core..cell..RefMut$LT$dioxus_signals..signal..SignalData$LT$i64$GT$$GT$$C$core..cell..RefMut$LT$alloc..boxed..Box$LT$dyn$u20$core..any..Any$GT$$GT$$GT$$GT$17h7a4b38accd9b1e1bE
[
    "__ZN4core3ptr196drop_in_place$LT$core..result..Result$LT$core..cell..RefMut$LT$dioxus_signals..signal..SignalData$LT$i64$GT$$GT$$C$core..cell..RefMut$LT$alloc..boxed..Box$LT$dyn$u20$core..any..Any$GT$$GT$$GT$$GT$17h7a4b38accd9b1e1bE",
    "__ZN94_$LT$generational_box..unsync..UnsyncStorage$u20$as$u20$generational_box..Storage$LT$T$GT$$GT$9try_write17hbf4c3a686420c2f4E",
    "__ZN16generational_box28GenerationalPointer$LT$S$GT$9try_write17hae0222b657cc2ac8E",
    "__ZN16generational_box28GenerationalBox$LT$T$C$S$GT$9try_write17hcf63fbb652119ae9E",
    "__ZN102_$LT$dioxus_signals..copy_value..CopyValue$LT$T$C$S$GT$$u20$as$u20$dioxus_signals..write..Writable$GT$19try_write_unchecked17h42184b5e72236e49E",
    "__ZN95_$LT$dioxus_signals..signal..Signal$LT$T$C$S$GT$$u20$as$u20$dioxus_signals..write..Writable$GT$19try_write_unchecked17h4cba87c5ead1eb17E",
    "__ZN14dioxus_signals6global19Global$LT$T$C$R$GT$5write17h2228387cbea56f90E",
    "__ZN7harness11GlobalInner28_$u7b$$u7b$closure$u7d$$u7d$17hb42c5660948e5f3bE",
    "__ZN11dioxus_core6events26Callback$LT$Args$C$Ret$GT$3new28_$u7b$$u7b$closure$u7d$$u7d$17h6f96a569a9f12b13E",
    "l___unnamed_9_harness-df4868ea1b5cadad.egexdem49eejgynie32zwugcu.rcgu.o",
    "__ZN11dioxus_core6events26Callback$LT$Args$C$Ret$GT$3new17he13b8bd10ebc92d6E",
    "__ZN169_$LT$dioxus_core..events..Callback$LT$Args$C$Ret$GT$$u20$as$u20$dioxus_core..properties..SuperFrom$LT$Function$C$dioxus_core..events..MarkerWrapper$LT$Marker$GT$$GT$$GT$10super_from17h0f0cdd7a8468e271E",
    "__ZN69_$LT$T$u20$as$u20$dioxus_core..properties..SuperInto$LT$O$C$M$GT$$GT$10super_into17he799bb527ae17417E",
    "__ZN11dioxus_html6events5mouse7onclick28_$u7b$$u7b$closure$u7d$$u7d$17hcda8013b3fb0a7b1E",
    "__ZN11dioxus_core16generational_box10with_owner17hb0ca740788bcf0beE",
    "__ZN11dioxus_html6events5mouse7onclick17hcc75453cf267d2c1E",
    "__ZN11dioxus_html6events5mouse7onclick26call_with_explicit_closure17hc65524ea0f855dd4E",
    "__ZN7harness11GlobalInner17h56fe43aa3656219bE",
    "__ZN4core3ops8function2Fn4call17h3c8f851ee4dd175bE",
    "__ZN119_$LT$F$u20$as$u20$dioxus_core..properties..ComponentFunction$LT$$LP$$RP$$C$dioxus_core..properties..EmptyMarker$GT$$GT$7rebuild17hf7f1250efa3fb04cE",
    "__ZN100_$LT$dioxus_core..any_props..VProps$LT$F$C$P$C$M$GT$$u20$as$u20$dioxus_core..any_props..AnyProps$GT$6render28_$u7b$$u7b$closure$u7d$$u7d$17h025de8e22280b207E",
    "__ZN4core3ops8function6FnOnce9call_once17h371dcf20a99f261bE",
    "__ZN115_$LT$core..panic..unwind_safe..AssertUnwindSafe$LT$F$GT$$u20$as$u20$core..ops..function..FnOnce$LT$$LP$$RP$$GT$$GT$9call_once17h25a92dc564e3d7ffE",
    "__ZN3std9panicking3try7do_call17ha023efa9fb2ba8f7E",
    "__ZN3std5panic12catch_unwind17h48b71dec49934bf1E",
    "__ZN100_$LT$dioxus_core..any_props..VProps$LT$F$C$P$C$M$GT$$u20$as$u20$dioxus_core..any_props..AnyProps$GT$6render17h543a97c06bfefa3bE",
    "l___unnamed_4_harness-df4868ea1b5cadad.e382ndox9j839chz9esswif6u.rcgu.o",
    "__ZN100_$LT$dioxus_core..any_props..VProps$LT$F$C$P$C$M$GT$$u20$as$u20$dioxus_core..any_props..AnyProps$GT$9duplicate17h675ac73f4925ce25E",
    "l___unnamed_4_harness-df4868ea1b5cadad.c6wmz0dxwkc7r3o02wr81u9oy.rcgu.o",
    "__ZN11dioxus_core5nodes10VComponent3new17h993f8b3d9eb93954E",
    "__ZN11dioxus_core10properties10Properties15into_vcomponent17h965196ec13444056E",
    "__ZN7harness5Child17h2b32aeaba0b4c00dE",
    "__ZN4core3ops8function2Fn4call17hf86b26e1f09dbfc5E",
    "__ZN73_$LT$F$u20$as$u20$dioxus_core..properties..ComponentFunction$LT$P$GT$$GT$7rebuild17hdcc2e237eec08339E",
    "__ZN100_$LT$dioxus_core..any_props..VProps$LT$F$C$P$C$M$GT$$u20$as$u20$dioxus_core..any_props..AnyProps$GT$6render28_$u7b$$u7b$closure$u7d$$u7d$17hfbf53ec21013c460E",
    "__ZN4core3ops8function6FnOnce9call_once17hb1250f82ab822998E",
    "__ZN115_$LT$core..panic..unwind_safe..AssertUnwindSafe$LT$F$GT$$u20$as$u20$core..ops..function..FnOnce$LT$$LP$$RP$$GT$$GT$9call_once17h156df01ab880499cE",
    "__ZN3std9panicking3try7do_call17h12b00f5c1afca0e5E",
    "__ZN3std5panic12catch_unwind17h9623dc210b33032cE",
    "__ZN100_$LT$dioxus_core..any_props..VProps$LT$F$C$P$C$M$GT$$u20$as$u20$dioxus_core..any_props..AnyProps$GT$6render17h724478bd10ae45abE",
    "l___unnamed_8_harness-df4868ea1b5cadad.e382ndox9j839chz9esswif6u.rcgu.o",
    "__ZN100_$LT$dioxus_core..any_props..VProps$LT$F$C$P$C$M$GT$$u20$as$u20$dioxus_core..any_props..AnyProps$GT$9duplicate17hbcc315160800576aE",
    "l___unnamed_2_harness-df4868ea1b5cadad.c6wmz0dxwkc7r3o02wr81u9oy.rcgu.o",
    "__ZN11dioxus_core5nodes10VComponent3new17h64d3a0812e77f0edE",
    "__ZN11dioxus_core10properties10Properties15into_vcomponent17h7753673354bc1edfE",
    "__ZN7harness13zoom_controls17h3a73844835917e06E",
    "__ZN4core3ops8function2Fn4call17heb220dff9cb64346E",
    "__ZN119_$LT$F$u20$as$u20$dioxus_core..properties..ComponentFunction$LT$$LP$$RP$$C$dioxus_core..properties..EmptyMarker$GT$$GT$7rebuild17h1485b718be4dcc97E",
    "__ZN100_$LT$dioxus_core..any_props..VProps$LT$F$C$P$C$M$GT$$u20$as$u20$dioxus_core..any_props..AnyProps$GT$6render28_$u7b$$u7b$closure$u7d$$u7d$17h5f5c31c2c4fcd3edE",
    "__ZN4core3ops8function6FnOnce9call_once17haf610c889d773240E",
    "__ZN115_$LT$core..panic..unwind_safe..AssertUnwindSafe$LT$F$GT$$u20$as$u20$core..ops..function..FnOnce$LT$$LP$$RP$$GT$$GT$9call_once17he0621d6d235d0c08E",
    "__ZN3std9panicking3try7do_call17h8e7a94c382a5e60cE",
    "__ZN3std5panic12catch_unwind17h1f6291afe955bbfcE",
    "__ZN100_$LT$dioxus_core..any_props..VProps$LT$F$C$P$C$M$GT$$u20$as$u20$dioxus_core..any_props..AnyProps$GT$6render17h45480eba660d5148E",
    "l___unnamed_7_harness-df4868ea1b5cadad.c6wmz0dxwkc7r3o02wr81u9oy.rcgu.o",
    "__ZN11dioxus_core5nodes10VComponent3new17hcaaa6729c16dc137E",
    "__ZN11dioxus_core10properties10Properties15into_vcomponent17h79bafc80aea2aab7E",
    "___hotreload_start_app",
    "__ZN7harness3app17h400735d18e59eec4E",
    "__ZN7harness4main17h4654d77b3f37379bE",
    "_main",
]
l___unnamed_5_harness-df4868ea1b5cadad.cvbn14ab4uo17p1ckzp14p9v7.rcgu.o
[
    "l___unnamed_5_harness-df4868ea1b5cadad.cvbn14ab4uo17p1ckzp14p9v7.rcgu.o",
    "__ZN14dioxus_signals6global19Global$LT$T$C$R$GT$5write17h2228387cbea56f90E",
    "__ZN7harness11GlobalInner28_$u7b$$u7b$closure$u7d$$u7d$17hb42c5660948e5f3bE",
    "__ZN11dioxus_core6events26Callback$LT$Args$C$Ret$GT$3new28_$u7b$$u7b$closure$u7d$$u7d$17h6f96a569a9f12b13E",
    "l___unnamed_9_harness-df4868ea1b5cadad.egexdem49eejgynie32zwugcu.rcgu.o",
    "__ZN11dioxus_core6events26Callback$LT$Args$C$Ret$GT$3new17he13b8bd10ebc92d6E",
    "__ZN169_$LT$dioxus_core..events..Callback$LT$Args$C$Ret$GT$$u20$as$u20$dioxus_core..properties..SuperFrom$LT$Function$C$dioxus_core..events..MarkerWrapper$LT$Marker$GT$$GT$$GT$10super_from17h0f0cdd7a8468e271E",
    "__ZN69_$LT$T$u20$as$u20$dioxus_core..properties..SuperInto$LT$O$C$M$GT$$GT$10super_into17he799bb527ae17417E",
    "__ZN11dioxus_html6events5mouse7onclick28_$u7b$$u7b$closure$u7d$$u7d$17hcda8013b3fb0a7b1E",
    "__ZN11dioxus_core16generational_box10with_owner17hb0ca740788bcf0beE",
    "__ZN11dioxus_html6events5mouse7onclick17hcc75453cf267d2c1E",
    "__ZN11dioxus_html6events5mouse7onclick26call_with_explicit_closure17hc65524ea0f855dd4E",
    "__ZN7harness11GlobalInner17h56fe43aa3656219bE",
    "__ZN4core3ops8function2Fn4call17h3c8f851ee4dd175bE",
    "__ZN119_$LT$F$u20$as$u20$dioxus_core..properties..ComponentFunction$LT$$LP$$RP$$C$dioxus_core..properties..EmptyMarker$GT$$GT$7rebuild17hf7f1250efa3fb04cE",
    "__ZN100_$LT$dioxus_core..any_props..VProps$LT$F$C$P$C$M$GT$$u20$as$u20$dioxus_core..any_props..AnyProps$GT$6render28_$u7b$$u7b$closure$u7d$$u7d$17h025de8e22280b207E",
    "__ZN4core3ops8function6FnOnce9call_once17h371dcf20a99f261bE",
    "__ZN115_$LT$core..panic..unwind_safe..AssertUnwindSafe$LT$F$GT$$u20$as$u20$core..ops..function..FnOnce$LT$$LP$$RP$$GT$$GT$9call_once17h25a92dc564e3d7ffE",
    "__ZN3std9panicking3try7do_call17ha023efa9fb2ba8f7E",
    "__ZN3std5panic12catch_unwind17h48b71dec49934bf1E",
    "__ZN100_$LT$dioxus_core..any_props..VProps$LT$F$C$P$C$M$GT$$u20$as$u20$dioxus_core..any_props..AnyProps$GT$6render17h543a97c06bfefa3bE",
    "l___unnamed_4_harness-df4868ea1b5cadad.e382ndox9j839chz9esswif6u.rcgu.o",
    "__ZN100_$LT$dioxus_core..any_props..VProps$LT$F$C$P$C$M$GT$$u20$as$u20$dioxus_core..any_props..AnyProps$GT$9duplicate17h675ac73f4925ce25E",
    "l___unnamed_4_harness-df4868ea1b5cadad.c6wmz0dxwkc7r3o02wr81u9oy.rcgu.o",
    "__ZN11dioxus_core5nodes10VComponent3new17h993f8b3d9eb93954E",
    "__ZN11dioxus_core10properties10Properties15into_vcomponent17h965196ec13444056E",
    "__ZN7harness5Child17h2b32aeaba0b4c00dE",
    "__ZN4core3ops8function2Fn4call17hf86b26e1f09dbfc5E",
    "__ZN73_$LT$F$u20$as$u20$dioxus_core..properties..ComponentFunction$LT$P$GT$$GT$7rebuild17hdcc2e237eec08339E",
    "__ZN100_$LT$dioxus_core..any_props..VProps$LT$F$C$P$C$M$GT$$u20$as$u20$dioxus_core..any_props..AnyProps$GT$6render28_$u7b$$u7b$closure$u7d$$u7d$17hfbf53ec21013c460E",
    "__ZN4core3ops8function6FnOnce9call_once17hb1250f82ab822998E",
    "__ZN115_$LT$core..panic..unwind_safe..AssertUnwindSafe$LT$F$GT$$u20$as$u20$core..ops..function..FnOnce$LT$$LP$$RP$$GT$$GT$9call_once17h156df01ab880499cE",
    "__ZN3std9panicking3try7do_call17h12b00f5c1afca0e5E",
    "__ZN3std5panic12catch_unwind17h9623dc210b33032cE",
    "__ZN100_$LT$dioxus_core..any_props..VProps$LT$F$C$P$C$M$GT$$u20$as$u20$dioxus_core..any_props..AnyProps$GT$6render17h724478bd10ae45abE",
    "l___unnamed_8_harness-df4868ea1b5cadad.e382ndox9j839chz9esswif6u.rcgu.o",
    "__ZN100_$LT$dioxus_core..any_props..VProps$LT$F$C$P$C$M$GT$$u20$as$u20$dioxus_core..any_props..AnyProps$GT$9duplicate17hbcc315160800576aE",
    "l___unnamed_2_harness-df4868ea1b5cadad.c6wmz0dxwkc7r3o02wr81u9oy.rcgu.o",
    "__ZN11dioxus_core5nodes10VComponent3new17h64d3a0812e77f0edE",
    "__ZN11dioxus_core10properties10Properties15into_vcomponent17h7753673354bc1edfE",
    "__ZN7harness13zoom_controls17h3a73844835917e06E",
    "__ZN4core3ops8function2Fn4call17heb220dff9cb64346E",
    "__ZN119_$LT$F$u20$as$u20$dioxus_core..properties..ComponentFunction$LT$$LP$$RP$$C$dioxus_core..properties..EmptyMarker$GT$$GT$7rebuild17h1485b718be4dcc97E",
    "__ZN100_$LT$dioxus_core..any_props..VProps$LT$F$C$P$C$M$GT$$u20$as$u20$dioxus_core..any_props..AnyProps$GT$6render28_$u7b$$u7b$closure$u7d$$u7d$17h5f5c31c2c4fcd3edE",
    "__ZN4core3ops8function6FnOnce9call_once17haf610c889d773240E",
    "__ZN115_$LT$core..panic..unwind_safe..AssertUnwindSafe$LT$F$GT$$u20$as$u20$core..ops..function..FnOnce$LT$$LP$$RP$$GT$$GT$9call_once17he0621d6d235d0c08E",
    "__ZN3std9panicking3try7do_call17h8e7a94c382a5e60cE",
    "__ZN3std5panic12catch_unwind17h1f6291afe955bbfcE",
    "__ZN100_$LT$dioxus_core..any_props..VProps$LT$F$C$P$C$M$GT$$u20$as$u20$dioxus_core..any_props..AnyProps$GT$6render17h45480eba660d5148E",
    "l___unnamed_7_harness-df4868ea1b5cadad.c6wmz0dxwkc7r3o02wr81u9oy.rcgu.o",
    "__ZN11dioxus_core5nodes10VComponent3new17hcaaa6729c16dc137E",
    "__ZN11dioxus_core10properties10Properties15into_vcomponent17h79bafc80aea2aab7E",
    "___hotreload_start_app",
    "__ZN7harness3app17h400735d18e59eec4E",
    "__ZN7harness4main17h4654d77b3f37379bE",
    "_main",
]
GCC_except_table340
[]
GCC_except_table25
[]
ltmp5_harness-df4868ea1b5cadad.7esa1mq8nq08glihv42qdkl2b.rcgu.o
[]
l___unnamed_13_harness-df4868ea1b5cadad.5qrn0xfhbv2rouh4f52itu55i.rcgu.o
[
    "l___unnamed_13_harness-df4868ea1b5cadad.5qrn0xfhbv2rouh4f52itu55i.rcgu.o",
    "__ZN14dioxus_signals6signal19Signal$LT$T$C$S$GT$18update_subscribers17h8c21e3c058415f01E",
    "__ZN99_$LT$dioxus_signals..signal..SignalSubscriberDrop$LT$T$C$S$GT$$u20$as$u20$core..ops..drop..Drop$GT$4drop17h330fbe4f6664ee0bE",
    "__ZN4core3ptr118drop_in_place$LT$dioxus_signals..signal..SignalSubscriberDrop$LT$i64$C$generational_box..unsync..UnsyncStorage$GT$$GT$17h25b2886afdcde067E",
    "l___unnamed_21_harness-df4868ea1b5cadad.5qrn0xfhbv2rouh4f52itu55i.rcgu.o",
    "__ZN95_$LT$dioxus_signals..signal..Signal$LT$T$C$S$GT$$u20$as$u20$dioxus_signals..write..Writable$GT$19try_write_unchecked28_$u7b$$u7b$closure$u7d$$u7d$17he1b9191098da229cE",
    "__ZN4core6result19Result$LT$T$C$E$GT$3map17he4a924266e5e9d5aE",
    "__ZN95_$LT$dioxus_signals..signal..Signal$LT$T$C$S$GT$$u20$as$u20$dioxus_signals..write..Writable$GT$19try_write_unchecked17h4cba87c5ead1eb17E",
    "__ZN14dioxus_signals6global19Global$LT$T$C$R$GT$5write17h2228387cbea56f90E",
    "__ZN7harness11GlobalInner28_$u7b$$u7b$closure$u7d$$u7d$17hb42c5660948e5f3bE",
    "__ZN11dioxus_core6events26Callback$LT$Args$C$Ret$GT$3new28_$u7b$$u7b$closure$u7d$$u7d$17h6f96a569a9f12b13E",
    "l___unnamed_9_harness-df4868ea1b5cadad.egexdem49eejgynie32zwugcu.rcgu.o",
    "__ZN11dioxus_core6events26Callback$LT$Args$C$Ret$GT$3new17he13b8bd10ebc92d6E",
    "__ZN169_$LT$dioxus_core..events..Callback$LT$Args$C$Ret$GT$$u20$as$u20$dioxus_core..properties..SuperFrom$LT$Function$C$dioxus_core..events..MarkerWrapper$LT$Marker$GT$$GT$$GT$10super_from17h0f0cdd7a8468e271E",
    "__ZN69_$LT$T$u20$as$u20$dioxus_core..properties..SuperInto$LT$O$C$M$GT$$GT$10super_into17he799bb527ae17417E",
    "__ZN11dioxus_html6events5mouse7onclick28_$u7b$$u7b$closure$u7d$$u7d$17hcda8013b3fb0a7b1E",
    "__ZN11dioxus_core16generational_box10with_owner17hb0ca740788bcf0beE",
    "__ZN11dioxus_html6events5mouse7onclick17hcc75453cf267d2c1E",
    "__ZN11dioxus_html6events5mouse7onclick26call_with_explicit_closure17hc65524ea0f855dd4E",
    "__ZN7harness11GlobalInner17h56fe43aa3656219bE",
    "__ZN4core3ops8function2Fn4call17h3c8f851ee4dd175bE",
    "__ZN119_$LT$F$u20$as$u20$dioxus_core..properties..ComponentFunction$LT$$LP$$RP$$C$dioxus_core..properties..EmptyMarker$GT$$GT$7rebuild17hf7f1250efa3fb04cE",
    "__ZN100_$LT$dioxus_core..any_props..VProps$LT$F$C$P$C$M$GT$$u20$as$u20$dioxus_core..any_props..AnyProps$GT$6render28_$u7b$$u7b$closure$u7d$$u7d$17h025de8e22280b207E",
    "__ZN4core3ops8function6FnOnce9call_once17h371dcf20a99f261bE",
    "__ZN115_$LT$core..panic..unwind_safe..AssertUnwindSafe$LT$F$GT$$u20$as$u20$core..ops..function..FnOnce$LT$$LP$$RP$$GT$$GT$9call_once17h25a92dc564e3d7ffE",
    "__ZN3std9panicking3try7do_call17ha023efa9fb2ba8f7E",
    "__ZN3std5panic12catch_unwind17h48b71dec49934bf1E",
    "__ZN100_$LT$dioxus_core..any_props..VProps$LT$F$C$P$C$M$GT$$u20$as$u20$dioxus_core..any_props..AnyProps$GT$6render17h543a97c06bfefa3bE",
    "l___unnamed_4_harness-df4868ea1b5cadad.e382ndox9j839chz9esswif6u.rcgu.o",
    "__ZN100_$LT$dioxus_core..any_props..VProps$LT$F$C$P$C$M$GT$$u20$as$u20$dioxus_core..any_props..AnyProps$GT$9duplicate17h675ac73f4925ce25E",
    "l___unnamed_4_harness-df4868ea1b5cadad.c6wmz0dxwkc7r3o02wr81u9oy.rcgu.o",
    "__ZN11dioxus_core5nodes10VComponent3new17h993f8b3d9eb93954E",
    "__ZN11dioxus_core10properties10Properties15into_vcomponent17h965196ec13444056E",
    "__ZN7harness5Child17h2b32aeaba0b4c00dE",
    "__ZN4core3ops8function2Fn4call17hf86b26e1f09dbfc5E",
    "__ZN73_$LT$F$u20$as$u20$dioxus_core..properties..ComponentFunction$LT$P$GT$$GT$7rebuild17hdcc2e237eec08339E",
    "__ZN100_$LT$dioxus_core..any_props..VProps$LT$F$C$P$C$M$GT$$u20$as$u20$dioxus_core..any_props..AnyProps$GT$6render28_$u7b$$u7b$closure$u7d$$u7d$17hfbf53ec21013c460E",
    "__ZN4core3ops8function6FnOnce9call_once17hb1250f82ab822998E",
    "__ZN115_$LT$core..panic..unwind_safe..AssertUnwindSafe$LT$F$GT$$u20$as$u20$core..ops..function..FnOnce$LT$$LP$$RP$$GT$$GT$9call_once17h156df01ab880499cE",
    "__ZN3std9panicking3try7do_call17h12b00f5c1afca0e5E",
    "__ZN3std5panic12catch_unwind17h9623dc210b33032cE",
    "__ZN100_$LT$dioxus_core..any_props..VProps$LT$F$C$P$C$M$GT$$u20$as$u20$dioxus_core..any_props..AnyProps$GT$6render17h724478bd10ae45abE",
    "l___unnamed_8_harness-df4868ea1b5cadad.e382ndox9j839chz9esswif6u.rcgu.o",
    "__ZN100_$LT$dioxus_core..any_props..VProps$LT$F$C$P$C$M$GT$$u20$as$u20$dioxus_core..any_props..AnyProps$GT$9duplicate17hbcc315160800576aE",
    "l___unnamed_2_harness-df4868ea1b5cadad.c6wmz0dxwkc7r3o02wr81u9oy.rcgu.o",
    "__ZN11dioxus_core5nodes10VComponent3new17h64d3a0812e77f0edE",
    "__ZN11dioxus_core10properties10Properties15into_vcomponent17h7753673354bc1edfE",
    "__ZN7harness13zoom_controls17h3a73844835917e06E",
    "__ZN4core3ops8function2Fn4call17heb220dff9cb64346E",
    "__ZN119_$LT$F$u20$as$u20$dioxus_core..properties..ComponentFunction$LT$$LP$$RP$$C$dioxus_core..properties..EmptyMarker$GT$$GT$7rebuild17h1485b718be4dcc97E",
    "__ZN100_$LT$dioxus_core..any_props..VProps$LT$F$C$P$C$M$GT$$u20$as$u20$dioxus_core..any_props..AnyProps$GT$6render28_$u7b$$u7b$closure$u7d$$u7d$17h5f5c31c2c4fcd3edE",
    "__ZN4core3ops8function6FnOnce9call_once17haf610c889d773240E",
    "__ZN115_$LT$core..panic..unwind_safe..AssertUnwindSafe$LT$F$GT$$u20$as$u20$core..ops..function..FnOnce$LT$$LP$$RP$$GT$$GT$9call_once17he0621d6d235d0c08E",
    "__ZN3std9panicking3try7do_call17h8e7a94c382a5e60cE",
    "__ZN3std5panic12catch_unwind17h1f6291afe955bbfcE",
    "__ZN100_$LT$dioxus_core..any_props..VProps$LT$F$C$P$C$M$GT$$u20$as$u20$dioxus_core..any_props..AnyProps$GT$6render17h45480eba660d5148E",
    "l___unnamed_7_harness-df4868ea1b5cadad.c6wmz0dxwkc7r3o02wr81u9oy.rcgu.o",
    "__ZN11dioxus_core5nodes10VComponent3new17hcaaa6729c16dc137E",
    "__ZN11dioxus_core10properties10Properties15into_vcomponent17h79bafc80aea2aab7E",
    "___hotreload_start_app",
    "__ZN7harness3app17h400735d18e59eec4E",
    "__ZN7harness4main17h4654d77b3f37379bE",
    "_main",
]
GCC_except_table307
[]
__ZN16generational_box14Owner$LT$S$GT$21insert_rc_with_caller17h548d0f7f5e72e97eE
[
    "__ZN16generational_box14Owner$LT$S$GT$21insert_rc_with_caller17h548d0f7f5e72e97eE",
    "__ZN14dioxus_signals10copy_value22CopyValue$LT$T$C$S$GT$15new_with_caller17hcb76596888c447d7E",
    "__ZN14dioxus_signals10copy_value22CopyValue$LT$T$C$S$GT$14new_maybe_sync17h1b6ad78b4df515afE",
    "__ZN14dioxus_signals6signal19Signal$LT$T$C$S$GT$14new_maybe_sync17ha7528862cb9c2381E",
    "__ZN14dioxus_signals6signal15Signal$LT$T$GT$3new17h7b6013ed01240d91E",
    "__ZN14dioxus_signals6global6signal125_$LT$impl$u20$dioxus_signals..global..InitializeFromFunction$LT$T$GT$$u20$for$u20$dioxus_signals..signal..Signal$LT$T$GT$$GT$24initialize_from_function17h7a63303ed51e7775E",
    "__ZN14dioxus_signals6global19Global$LT$T$C$R$GT$7resolve28_$u7b$$u7b$closure$u7d$$u7d$17h36e2699e94ee70c1E",
    "__ZN11dioxus_core7runtime7Runtime8on_scope17hdb6d3a3476122c40E",
    "__ZN11dioxus_core13scope_context46_$LT$impl$u20$dioxus_core..scopes..ScopeId$GT$10in_runtime17h8839846f97dbe1ddE",
    "__ZN14dioxus_signals6global19Global$LT$T$C$R$GT$7resolve17hfca595143252f355E",
    "__ZN94_$LT$dioxus_signals..global..Global$LT$T$C$R$GT$$u20$as$u20$dioxus_signals..read..Readable$GT$18try_read_unchecked17hdf66837701d74a96E",
    "__ZN14dioxus_signals4read8Readable8try_read17h4c98c1be567ce532E",
    "__ZN14dioxus_signals4read8Readable4read17he797328ed7d7b867E",
    "__ZN14dioxus_signals4read8Readable4with17h40ffefba83cf26acE",
    "__ZN14dioxus_signals6global6signal130_$LT$impl$u20$core..fmt..Display$u20$for$u20$dioxus_signals..global..Global$LT$dioxus_signals..signal..Signal$LT$T$GT$$C$T$GT$$GT$3fmt17h9bae2be454d81459E",
    "__ZN14dioxus_signals6global6signal130_$LT$impl$u20$core..fmt..Display$u20$for$u20$dioxus_signals..global..Global$LT$dioxus_signals..signal..Signal$LT$T$GT$$C$T$GT$$GT$33fmt$u7b$$u7b$reify.shim$u7d$$u7d$17h6614528e6ee54eebE",
    "__ZN7harness11GlobalInner17h56fe43aa3656219bE",
    "__ZN4core3ops8function2Fn4call17h3c8f851ee4dd175bE",
    "__ZN119_$LT$F$u20$as$u20$dioxus_core..properties..ComponentFunction$LT$$LP$$RP$$C$dioxus_core..properties..EmptyMarker$GT$$GT$7rebuild17hf7f1250efa3fb04cE",
    "__ZN100_$LT$dioxus_core..any_props..VProps$LT$F$C$P$C$M$GT$$u20$as$u20$dioxus_core..any_props..AnyProps$GT$6render28_$u7b$$u7b$closure$u7d$$u7d$17h025de8e22280b207E",
    "__ZN4core3ops8function6FnOnce9call_once17h371dcf20a99f261bE",
    "__ZN115_$LT$core..panic..unwind_safe..AssertUnwindSafe$LT$F$GT$$u20$as$u20$core..ops..function..FnOnce$LT$$LP$$RP$$GT$$GT$9call_once17h25a92dc564e3d7ffE",
    "__ZN3std9panicking3try7do_call17ha023efa9fb2ba8f7E",
    "__ZN3std5panic12catch_unwind17h48b71dec49934bf1E",
    "__ZN100_$LT$dioxus_core..any_props..VProps$LT$F$C$P$C$M$GT$$u20$as$u20$dioxus_core..any_props..AnyProps$GT$6render17h543a97c06bfefa3bE",
    "l___unnamed_4_harness-df4868ea1b5cadad.e382ndox9j839chz9esswif6u.rcgu.o",
    "__ZN100_$LT$dioxus_core..any_props..VProps$LT$F$C$P$C$M$GT$$u20$as$u20$dioxus_core..any_props..AnyProps$GT$9duplicate17h675ac73f4925ce25E",
    "l___unnamed_4_harness-df4868ea1b5cadad.c6wmz0dxwkc7r3o02wr81u9oy.rcgu.o",
    "__ZN11dioxus_core5nodes10VComponent3new17h993f8b3d9eb93954E",
    "__ZN11dioxus_core10properties10Properties15into_vcomponent17h965196ec13444056E",
    "__ZN7harness5Child17h2b32aeaba0b4c00dE",
    "__ZN4core3ops8function2Fn4call17hf86b26e1f09dbfc5E",
    "__ZN73_$LT$F$u20$as$u20$dioxus_core..properties..ComponentFunction$LT$P$GT$$GT$7rebuild17hdcc2e237eec08339E",
    "__ZN100_$LT$dioxus_core..any_props..VProps$LT$F$C$P$C$M$GT$$u20$as$u20$dioxus_core..any_props..AnyProps$GT$6render28_$u7b$$u7b$closure$u7d$$u7d$17hfbf53ec21013c460E",
    "__ZN4core3ops8function6FnOnce9call_once17hb1250f82ab822998E",
    "__ZN115_$LT$core..panic..unwind_safe..AssertUnwindSafe$LT$F$GT$$u20$as$u20$core..ops..function..FnOnce$LT$$LP$$RP$$GT$$GT$9call_once17h156df01ab880499cE",
    "__ZN3std9panicking3try7do_call17h12b00f5c1afca0e5E",
    "__ZN3std5panic12catch_unwind17h9623dc210b33032cE",
    "__ZN100_$LT$dioxus_core..any_props..VProps$LT$F$C$P$C$M$GT$$u20$as$u20$dioxus_core..any_props..AnyProps$GT$6render17h724478bd10ae45abE",
    "l___unnamed_8_harness-df4868ea1b5cadad.e382ndox9j839chz9esswif6u.rcgu.o",
    "__ZN100_$LT$dioxus_core..any_props..VProps$LT$F$C$P$C$M$GT$$u20$as$u20$dioxus_core..any_props..AnyProps$GT$9duplicate17hbcc315160800576aE",
    "l___unnamed_2_harness-df4868ea1b5cadad.c6wmz0dxwkc7r3o02wr81u9oy.rcgu.o",
    "__ZN11dioxus_core5nodes10VComponent3new17h64d3a0812e77f0edE",
    "__ZN11dioxus_core10properties10Properties15into_vcomponent17h7753673354bc1edfE",
    "__ZN7harness13zoom_controls17h3a73844835917e06E",
    "__ZN4core3ops8function2Fn4call17heb220dff9cb64346E",
    "__ZN119_$LT$F$u20$as$u20$dioxus_core..properties..ComponentFunction$LT$$LP$$RP$$C$dioxus_core..properties..EmptyMarker$GT$$GT$7rebuild17h1485b718be4dcc97E",
    "__ZN100_$LT$dioxus_core..any_props..VProps$LT$F$C$P$C$M$GT$$u20$as$u20$dioxus_core..any_props..AnyProps$GT$6render28_$u7b$$u7b$closure$u7d$$u7d$17h5f5c31c2c4fcd3edE",
    "__ZN4core3ops8function6FnOnce9call_once17haf610c889d773240E",
    "__ZN115_$LT$core..panic..unwind_safe..AssertUnwindSafe$LT$F$GT$$u20$as$u20$core..ops..function..FnOnce$LT$$LP$$RP$$GT$$GT$9call_once17he0621d6d235d0c08E",
    "__ZN3std9panicking3try7do_call17h8e7a94c382a5e60cE",
    "__ZN3std5panic12catch_unwind17h1f6291afe955bbfcE",
    "__ZN100_$LT$dioxus_core..any_props..VProps$LT$F$C$P$C$M$GT$$u20$as$u20$dioxus_core..any_props..AnyProps$GT$6render17h45480eba660d5148E",
    "l___unnamed_7_harness-df4868ea1b5cadad.c6wmz0dxwkc7r3o02wr81u9oy.rcgu.o",
    "__ZN11dioxus_core5nodes10VComponent3new17hcaaa6729c16dc137E",
    "__ZN11dioxus_core10properties10Properties15into_vcomponent17h79bafc80aea2aab7E",
    "___hotreload_start_app",
    "__ZN7harness3app17h400735d18e59eec4E",
    "__ZN7harness4main17h4654d77b3f37379bE",
    "_main",
]
l___unnamed_8_harness-df4868ea1b5cadad.a64hlspyskaofkyts3cee93he.rcgu.o
[
    "l___unnamed_8_harness-df4868ea1b5cadad.a64hlspyskaofkyts3cee93he.rcgu.o",
    "__ZN14dioxus_signals8warnings41__signal_read_and_write_in_reactive_scope23__Callable$LT$T$C$S$GT$16__run_if_enabled28_$u7b$$u7b$closure$u7d$$u7d$39signal_read_and_write_in_reactive_scope17h221e571ef7520107E",
    "__ZN14dioxus_signals8warnings41__signal_read_and_write_in_reactive_scope23__Callable$LT$T$C$S$GT$16__run_if_enabled28_$u7b$$u7b$closure$u7d$$u7d$17h9b61e901979ebe37E",
    "__ZN8warnings8warnings9WarningId10if_enabled17h1e1ada791f843c4bE",
    "__ZN14dioxus_signals8warnings41__signal_read_and_write_in_reactive_scope23__Callable$LT$T$C$S$GT$16__run_if_enabled17hbe10b8bfcdd507adE",
    "l___unnamed_1_harness-df4868ea1b5cadad.a64hlspyskaofkyts3cee93he.rcgu.o",
    "__ZN136_$LT$dioxus_signals..warnings..__signal_read_and_write_in_reactive_scope..__Callable$LT$T$C$S$GT$$u20$as$u20$core..ops..deref..Deref$GT$5deref17h12fc0a983cda1955E",
    "__ZN99_$LT$dioxus_signals..signal..SignalSubscriberDrop$LT$T$C$S$GT$$u20$as$u20$core..ops..drop..Drop$GT$4drop17hcae7f731b4ba3f74E",
    "__ZN4core3ptr159drop_in_place$LT$dioxus_signals..signal..SignalSubscriberDrop$LT$alloc..vec..Vec$LT$alloc..string..String$GT$$C$generational_box..unsync..UnsyncStorage$GT$$GT$17hd180e51942450b51E",
    "l___unnamed_20_harness-df4868ea1b5cadad.5qrn0xfhbv2rouh4f52itu55i.rcgu.o",
    "__ZN95_$LT$dioxus_signals..signal..Signal$LT$T$C$S$GT$$u20$as$u20$dioxus_signals..write..Writable$GT$19try_write_unchecked28_$u7b$$u7b$closure$u7d$$u7d$17hc7cbd98efeef2228E",
    "__ZN4core6result19Result$LT$T$C$E$GT$3map17h209be385f2abb021E",
    "__ZN95_$LT$dioxus_signals..signal..Signal$LT$T$C$S$GT$$u20$as$u20$dioxus_signals..write..Writable$GT$19try_write_unchecked17h8e8e363f48a63db6E",
    "__ZN14dioxus_signals5write8Writable9try_write17h9fa331eedb586fe4E",
    "__ZN14dioxus_signals5write8Writable5write17h9a26affdc2ccd616E",
    "__ZN7harness12AddingLogger28_$u7b$$u7b$closure$u7d$$u7d$17h7550ef02f1861627E",
    "__ZN7harness12AddingLogger28_$u7b$$u7b$closure$u7d$$u7d$17hd8e6be41b9a84583E",
    "__ZN11dioxus_core6events26Callback$LT$Args$C$Ret$GT$3new28_$u7b$$u7b$closure$u7d$$u7d$17hf771f51420dabaaeE",
    "l___unnamed_11_harness-df4868ea1b5cadad.egexdem49eejgynie32zwugcu.rcgu.o",
    "__ZN11dioxus_core6events26Callback$LT$Args$C$Ret$GT$3new17hf49a7ba233cfcb4bE",
    "__ZN169_$LT$dioxus_core..events..Callback$LT$Args$C$Ret$GT$$u20$as$u20$dioxus_core..properties..SuperFrom$LT$Function$C$dioxus_core..events..MarkerWrapper$LT$Marker$GT$$GT$$GT$10super_from17ha0eb73359dcf2b5fE",
    "__ZN69_$LT$T$u20$as$u20$dioxus_core..properties..SuperInto$LT$O$C$M$GT$$GT$10super_into17he725d2a59af62b36E",
    "__ZN11dioxus_html6events5mouse7onclick28_$u7b$$u7b$closure$u7d$$u7d$17h088593d399a17bb2E",
    "__ZN11dioxus_core16generational_box10with_owner17ha770f68327e79831E",
    "__ZN11dioxus_html6events5mouse7onclick17h44f66615c6057071E",
    "__ZN11dioxus_html6events5mouse7onclick26call_with_explicit_closure17h85538a841367551bE",
    "__ZN7harness12AddingLogger17h283889c677656013E",
    "__ZN4core3ops8function2Fn4call17hc1d984302f90d6b5E",
    "__ZN119_$LT$F$u20$as$u20$dioxus_core..properties..ComponentFunction$LT$$LP$$RP$$C$dioxus_core..properties..EmptyMarker$GT$$GT$7rebuild17ha7658b769122d22aE",
    "__ZN100_$LT$dioxus_core..any_props..VProps$LT$F$C$P$C$M$GT$$u20$as$u20$dioxus_core..any_props..AnyProps$GT$6render28_$u7b$$u7b$closure$u7d$$u7d$17h90af567fab99d4f7E",
    "__ZN4core3ops8function6FnOnce9call_once17he98e8829e2ade214E",
    "__ZN115_$LT$core..panic..unwind_safe..AssertUnwindSafe$LT$F$GT$$u20$as$u20$core..ops..function..FnOnce$LT$$LP$$RP$$GT$$GT$9call_once17h8b675a067d6b378fE",
    "__ZN3std9panicking3try7do_call17h042d1df4c42c9398E",
    "__ZN3std5panic12catch_unwind17hebad81528f98f478E",
    "__ZN100_$LT$dioxus_core..any_props..VProps$LT$F$C$P$C$M$GT$$u20$as$u20$dioxus_core..any_props..AnyProps$GT$6render17h6d3194045a8447dcE",
    "l___unnamed_6_harness-df4868ea1b5cadad.c6wmz0dxwkc7r3o02wr81u9oy.rcgu.o",
    "__ZN11dioxus_core5nodes10VComponent3new17hc4f98269bb25b058E",
    "__ZN11dioxus_core10properties10Properties15into_vcomponent17had2a4ffa139fd691E",
    "__ZN7harness5Child17h2b32aeaba0b4c00dE",
    "__ZN4core3ops8function2Fn4call17hf86b26e1f09dbfc5E",
    "__ZN73_$LT$F$u20$as$u20$dioxus_core..properties..ComponentFunction$LT$P$GT$$GT$7rebuild17hdcc2e237eec08339E",
    "__ZN100_$LT$dioxus_core..any_props..VProps$LT$F$C$P$C$M$GT$$u20$as$u20$dioxus_core..any_props..AnyProps$GT$6render28_$u7b$$u7b$closure$u7d$$u7d$17hfbf53ec21013c460E",
    "__ZN4core3ops8function6FnOnce9call_once17hb1250f82ab822998E",
    "__ZN115_$LT$core..panic..unwind_safe..AssertUnwindSafe$LT$F$GT$$u20$as$u20$core..ops..function..FnOnce$LT$$LP$$RP$$GT$$GT$9call_once17h156df01ab880499cE",
    "__ZN3std9panicking3try7do_call17h12b00f5c1afca0e5E",
    "__ZN3std5panic12catch_unwind17h9623dc210b33032cE",
    "__ZN100_$LT$dioxus_core..any_props..VProps$LT$F$C$P$C$M$GT$$u20$as$u20$dioxus_core..any_props..AnyProps$GT$6render17h724478bd10ae45abE",
    "l___unnamed_8_harness-df4868ea1b5cadad.e382ndox9j839chz9esswif6u.rcgu.o",
    "__ZN100_$LT$dioxus_core..any_props..VProps$LT$F$C$P$C$M$GT$$u20$as$u20$dioxus_core..any_props..AnyProps$GT$9duplicate17hbcc315160800576aE",
    "l___unnamed_2_harness-df4868ea1b5cadad.c6wmz0dxwkc7r3o02wr81u9oy.rcgu.o",
    "__ZN11dioxus_core5nodes10VComponent3new17h64d3a0812e77f0edE",
    "__ZN11dioxus_core10properties10Properties15into_vcomponent17h7753673354bc1edfE",
    "__ZN7harness13zoom_controls17h3a73844835917e06E",
    "__ZN4core3ops8function2Fn4call17heb220dff9cb64346E",
    "__ZN119_$LT$F$u20$as$u20$dioxus_core..properties..ComponentFunction$LT$$LP$$RP$$C$dioxus_core..properties..EmptyMarker$GT$$GT$7rebuild17h1485b718be4dcc97E",
    "__ZN100_$LT$dioxus_core..any_props..VProps$LT$F$C$P$C$M$GT$$u20$as$u20$dioxus_core..any_props..AnyProps$GT$6render28_$u7b$$u7b$closure$u7d$$u7d$17h5f5c31c2c4fcd3edE",
    "__ZN4core3ops8function6FnOnce9call_once17haf610c889d773240E",
    "__ZN115_$LT$core..panic..unwind_safe..AssertUnwindSafe$LT$F$GT$$u20$as$u20$core..ops..function..FnOnce$LT$$LP$$RP$$GT$$GT$9call_once17he0621d6d235d0c08E",
    "__ZN3std9panicking3try7do_call17h8e7a94c382a5e60cE",
    "__ZN3std5panic12catch_unwind17h1f6291afe955bbfcE",
    "__ZN100_$LT$dioxus_core..any_props..VProps$LT$F$C$P$C$M$GT$$u20$as$u20$dioxus_core..any_props..AnyProps$GT$6render17h45480eba660d5148E",
    "l___unnamed_7_harness-df4868ea1b5cadad.c6wmz0dxwkc7r3o02wr81u9oy.rcgu.o",
    "__ZN11dioxus_core5nodes10VComponent3new17hcaaa6729c16dc137E",
    "__ZN11dioxus_core10properties10Properties15into_vcomponent17h79bafc80aea2aab7E",
    "___hotreload_start_app",
    "__ZN7harness3app17h400735d18e59eec4E",
    "__ZN7harness4main17h4654d77b3f37379bE",
    "_main",
]
__ZN36_$LT$T$u20$as$u20$core..any..Any$GT$7type_id17h2f565eadb07a19a7E
[
    "__ZN36_$LT$T$u20$as$u20$core..any..Any$GT$7type_id17h2f565eadb07a19a7E",
    "l___unnamed_6_harness-df4868ea1b5cadad.82ypsbytozw3vin3um71rau5z.rcgu.o",
    "__ZN94_$LT$generational_box..unsync..UnsyncStorage$u20$as$u20$generational_box..Storage$LT$T$GT$$GT$6new_rc17h56d8735c63aa68c5E",
    "__ZN16generational_box14Owner$LT$S$GT$21insert_rc_with_caller17h548d0f7f5e72e97eE",
    "__ZN14dioxus_signals10copy_value22CopyValue$LT$T$C$S$GT$15new_with_caller17hcb76596888c447d7E",
    "__ZN14dioxus_signals10copy_value22CopyValue$LT$T$C$S$GT$14new_maybe_sync17h1b6ad78b4df515afE",
    "__ZN14dioxus_signals6signal19Signal$LT$T$C$S$GT$14new_maybe_sync17ha7528862cb9c2381E",
    "__ZN14dioxus_signals6signal15Signal$LT$T$GT$3new17h7b6013ed01240d91E",
    "__ZN14dioxus_signals6global6signal125_$LT$impl$u20$dioxus_signals..global..InitializeFromFunction$LT$T$GT$$u20$for$u20$dioxus_signals..signal..Signal$LT$T$GT$$GT$24initialize_from_function17h7a63303ed51e7775E",
    "__ZN14dioxus_signals6global19Global$LT$T$C$R$GT$7resolve28_$u7b$$u7b$closure$u7d$$u7d$17h36e2699e94ee70c1E",
    "__ZN11dioxus_core7runtime7Runtime8on_scope17hdb6d3a3476122c40E",
    "__ZN11dioxus_core13scope_context46_$LT$impl$u20$dioxus_core..scopes..ScopeId$GT$10in_runtime17h8839846f97dbe1ddE",
    "__ZN14dioxus_signals6global19Global$LT$T$C$R$GT$7resolve17hfca595143252f355E",
    "__ZN94_$LT$dioxus_signals..global..Global$LT$T$C$R$GT$$u20$as$u20$dioxus_signals..read..Readable$GT$18try_read_unchecked17hdf66837701d74a96E",
    "__ZN14dioxus_signals4read8Readable8try_read17h4c98c1be567ce532E",
    "__ZN14dioxus_signals4read8Readable4read17he797328ed7d7b867E",
    "__ZN14dioxus_signals4read8Readable4with17h40ffefba83cf26acE",
    "__ZN14dioxus_signals6global6signal130_$LT$impl$u20$core..fmt..Display$u20$for$u20$dioxus_signals..global..Global$LT$dioxus_signals..signal..Signal$LT$T$GT$$C$T$GT$$GT$3fmt17h9bae2be454d81459E",
    "__ZN14dioxus_signals6global6signal130_$LT$impl$u20$core..fmt..Display$u20$for$u20$dioxus_signals..global..Global$LT$dioxus_signals..signal..Signal$LT$T$GT$$C$T$GT$$GT$33fmt$u7b$$u7b$reify.shim$u7d$$u7d$17h6614528e6ee54eebE",
    "__ZN7harness11GlobalInner17h56fe43aa3656219bE",
    "__ZN4core3ops8function2Fn4call17h3c8f851ee4dd175bE",
    "__ZN119_$LT$F$u20$as$u20$dioxus_core..properties..ComponentFunction$LT$$LP$$RP$$C$dioxus_core..properties..EmptyMarker$GT$$GT$7rebuild17hf7f1250efa3fb04cE",
    "__ZN100_$LT$dioxus_core..any_props..VProps$LT$F$C$P$C$M$GT$$u20$as$u20$dioxus_core..any_props..AnyProps$GT$6render28_$u7b$$u7b$closure$u7d$$u7d$17h025de8e22280b207E",
    "__ZN4core3ops8function6FnOnce9call_once17h371dcf20a99f261bE",
    "__ZN115_$LT$core..panic..unwind_safe..AssertUnwindSafe$LT$F$GT$$u20$as$u20$core..ops..function..FnOnce$LT$$LP$$RP$$GT$$GT$9call_once17h25a92dc564e3d7ffE",
    "__ZN3std9panicking3try7do_call17ha023efa9fb2ba8f7E",
    "__ZN3std5panic12catch_unwind17h48b71dec49934bf1E",
    "__ZN100_$LT$dioxus_core..any_props..VProps$LT$F$C$P$C$M$GT$$u20$as$u20$dioxus_core..any_props..AnyProps$GT$6render17h543a97c06bfefa3bE",
    "l___unnamed_4_harness-df4868ea1b5cadad.e382ndox9j839chz9esswif6u.rcgu.o",
    "__ZN100_$LT$dioxus_core..any_props..VProps$LT$F$C$P$C$M$GT$$u20$as$u20$dioxus_core..any_props..AnyProps$GT$9duplicate17h675ac73f4925ce25E",
    "l___unnamed_4_harness-df4868ea1b5cadad.c6wmz0dxwkc7r3o02wr81u9oy.rcgu.o",
    "__ZN11dioxus_core5nodes10VComponent3new17h993f8b3d9eb93954E",
    "__ZN11dioxus_core10properties10Properties15into_vcomponent17h965196ec13444056E",
    "__ZN7harness5Child17h2b32aeaba0b4c00dE",
    "__ZN4core3ops8function2Fn4call17hf86b26e1f09dbfc5E",
    "__ZN73_$LT$F$u20$as$u20$dioxus_core..properties..ComponentFunction$LT$P$GT$$GT$7rebuild17hdcc2e237eec08339E",
    "__ZN100_$LT$dioxus_core..any_props..VProps$LT$F$C$P$C$M$GT$$u20$as$u20$dioxus_core..any_props..AnyProps$GT$6render28_$u7b$$u7b$closure$u7d$$u7d$17hfbf53ec21013c460E",
    "__ZN4core3ops8function6FnOnce9call_once17hb1250f82ab822998E",
    "__ZN115_$LT$core..panic..unwind_safe..AssertUnwindSafe$LT$F$GT$$u20$as$u20$core..ops..function..FnOnce$LT$$LP$$RP$$GT$$GT$9call_once17h156df01ab880499cE",
    "__ZN3std9panicking3try7do_call17h12b00f5c1afca0e5E",
    "__ZN3std5panic12catch_unwind17h9623dc210b33032cE",
    "__ZN100_$LT$dioxus_core..any_props..VProps$LT$F$C$P$C$M$GT$$u20$as$u20$dioxus_core..any_props..AnyProps$GT$6render17h724478bd10ae45abE",
    "l___unnamed_8_harness-df4868ea1b5cadad.e382ndox9j839chz9esswif6u.rcgu.o",
    "__ZN100_$LT$dioxus_core..any_props..VProps$LT$F$C$P$C$M$GT$$u20$as$u20$dioxus_core..any_props..AnyProps$GT$9duplicate17hbcc315160800576aE",
    "l___unnamed_2_harness-df4868ea1b5cadad.c6wmz0dxwkc7r3o02wr81u9oy.rcgu.o",
    "__ZN11dioxus_core5nodes10VComponent3new17h64d3a0812e77f0edE",
    "__ZN11dioxus_core10properties10Properties15into_vcomponent17h7753673354bc1edfE",
    "__ZN7harness13zoom_controls17h3a73844835917e06E",
    "__ZN4core3ops8function2Fn4call17heb220dff9cb64346E",
    "__ZN119_$LT$F$u20$as$u20$dioxus_core..properties..ComponentFunction$LT$$LP$$RP$$C$dioxus_core..properties..EmptyMarker$GT$$GT$7rebuild17h1485b718be4dcc97E",
    "__ZN100_$LT$dioxus_core..any_props..VProps$LT$F$C$P$C$M$GT$$u20$as$u20$dioxus_core..any_props..AnyProps$GT$6render28_$u7b$$u7b$closure$u7d$$u7d$17h5f5c31c2c4fcd3edE",
    "__ZN4core3ops8function6FnOnce9call_once17haf610c889d773240E",
    "__ZN115_$LT$core..panic..unwind_safe..AssertUnwindSafe$LT$F$GT$$u20$as$u20$core..ops..function..FnOnce$LT$$LP$$RP$$GT$$GT$9call_once17he0621d6d235d0c08E",
    "__ZN3std9panicking3try7do_call17h8e7a94c382a5e60cE",
    "__ZN3std5panic12catch_unwind17h1f6291afe955bbfcE",
    "__ZN100_$LT$dioxus_core..any_props..VProps$LT$F$C$P$C$M$GT$$u20$as$u20$dioxus_core..any_props..AnyProps$GT$6render17h45480eba660d5148E",
    "l___unnamed_7_harness-df4868ea1b5cadad.c6wmz0dxwkc7r3o02wr81u9oy.rcgu.o",
    "__ZN11dioxus_core5nodes10VComponent3new17hcaaa6729c16dc137E",
    "__ZN11dioxus_core10properties10Properties15into_vcomponent17h79bafc80aea2aab7E",
    "___hotreload_start_app",
    "__ZN7harness3app17h400735d18e59eec4E",
    "__ZN7harness4main17h4654d77b3f37379bE",
    "_main",
]
__ZN95_$LT$dioxus_signals..signal..Signal$LT$T$C$S$GT$$u20$as$u20$dioxus_signals..write..Writable$GT$19try_write_unchecked17h4cba87c5ead1eb17E
[
    "__ZN95_$LT$dioxus_signals..signal..Signal$LT$T$C$S$GT$$u20$as$u20$dioxus_signals..write..Writable$GT$19try_write_unchecked17h4cba87c5ead1eb17E",
    "__ZN14dioxus_signals6global19Global$LT$T$C$R$GT$5write17h2228387cbea56f90E",
    "__ZN7harness11GlobalInner28_$u7b$$u7b$closure$u7d$$u7d$17hb42c5660948e5f3bE",
    "__ZN11dioxus_core6events26Callback$LT$Args$C$Ret$GT$3new28_$u7b$$u7b$closure$u7d$$u7d$17h6f96a569a9f12b13E",
    "l___unnamed_9_harness-df4868ea1b5cadad.egexdem49eejgynie32zwugcu.rcgu.o",
    "__ZN11dioxus_core6events26Callback$LT$Args$C$Ret$GT$3new17he13b8bd10ebc92d6E",
    "__ZN169_$LT$dioxus_core..events..Callback$LT$Args$C$Ret$GT$$u20$as$u20$dioxus_core..properties..SuperFrom$LT$Function$C$dioxus_core..events..MarkerWrapper$LT$Marker$GT$$GT$$GT$10super_from17h0f0cdd7a8468e271E",
    "__ZN69_$LT$T$u20$as$u20$dioxus_core..properties..SuperInto$LT$O$C$M$GT$$GT$10super_into17he799bb527ae17417E",
    "__ZN11dioxus_html6events5mouse7onclick28_$u7b$$u7b$closure$u7d$$u7d$17hcda8013b3fb0a7b1E",
    "__ZN11dioxus_core16generational_box10with_owner17hb0ca740788bcf0beE",
    "__ZN11dioxus_html6events5mouse7onclick17hcc75453cf267d2c1E",
    "__ZN11dioxus_html6events5mouse7onclick26call_with_explicit_closure17hc65524ea0f855dd4E",
    "__ZN7harness11GlobalInner17h56fe43aa3656219bE",
    "__ZN4core3ops8function2Fn4call17h3c8f851ee4dd175bE",
    "__ZN119_$LT$F$u20$as$u20$dioxus_core..properties..ComponentFunction$LT$$LP$$RP$$C$dioxus_core..properties..EmptyMarker$GT$$GT$7rebuild17hf7f1250efa3fb04cE",
    "__ZN100_$LT$dioxus_core..any_props..VProps$LT$F$C$P$C$M$GT$$u20$as$u20$dioxus_core..any_props..AnyProps$GT$6render28_$u7b$$u7b$closure$u7d$$u7d$17h025de8e22280b207E",
    "__ZN4core3ops8function6FnOnce9call_once17h371dcf20a99f261bE",
    "__ZN115_$LT$core..panic..unwind_safe..AssertUnwindSafe$LT$F$GT$$u20$as$u20$core..ops..function..FnOnce$LT$$LP$$RP$$GT$$GT$9call_once17h25a92dc564e3d7ffE",
    "__ZN3std9panicking3try7do_call17ha023efa9fb2ba8f7E",
    "__ZN3std5panic12catch_unwind17h48b71dec49934bf1E",
    "__ZN100_$LT$dioxus_core..any_props..VProps$LT$F$C$P$C$M$GT$$u20$as$u20$dioxus_core..any_props..AnyProps$GT$6render17h543a97c06bfefa3bE",
    "l___unnamed_4_harness-df4868ea1b5cadad.e382ndox9j839chz9esswif6u.rcgu.o",
    "__ZN100_$LT$dioxus_core..any_props..VProps$LT$F$C$P$C$M$GT$$u20$as$u20$dioxus_core..any_props..AnyProps$GT$9duplicate17h675ac73f4925ce25E",
    "l___unnamed_4_harness-df4868ea1b5cadad.c6wmz0dxwkc7r3o02wr81u9oy.rcgu.o",
    "__ZN11dioxus_core5nodes10VComponent3new17h993f8b3d9eb93954E",
    "__ZN11dioxus_core10properties10Properties15into_vcomponent17h965196ec13444056E",
    "__ZN7harness5Child17h2b32aeaba0b4c00dE",
    "__ZN4core3ops8function2Fn4call17hf86b26e1f09dbfc5E",
    "__ZN73_$LT$F$u20$as$u20$dioxus_core..properties..ComponentFunction$LT$P$GT$$GT$7rebuild17hdcc2e237eec08339E",
    "__ZN100_$LT$dioxus_core..any_props..VProps$LT$F$C$P$C$M$GT$$u20$as$u20$dioxus_core..any_props..AnyProps$GT$6render28_$u7b$$u7b$closure$u7d$$u7d$17hfbf53ec21013c460E",
    "__ZN4core3ops8function6FnOnce9call_once17hb1250f82ab822998E",
    "__ZN115_$LT$core..panic..unwind_safe..AssertUnwindSafe$LT$F$GT$$u20$as$u20$core..ops..function..FnOnce$LT$$LP$$RP$$GT$$GT$9call_once17h156df01ab880499cE",
    "__ZN3std9panicking3try7do_call17h12b00f5c1afca0e5E",
    "__ZN3std5panic12catch_unwind17h9623dc210b33032cE",
    "__ZN100_$LT$dioxus_core..any_props..VProps$LT$F$C$P$C$M$GT$$u20$as$u20$dioxus_core..any_props..AnyProps$GT$6render17h724478bd10ae45abE",
    "l___unnamed_8_harness-df4868ea1b5cadad.e382ndox9j839chz9esswif6u.rcgu.o",
    "__ZN100_$LT$dioxus_core..any_props..VProps$LT$F$C$P$C$M$GT$$u20$as$u20$dioxus_core..any_props..AnyProps$GT$9duplicate17hbcc315160800576aE",
    "l___unnamed_2_harness-df4868ea1b5cadad.c6wmz0dxwkc7r3o02wr81u9oy.rcgu.o",
    "__ZN11dioxus_core5nodes10VComponent3new17h64d3a0812e77f0edE",
    "__ZN11dioxus_core10properties10Properties15into_vcomponent17h7753673354bc1edfE",
    "__ZN7harness13zoom_controls17h3a73844835917e06E",
    "__ZN4core3ops8function2Fn4call17heb220dff9cb64346E",
    "__ZN119_$LT$F$u20$as$u20$dioxus_core..properties..ComponentFunction$LT$$LP$$RP$$C$dioxus_core..properties..EmptyMarker$GT$$GT$7rebuild17h1485b718be4dcc97E",
    "__ZN100_$LT$dioxus_core..any_props..VProps$LT$F$C$P$C$M$GT$$u20$as$u20$dioxus_core..any_props..AnyProps$GT$6render28_$u7b$$u7b$closure$u7d$$u7d$17h5f5c31c2c4fcd3edE",
    "__ZN4core3ops8function6FnOnce9call_once17haf610c889d773240E",
    "__ZN115_$LT$core..panic..unwind_safe..AssertUnwindSafe$LT$F$GT$$u20$as$u20$core..ops..function..FnOnce$LT$$LP$$RP$$GT$$GT$9call_once17he0621d6d235d0c08E",
    "__ZN3std9panicking3try7do_call17h8e7a94c382a5e60cE",
    "__ZN3std5panic12catch_unwind17h1f6291afe955bbfcE",
    "__ZN100_$LT$dioxus_core..any_props..VProps$LT$F$C$P$C$M$GT$$u20$as$u20$dioxus_core..any_props..AnyProps$GT$6render17h45480eba660d5148E",
    "l___unnamed_7_harness-df4868ea1b5cadad.c6wmz0dxwkc7r3o02wr81u9oy.rcgu.o",
    "__ZN11dioxus_core5nodes10VComponent3new17hcaaa6729c16dc137E",
    "__ZN11dioxus_core10properties10Properties15into_vcomponent17h79bafc80aea2aab7E",
    "___hotreload_start_app",
    "__ZN7harness3app17h400735d18e59eec4E",
    "__ZN7harness4main17h4654d77b3f37379bE",
    "_main",
]
l___unnamed_8_harness-df4868ea1b5cadad.82ypsbytozw3vin3um71rau5z.rcgu.o
[
    "l___unnamed_8_harness-df4868ea1b5cadad.82ypsbytozw3vin3um71rau5z.rcgu.o",
    "__ZN94_$LT$generational_box..unsync..UnsyncStorage$u20$as$u20$generational_box..Storage$LT$T$GT$$GT$6new_rc17he9a14f550b3a1c17E",
    "__ZN16generational_box14Owner$LT$S$GT$21insert_rc_with_caller17h5c11a5ac62324d3bE",
    "__ZN16generational_box14Owner$LT$S$GT$9insert_rc17h51b125d6d8d0908aE",
    "__ZN11dioxus_core6events26Callback$LT$Args$C$Ret$GT$3new17h0d5b6bc4ba7e906eE",
    "__ZN169_$LT$dioxus_core..events..Callback$LT$Args$C$Ret$GT$$u20$as$u20$dioxus_core..properties..SuperFrom$LT$Function$C$dioxus_core..events..MarkerWrapper$LT$Marker$GT$$GT$$GT$10super_from17hfbc2506b0c814f72E",
    "__ZN69_$LT$T$u20$as$u20$dioxus_core..properties..SuperInto$LT$O$C$M$GT$$GT$10super_into17h72cad2ebed422a02E",
    "__ZN11dioxus_html6events4form7oninput28_$u7b$$u7b$closure$u7d$$u7d$17hf90e756bfc39cb18E",
    "__ZN11dioxus_core16generational_box10with_owner17h61fb2a47ad2d958dE",
    "__ZN11dioxus_html6events4form7oninput17h0e0d2b3406b6b3ffE",
    "__ZN11dioxus_html6events4form7oninput26call_with_explicit_closure17h5d3d5eabb32b444bE",
    "__ZN7harness12AddingLogger17h283889c677656013E",
    "__ZN4core3ops8function2Fn4call17hc1d984302f90d6b5E",
    "__ZN119_$LT$F$u20$as$u20$dioxus_core..properties..ComponentFunction$LT$$LP$$RP$$C$dioxus_core..properties..EmptyMarker$GT$$GT$7rebuild17ha7658b769122d22aE",
    "__ZN100_$LT$dioxus_core..any_props..VProps$LT$F$C$P$C$M$GT$$u20$as$u20$dioxus_core..any_props..AnyProps$GT$6render28_$u7b$$u7b$closure$u7d$$u7d$17h90af567fab99d4f7E",
    "__ZN4core3ops8function6FnOnce9call_once17he98e8829e2ade214E",
    "__ZN115_$LT$core..panic..unwind_safe..AssertUnwindSafe$LT$F$GT$$u20$as$u20$core..ops..function..FnOnce$LT$$LP$$RP$$GT$$GT$9call_once17h8b675a067d6b378fE",
    "__ZN3std9panicking3try7do_call17h042d1df4c42c9398E",
    "__ZN3std5panic12catch_unwind17hebad81528f98f478E",
    "__ZN100_$LT$dioxus_core..any_props..VProps$LT$F$C$P$C$M$GT$$u20$as$u20$dioxus_core..any_props..AnyProps$GT$6render17h6d3194045a8447dcE",
    "l___unnamed_6_harness-df4868ea1b5cadad.c6wmz0dxwkc7r3o02wr81u9oy.rcgu.o",
    "__ZN11dioxus_core5nodes10VComponent3new17hc4f98269bb25b058E",
    "__ZN11dioxus_core10properties10Properties15into_vcomponent17had2a4ffa139fd691E",
    "__ZN7harness5Child17h2b32aeaba0b4c00dE",
    "__ZN4core3ops8function2Fn4call17hf86b26e1f09dbfc5E",
    "__ZN73_$LT$F$u20$as$u20$dioxus_core..properties..ComponentFunction$LT$P$GT$$GT$7rebuild17hdcc2e237eec08339E",
    "__ZN100_$LT$dioxus_core..any_props..VProps$LT$F$C$P$C$M$GT$$u20$as$u20$dioxus_core..any_props..AnyProps$GT$6render28_$u7b$$u7b$closure$u7d$$u7d$17hfbf53ec21013c460E",
    "__ZN4core3ops8function6FnOnce9call_once17hb1250f82ab822998E",
    "__ZN115_$LT$core..panic..unwind_safe..AssertUnwindSafe$LT$F$GT$$u20$as$u20$core..ops..function..FnOnce$LT$$LP$$RP$$GT$$GT$9call_once17h156df01ab880499cE",
    "__ZN3std9panicking3try7do_call17h12b00f5c1afca0e5E",
    "__ZN3std5panic12catch_unwind17h9623dc210b33032cE",
    "__ZN100_$LT$dioxus_core..any_props..VProps$LT$F$C$P$C$M$GT$$u20$as$u20$dioxus_core..any_props..AnyProps$GT$6render17h724478bd10ae45abE",
    "l___unnamed_8_harness-df4868ea1b5cadad.e382ndox9j839chz9esswif6u.rcgu.o",
    "__ZN100_$LT$dioxus_core..any_props..VProps$LT$F$C$P$C$M$GT$$u20$as$u20$dioxus_core..any_props..AnyProps$GT$9duplicate17hbcc315160800576aE",
    "l___unnamed_2_harness-df4868ea1b5cadad.c6wmz0dxwkc7r3o02wr81u9oy.rcgu.o",
    "__ZN11dioxus_core5nodes10VComponent3new17h64d3a0812e77f0edE",
    "__ZN11dioxus_core10properties10Properties15into_vcomponent17h7753673354bc1edfE",
    "__ZN7harness13zoom_controls17h3a73844835917e06E",
    "__ZN4core3ops8function2Fn4call17heb220dff9cb64346E",
    "__ZN119_$LT$F$u20$as$u20$dioxus_core..properties..ComponentFunction$LT$$LP$$RP$$C$dioxus_core..properties..EmptyMarker$GT$$GT$7rebuild17h1485b718be4dcc97E",
    "__ZN100_$LT$dioxus_core..any_props..VProps$LT$F$C$P$C$M$GT$$u20$as$u20$dioxus_core..any_props..AnyProps$GT$6render28_$u7b$$u7b$closure$u7d$$u7d$17h5f5c31c2c4fcd3edE",
    "__ZN4core3ops8function6FnOnce9call_once17haf610c889d773240E",
    "__ZN115_$LT$core..panic..unwind_safe..AssertUnwindSafe$LT$F$GT$$u20$as$u20$core..ops..function..FnOnce$LT$$LP$$RP$$GT$$GT$9call_once17he0621d6d235d0c08E",
    "__ZN3std9panicking3try7do_call17h8e7a94c382a5e60cE",
    "__ZN3std5panic12catch_unwind17h1f6291afe955bbfcE",
    "__ZN100_$LT$dioxus_core..any_props..VProps$LT$F$C$P$C$M$GT$$u20$as$u20$dioxus_core..any_props..AnyProps$GT$6render17h45480eba660d5148E",
    "l___unnamed_7_harness-df4868ea1b5cadad.c6wmz0dxwkc7r3o02wr81u9oy.rcgu.o",
    "__ZN11dioxus_core5nodes10VComponent3new17hcaaa6729c16dc137E",
    "__ZN11dioxus_core10properties10Properties15into_vcomponent17h79bafc80aea2aab7E",
    "___hotreload_start_app",
    "__ZN7harness3app17h400735d18e59eec4E",
    "__ZN7harness4main17h4654d77b3f37379bE",
    "_main",
]
GCC_except_table57
[]
l___unnamed_26_harness-df4868ea1b5cadad.5qrn0xfhbv2rouh4f52itu55i.rcgu.o
[
    "l___unnamed_26_harness-df4868ea1b5cadad.5qrn0xfhbv2rouh4f52itu55i.rcgu.o",
    "l___unnamed_8_harness-df4868ea1b5cadad.5qrn0xfhbv2rouh4f52itu55i.rcgu.o",
    "__ZN14dioxus_signals6global6signal125_$LT$impl$u20$dioxus_signals..global..InitializeFromFunction$LT$T$GT$$u20$for$u20$dioxus_signals..signal..Signal$LT$T$GT$$GT$24initialize_from_function17h7a63303ed51e7775E",
    "__ZN14dioxus_signals6global19Global$LT$T$C$R$GT$7resolve28_$u7b$$u7b$closure$u7d$$u7d$17h36e2699e94ee70c1E",
    "__ZN11dioxus_core7runtime7Runtime8on_scope17hdb6d3a3476122c40E",
    "__ZN11dioxus_core13scope_context46_$LT$impl$u20$dioxus_core..scopes..ScopeId$GT$10in_runtime17h8839846f97dbe1ddE",
    "__ZN14dioxus_signals6global19Global$LT$T$C$R$GT$7resolve17hfca595143252f355E",
    "__ZN94_$LT$dioxus_signals..global..Global$LT$T$C$R$GT$$u20$as$u20$dioxus_signals..read..Readable$GT$18try_read_unchecked17hdf66837701d74a96E",
    "__ZN14dioxus_signals4read8Readable8try_read17h4c98c1be567ce532E",
    "__ZN14dioxus_signals4read8Readable4read17he797328ed7d7b867E",
    "__ZN14dioxus_signals4read8Readable4with17h40ffefba83cf26acE",
    "__ZN14dioxus_signals6global6signal130_$LT$impl$u20$core..fmt..Display$u20$for$u20$dioxus_signals..global..Global$LT$dioxus_signals..signal..Signal$LT$T$GT$$C$T$GT$$GT$3fmt17h9bae2be454d81459E",
    "__ZN14dioxus_signals6global6signal130_$LT$impl$u20$core..fmt..Display$u20$for$u20$dioxus_signals..global..Global$LT$dioxus_signals..signal..Signal$LT$T$GT$$C$T$GT$$GT$33fmt$u7b$$u7b$reify.shim$u7d$$u7d$17h6614528e6ee54eebE",
    "__ZN7harness11GlobalInner17h56fe43aa3656219bE",
    "__ZN4core3ops8function2Fn4call17h3c8f851ee4dd175bE",
    "__ZN119_$LT$F$u20$as$u20$dioxus_core..properties..ComponentFunction$LT$$LP$$RP$$C$dioxus_core..properties..EmptyMarker$GT$$GT$7rebuild17hf7f1250efa3fb04cE",
    "__ZN100_$LT$dioxus_core..any_props..VProps$LT$F$C$P$C$M$GT$$u20$as$u20$dioxus_core..any_props..AnyProps$GT$6render28_$u7b$$u7b$closure$u7d$$u7d$17h025de8e22280b207E",
    "__ZN4core3ops8function6FnOnce9call_once17h371dcf20a99f261bE",
    "__ZN115_$LT$core..panic..unwind_safe..AssertUnwindSafe$LT$F$GT$$u20$as$u20$core..ops..function..FnOnce$LT$$LP$$RP$$GT$$GT$9call_once17h25a92dc564e3d7ffE",
    "__ZN3std9panicking3try7do_call17ha023efa9fb2ba8f7E",
    "__ZN3std5panic12catch_unwind17h48b71dec49934bf1E",
    "__ZN100_$LT$dioxus_core..any_props..VProps$LT$F$C$P$C$M$GT$$u20$as$u20$dioxus_core..any_props..AnyProps$GT$6render17h543a97c06bfefa3bE",
    "l___unnamed_4_harness-df4868ea1b5cadad.e382ndox9j839chz9esswif6u.rcgu.o",
    "__ZN100_$LT$dioxus_core..any_props..VProps$LT$F$C$P$C$M$GT$$u20$as$u20$dioxus_core..any_props..AnyProps$GT$9duplicate17h675ac73f4925ce25E",
    "l___unnamed_4_harness-df4868ea1b5cadad.c6wmz0dxwkc7r3o02wr81u9oy.rcgu.o",
    "__ZN11dioxus_core5nodes10VComponent3new17h993f8b3d9eb93954E",
    "__ZN11dioxus_core10properties10Properties15into_vcomponent17h965196ec13444056E",
    "__ZN7harness5Child17h2b32aeaba0b4c00dE",
    "__ZN4core3ops8function2Fn4call17hf86b26e1f09dbfc5E",
    "__ZN73_$LT$F$u20$as$u20$dioxus_core..properties..ComponentFunction$LT$P$GT$$GT$7rebuild17hdcc2e237eec08339E",
    "__ZN100_$LT$dioxus_core..any_props..VProps$LT$F$C$P$C$M$GT$$u20$as$u20$dioxus_core..any_props..AnyProps$GT$6render28_$u7b$$u7b$closure$u7d$$u7d$17hfbf53ec21013c460E",
    "__ZN4core3ops8function6FnOnce9call_once17hb1250f82ab822998E",
    "__ZN115_$LT$core..panic..unwind_safe..AssertUnwindSafe$LT$F$GT$$u20$as$u20$core..ops..function..FnOnce$LT$$LP$$RP$$GT$$GT$9call_once17h156df01ab880499cE",
    "__ZN3std9panicking3try7do_call17h12b00f5c1afca0e5E",
    "__ZN3std5panic12catch_unwind17h9623dc210b33032cE",
    "__ZN100_$LT$dioxus_core..any_props..VProps$LT$F$C$P$C$M$GT$$u20$as$u20$dioxus_core..any_props..AnyProps$GT$6render17h724478bd10ae45abE",
    "l___unnamed_8_harness-df4868ea1b5cadad.e382ndox9j839chz9esswif6u.rcgu.o",
    "__ZN100_$LT$dioxus_core..any_props..VProps$LT$F$C$P$C$M$GT$$u20$as$u20$dioxus_core..any_props..AnyProps$GT$9duplicate17hbcc315160800576aE",
    "l___unnamed_2_harness-df4868ea1b5cadad.c6wmz0dxwkc7r3o02wr81u9oy.rcgu.o",
    "__ZN11dioxus_core5nodes10VComponent3new17h64d3a0812e77f0edE",
    "__ZN11dioxus_core10properties10Properties15into_vcomponent17h7753673354bc1edfE",
    "__ZN7harness13zoom_controls17h3a73844835917e06E",
    "__ZN4core3ops8function2Fn4call17heb220dff9cb64346E",
    "__ZN119_$LT$F$u20$as$u20$dioxus_core..properties..ComponentFunction$LT$$LP$$RP$$C$dioxus_core..properties..EmptyMarker$GT$$GT$7rebuild17h1485b718be4dcc97E",
    "__ZN100_$LT$dioxus_core..any_props..VProps$LT$F$C$P$C$M$GT$$u20$as$u20$dioxus_core..any_props..AnyProps$GT$6render28_$u7b$$u7b$closure$u7d$$u7d$17h5f5c31c2c4fcd3edE",
    "__ZN4core3ops8function6FnOnce9call_once17haf610c889d773240E",
    "__ZN115_$LT$core..panic..unwind_safe..AssertUnwindSafe$LT$F$GT$$u20$as$u20$core..ops..function..FnOnce$LT$$LP$$RP$$GT$$GT$9call_once17he0621d6d235d0c08E",
    "__ZN3std9panicking3try7do_call17h8e7a94c382a5e60cE",
    "__ZN3std5panic12catch_unwind17h1f6291afe955bbfcE",
    "__ZN100_$LT$dioxus_core..any_props..VProps$LT$F$C$P$C$M$GT$$u20$as$u20$dioxus_core..any_props..AnyProps$GT$6render17h45480eba660d5148E",
    "l___unnamed_7_harness-df4868ea1b5cadad.c6wmz0dxwkc7r3o02wr81u9oy.rcgu.o",
    "__ZN11dioxus_core5nodes10VComponent3new17hcaaa6729c16dc137E",
    "__ZN11dioxus_core10properties10Properties15into_vcomponent17h79bafc80aea2aab7E",
    "___hotreload_start_app",
    "__ZN7harness3app17h400735d18e59eec4E",
    "__ZN7harness4main17h4654d77b3f37379bE",
    "_main",
]
ltmp6_harness-df4868ea1b5cadad.5qrn0xfhbv2rouh4f52itu55i.rcgu.o
[]
GCC_except_table55
[]
ltmp3_harness-df4868ea1b5cadad.6pprglsuqvhp8g87vi52aqy3z.rcgu.o
[]
__ZN14dioxus_signals8warnings41__signal_read_and_write_in_reactive_scope23__Callable$LT$T$C$S$GT$16__run_if_enabled17hef120138db1f09c8E
[
    "__ZN14dioxus_signals8warnings41__signal_read_and_write_in_reactive_scope23__Callable$LT$T$C$S$GT$16__run_if_enabled17hef120138db1f09c8E",
    "l___unnamed_3_harness-df4868ea1b5cadad.a64hlspyskaofkyts3cee93he.rcgu.o",
    "__ZN136_$LT$dioxus_signals..warnings..__signal_read_and_write_in_reactive_scope..__Callable$LT$T$C$S$GT$$u20$as$u20$core..ops..deref..Deref$GT$5deref17hcdc2806cc5e73aefE",
    "__ZN99_$LT$dioxus_signals..signal..SignalSubscriberDrop$LT$T$C$S$GT$$u20$as$u20$core..ops..drop..Drop$GT$4drop17h439b01a79c622f40E",
    "__ZN4core3ptr136drop_in_place$LT$dioxus_signals..signal..SignalSubscriberDrop$LT$alloc..string..String$C$generational_box..unsync..UnsyncStorage$GT$$GT$17h76f16bc26a5eceaeE",
    "l___unnamed_19_harness-df4868ea1b5cadad.5qrn0xfhbv2rouh4f52itu55i.rcgu.o",
    "__ZN95_$LT$dioxus_signals..signal..Signal$LT$T$C$S$GT$$u20$as$u20$dioxus_signals..write..Writable$GT$19try_write_unchecked28_$u7b$$u7b$closure$u7d$$u7d$17h865a521fd903c3c5E",
    "__ZN4core6result19Result$LT$T$C$E$GT$3map17h24e35ff5a4f7e733E",
    "__ZN95_$LT$dioxus_signals..signal..Signal$LT$T$C$S$GT$$u20$as$u20$dioxus_signals..write..Writable$GT$19try_write_unchecked17h9f54c2f8e942c2a4E",
    "__ZN14dioxus_signals5write8Writable9try_write17h3a2a0d9e10106e27E",
    "__ZN14dioxus_signals5write8Writable5write17h65cbdb1d141bcb4aE",
    "__ZN14dioxus_signals5write8Writable3set17h3a13261e78c59963E",
    "__ZN7harness12AddingLogger28_$u7b$$u7b$closure$u7d$$u7d$17h7550ef02f1861627E",
    "__ZN7harness12AddingLogger28_$u7b$$u7b$closure$u7d$$u7d$17hd8e6be41b9a84583E",
    "__ZN11dioxus_core6events26Callback$LT$Args$C$Ret$GT$3new28_$u7b$$u7b$closure$u7d$$u7d$17hf771f51420dabaaeE",
    "l___unnamed_11_harness-df4868ea1b5cadad.egexdem49eejgynie32zwugcu.rcgu.o",
    "__ZN11dioxus_core6events26Callback$LT$Args$C$Ret$GT$3new17hf49a7ba233cfcb4bE",
    "__ZN169_$LT$dioxus_core..events..Callback$LT$Args$C$Ret$GT$$u20$as$u20$dioxus_core..properties..SuperFrom$LT$Function$C$dioxus_core..events..MarkerWrapper$LT$Marker$GT$$GT$$GT$10super_from17ha0eb73359dcf2b5fE",
    "__ZN69_$LT$T$u20$as$u20$dioxus_core..properties..SuperInto$LT$O$C$M$GT$$GT$10super_into17he725d2a59af62b36E",
    "__ZN11dioxus_html6events5mouse7onclick28_$u7b$$u7b$closure$u7d$$u7d$17h088593d399a17bb2E",
    "__ZN11dioxus_core16generational_box10with_owner17ha770f68327e79831E",
    "__ZN11dioxus_html6events5mouse7onclick17h44f66615c6057071E",
    "__ZN11dioxus_html6events5mouse7onclick26call_with_explicit_closure17h85538a841367551bE",
    "__ZN7harness12AddingLogger17h283889c677656013E",
    "__ZN4core3ops8function2Fn4call17hc1d984302f90d6b5E",
    "__ZN119_$LT$F$u20$as$u20$dioxus_core..properties..ComponentFunction$LT$$LP$$RP$$C$dioxus_core..properties..EmptyMarker$GT$$GT$7rebuild17ha7658b769122d22aE",
    "__ZN100_$LT$dioxus_core..any_props..VProps$LT$F$C$P$C$M$GT$$u20$as$u20$dioxus_core..any_props..AnyProps$GT$6render28_$u7b$$u7b$closure$u7d$$u7d$17h90af567fab99d4f7E",
    "__ZN4core3ops8function6FnOnce9call_once17he98e8829e2ade214E",
    "__ZN115_$LT$core..panic..unwind_safe..AssertUnwindSafe$LT$F$GT$$u20$as$u20$core..ops..function..FnOnce$LT$$LP$$RP$$GT$$GT$9call_once17h8b675a067d6b378fE",
    "__ZN3std9panicking3try7do_call17h042d1df4c42c9398E",
    "__ZN3std5panic12catch_unwind17hebad81528f98f478E",
    "__ZN100_$LT$dioxus_core..any_props..VProps$LT$F$C$P$C$M$GT$$u20$as$u20$dioxus_core..any_props..AnyProps$GT$6render17h6d3194045a8447dcE",
    "l___unnamed_6_harness-df4868ea1b5cadad.c6wmz0dxwkc7r3o02wr81u9oy.rcgu.o",
    "__ZN11dioxus_core5nodes10VComponent3new17hc4f98269bb25b058E",
    "__ZN11dioxus_core10properties10Properties15into_vcomponent17had2a4ffa139fd691E",
    "__ZN7harness5Child17h2b32aeaba0b4c00dE",
    "__ZN4core3ops8function2Fn4call17hf86b26e1f09dbfc5E",
    "__ZN73_$LT$F$u20$as$u20$dioxus_core..properties..ComponentFunction$LT$P$GT$$GT$7rebuild17hdcc2e237eec08339E",
    "__ZN100_$LT$dioxus_core..any_props..VProps$LT$F$C$P$C$M$GT$$u20$as$u20$dioxus_core..any_props..AnyProps$GT$6render28_$u7b$$u7b$closure$u7d$$u7d$17hfbf53ec21013c460E",
    "__ZN4core3ops8function6FnOnce9call_once17hb1250f82ab822998E",
    "__ZN115_$LT$core..panic..unwind_safe..AssertUnwindSafe$LT$F$GT$$u20$as$u20$core..ops..function..FnOnce$LT$$LP$$RP$$GT$$GT$9call_once17h156df01ab880499cE",
    "__ZN3std9panicking3try7do_call17h12b00f5c1afca0e5E",
    "__ZN3std5panic12catch_unwind17h9623dc210b33032cE",
    "__ZN100_$LT$dioxus_core..any_props..VProps$LT$F$C$P$C$M$GT$$u20$as$u20$dioxus_core..any_props..AnyProps$GT$6render17h724478bd10ae45abE",
    "l___unnamed_8_harness-df4868ea1b5cadad.e382ndox9j839chz9esswif6u.rcgu.o",
    "__ZN100_$LT$dioxus_core..any_props..VProps$LT$F$C$P$C$M$GT$$u20$as$u20$dioxus_core..any_props..AnyProps$GT$9duplicate17hbcc315160800576aE",
    "l___unnamed_2_harness-df4868ea1b5cadad.c6wmz0dxwkc7r3o02wr81u9oy.rcgu.o",
    "__ZN11dioxus_core5nodes10VComponent3new17h64d3a0812e77f0edE",
    "__ZN11dioxus_core10properties10Properties15into_vcomponent17h7753673354bc1edfE",
    "__ZN7harness13zoom_controls17h3a73844835917e06E",
    "__ZN4core3ops8function2Fn4call17heb220dff9cb64346E",
    "__ZN119_$LT$F$u20$as$u20$dioxus_core..properties..ComponentFunction$LT$$LP$$RP$$C$dioxus_core..properties..EmptyMarker$GT$$GT$7rebuild17h1485b718be4dcc97E",
    "__ZN100_$LT$dioxus_core..any_props..VProps$LT$F$C$P$C$M$GT$$u20$as$u20$dioxus_core..any_props..AnyProps$GT$6render28_$u7b$$u7b$closure$u7d$$u7d$17h5f5c31c2c4fcd3edE",
    "__ZN4core3ops8function6FnOnce9call_once17haf610c889d773240E",
    "__ZN115_$LT$core..panic..unwind_safe..AssertUnwindSafe$LT$F$GT$$u20$as$u20$core..ops..function..FnOnce$LT$$LP$$RP$$GT$$GT$9call_once17he0621d6d235d0c08E",
    "__ZN3std9panicking3try7do_call17h8e7a94c382a5e60cE",
    "__ZN3std5panic12catch_unwind17h1f6291afe955bbfcE",
    "__ZN100_$LT$dioxus_core..any_props..VProps$LT$F$C$P$C$M$GT$$u20$as$u20$dioxus_core..any_props..AnyProps$GT$6render17h45480eba660d5148E",
    "l___unnamed_7_harness-df4868ea1b5cadad.c6wmz0dxwkc7r3o02wr81u9oy.rcgu.o",
    "__ZN11dioxus_core5nodes10VComponent3new17hcaaa6729c16dc137E",
    "__ZN11dioxus_core10properties10Properties15into_vcomponent17h79bafc80aea2aab7E",
    "___hotreload_start_app",
    "__ZN7harness3app17h400735d18e59eec4E",
    "__ZN7harness4main17h4654d77b3f37379bE",
    "_main",
]
__ZN14dioxus_signals8warnings41__signal_read_and_write_in_reactive_scope23__Callable$LT$T$C$S$GT$16__run_if_enabled28_$u7b$$u7b$closure$u7d$$u7d$39signal_read_and_write_in_reactive_scope17h221e571ef7520107E
[
    "__ZN14dioxus_signals8warnings41__signal_read_and_write_in_reactive_scope23__Callable$LT$T$C$S$GT$16__run_if_enabled28_$u7b$$u7b$closure$u7d$$u7d$39signal_read_and_write_in_reactive_scope17h221e571ef7520107E",
    "__ZN14dioxus_signals8warnings41__signal_read_and_write_in_reactive_scope23__Callable$LT$T$C$S$GT$16__run_if_enabled28_$u7b$$u7b$closure$u7d$$u7d$17h9b61e901979ebe37E",
    "__ZN8warnings8warnings9WarningId10if_enabled17h1e1ada791f843c4bE",
    "__ZN14dioxus_signals8warnings41__signal_read_and_write_in_reactive_scope23__Callable$LT$T$C$S$GT$16__run_if_enabled17hbe10b8bfcdd507adE",
    "l___unnamed_1_harness-df4868ea1b5cadad.a64hlspyskaofkyts3cee93he.rcgu.o",
    "__ZN136_$LT$dioxus_signals..warnings..__signal_read_and_write_in_reactive_scope..__Callable$LT$T$C$S$GT$$u20$as$u20$core..ops..deref..Deref$GT$5deref17h12fc0a983cda1955E",
    "__ZN99_$LT$dioxus_signals..signal..SignalSubscriberDrop$LT$T$C$S$GT$$u20$as$u20$core..ops..drop..Drop$GT$4drop17hcae7f731b4ba3f74E",
    "__ZN4core3ptr159drop_in_place$LT$dioxus_signals..signal..SignalSubscriberDrop$LT$alloc..vec..Vec$LT$alloc..string..String$GT$$C$generational_box..unsync..UnsyncStorage$GT$$GT$17hd180e51942450b51E",
    "l___unnamed_20_harness-df4868ea1b5cadad.5qrn0xfhbv2rouh4f52itu55i.rcgu.o",
    "__ZN95_$LT$dioxus_signals..signal..Signal$LT$T$C$S$GT$$u20$as$u20$dioxus_signals..write..Writable$GT$19try_write_unchecked28_$u7b$$u7b$closure$u7d$$u7d$17hc7cbd98efeef2228E",
    "__ZN4core6result19Result$LT$T$C$E$GT$3map17h209be385f2abb021E",
    "__ZN95_$LT$dioxus_signals..signal..Signal$LT$T$C$S$GT$$u20$as$u20$dioxus_signals..write..Writable$GT$19try_write_unchecked17h8e8e363f48a63db6E",
    "__ZN14dioxus_signals5write8Writable9try_write17h9fa331eedb586fe4E",
    "__ZN14dioxus_signals5write8Writable5write17h9a26affdc2ccd616E",
    "__ZN7harness12AddingLogger28_$u7b$$u7b$closure$u7d$$u7d$17h7550ef02f1861627E",
    "__ZN7harness12AddingLogger28_$u7b$$u7b$closure$u7d$$u7d$17hd8e6be41b9a84583E",
    "__ZN11dioxus_core6events26Callback$LT$Args$C$Ret$GT$3new28_$u7b$$u7b$closure$u7d$$u7d$17hf771f51420dabaaeE",
    "l___unnamed_11_harness-df4868ea1b5cadad.egexdem49eejgynie32zwugcu.rcgu.o",
    "__ZN11dioxus_core6events26Callback$LT$Args$C$Ret$GT$3new17hf49a7ba233cfcb4bE",
    "__ZN169_$LT$dioxus_core..events..Callback$LT$Args$C$Ret$GT$$u20$as$u20$dioxus_core..properties..SuperFrom$LT$Function$C$dioxus_core..events..MarkerWrapper$LT$Marker$GT$$GT$$GT$10super_from17ha0eb73359dcf2b5fE",
    "__ZN69_$LT$T$u20$as$u20$dioxus_core..properties..SuperInto$LT$O$C$M$GT$$GT$10super_into17he725d2a59af62b36E",
    "__ZN11dioxus_html6events5mouse7onclick28_$u7b$$u7b$closure$u7d$$u7d$17h088593d399a17bb2E",
    "__ZN11dioxus_core16generational_box10with_owner17ha770f68327e79831E",
    "__ZN11dioxus_html6events5mouse7onclick17h44f66615c6057071E",
    "__ZN11dioxus_html6events5mouse7onclick26call_with_explicit_closure17h85538a841367551bE",
    "__ZN7harness12AddingLogger17h283889c677656013E",
    "__ZN4core3ops8function2Fn4call17hc1d984302f90d6b5E",
    "__ZN119_$LT$F$u20$as$u20$dioxus_core..properties..ComponentFunction$LT$$LP$$RP$$C$dioxus_core..properties..EmptyMarker$GT$$GT$7rebuild17ha7658b769122d22aE",
    "__ZN100_$LT$dioxus_core..any_props..VProps$LT$F$C$P$C$M$GT$$u20$as$u20$dioxus_core..any_props..AnyProps$GT$6render28_$u7b$$u7b$closure$u7d$$u7d$17h90af567fab99d4f7E",
    "__ZN4core3ops8function6FnOnce9call_once17he98e8829e2ade214E",
    "__ZN115_$LT$core..panic..unwind_safe..AssertUnwindSafe$LT$F$GT$$u20$as$u20$core..ops..function..FnOnce$LT$$LP$$RP$$GT$$GT$9call_once17h8b675a067d6b378fE",
    "__ZN3std9panicking3try7do_call17h042d1df4c42c9398E",
    "__ZN3std5panic12catch_unwind17hebad81528f98f478E",
    "__ZN100_$LT$dioxus_core..any_props..VProps$LT$F$C$P$C$M$GT$$u20$as$u20$dioxus_core..any_props..AnyProps$GT$6render17h6d3194045a8447dcE",
    "l___unnamed_6_harness-df4868ea1b5cadad.c6wmz0dxwkc7r3o02wr81u9oy.rcgu.o",
    "__ZN11dioxus_core5nodes10VComponent3new17hc4f98269bb25b058E",
    "__ZN11dioxus_core10properties10Properties15into_vcomponent17had2a4ffa139fd691E",
    "__ZN7harness5Child17h2b32aeaba0b4c00dE",
    "__ZN4core3ops8function2Fn4call17hf86b26e1f09dbfc5E",
    "__ZN73_$LT$F$u20$as$u20$dioxus_core..properties..ComponentFunction$LT$P$GT$$GT$7rebuild17hdcc2e237eec08339E",
    "__ZN100_$LT$dioxus_core..any_props..VProps$LT$F$C$P$C$M$GT$$u20$as$u20$dioxus_core..any_props..AnyProps$GT$6render28_$u7b$$u7b$closure$u7d$$u7d$17hfbf53ec21013c460E",
    "__ZN4core3ops8function6FnOnce9call_once17hb1250f82ab822998E",
    "__ZN115_$LT$core..panic..unwind_safe..AssertUnwindSafe$LT$F$GT$$u20$as$u20$core..ops..function..FnOnce$LT$$LP$$RP$$GT$$GT$9call_once17h156df01ab880499cE",
    "__ZN3std9panicking3try7do_call17h12b00f5c1afca0e5E",
    "__ZN3std5panic12catch_unwind17h9623dc210b33032cE",
    "__ZN100_$LT$dioxus_core..any_props..VProps$LT$F$C$P$C$M$GT$$u20$as$u20$dioxus_core..any_props..AnyProps$GT$6render17h724478bd10ae45abE",
    "l___unnamed_8_harness-df4868ea1b5cadad.e382ndox9j839chz9esswif6u.rcgu.o",
    "__ZN100_$LT$dioxus_core..any_props..VProps$LT$F$C$P$C$M$GT$$u20$as$u20$dioxus_core..any_props..AnyProps$GT$9duplicate17hbcc315160800576aE",
    "l___unnamed_2_harness-df4868ea1b5cadad.c6wmz0dxwkc7r3o02wr81u9oy.rcgu.o",
    "__ZN11dioxus_core5nodes10VComponent3new17h64d3a0812e77f0edE",
    "__ZN11dioxus_core10properties10Properties15into_vcomponent17h7753673354bc1edfE",
    "__ZN7harness13zoom_controls17h3a73844835917e06E",
    "__ZN4core3ops8function2Fn4call17heb220dff9cb64346E",
    "__ZN119_$LT$F$u20$as$u20$dioxus_core..properties..ComponentFunction$LT$$LP$$RP$$C$dioxus_core..properties..EmptyMarker$GT$$GT$7rebuild17h1485b718be4dcc97E",
    "__ZN100_$LT$dioxus_core..any_props..VProps$LT$F$C$P$C$M$GT$$u20$as$u20$dioxus_core..any_props..AnyProps$GT$6render28_$u7b$$u7b$closure$u7d$$u7d$17h5f5c31c2c4fcd3edE",
    "__ZN4core3ops8function6FnOnce9call_once17haf610c889d773240E",
    "__ZN115_$LT$core..panic..unwind_safe..AssertUnwindSafe$LT$F$GT$$u20$as$u20$core..ops..function..FnOnce$LT$$LP$$RP$$GT$$GT$9call_once17he0621d6d235d0c08E",
    "__ZN3std9panicking3try7do_call17h8e7a94c382a5e60cE",
    "__ZN3std5panic12catch_unwind17h1f6291afe955bbfcE",
    "__ZN100_$LT$dioxus_core..any_props..VProps$LT$F$C$P$C$M$GT$$u20$as$u20$dioxus_core..any_props..AnyProps$GT$6render17h45480eba660d5148E",
    "l___unnamed_7_harness-df4868ea1b5cadad.c6wmz0dxwkc7r3o02wr81u9oy.rcgu.o",
    "__ZN11dioxus_core5nodes10VComponent3new17hcaaa6729c16dc137E",
    "__ZN11dioxus_core10properties10Properties15into_vcomponent17h79bafc80aea2aab7E",
    "___hotreload_start_app",
    "__ZN7harness3app17h400735d18e59eec4E",
    "__ZN7harness4main17h4654d77b3f37379bE",
    "_main",
]
GCC_except_table124
[]
__ZN9hashbrown3set24HashSet$LT$T$C$S$C$A$GT$6retain17h6fcf6493cd240f3eE
[
    "__ZN9hashbrown3set24HashSet$LT$T$C$S$C$A$GT$6retain17h6fcf6493cd240f3eE",
    "__ZN3std11collections4hash3set20HashSet$LT$T$C$S$GT$6retain17h82ea2ef3557b28ffE",
    "__ZN14dioxus_signals6signal19Signal$LT$T$C$S$GT$18update_subscribers17h8c21e3c058415f01E",
    "__ZN99_$LT$dioxus_signals..signal..SignalSubscriberDrop$LT$T$C$S$GT$$u20$as$u20$core..ops..drop..Drop$GT$4drop17h330fbe4f6664ee0bE",
    "__ZN4core3ptr118drop_in_place$LT$dioxus_signals..signal..SignalSubscriberDrop$LT$i64$C$generational_box..unsync..UnsyncStorage$GT$$GT$17h25b2886afdcde067E",
    "l___unnamed_21_harness-df4868ea1b5cadad.5qrn0xfhbv2rouh4f52itu55i.rcgu.o",
    "__ZN95_$LT$dioxus_signals..signal..Signal$LT$T$C$S$GT$$u20$as$u20$dioxus_signals..write..Writable$GT$19try_write_unchecked28_$u7b$$u7b$closure$u7d$$u7d$17he1b9191098da229cE",
    "__ZN4core6result19Result$LT$T$C$E$GT$3map17he4a924266e5e9d5aE",
    "__ZN95_$LT$dioxus_signals..signal..Signal$LT$T$C$S$GT$$u20$as$u20$dioxus_signals..write..Writable$GT$19try_write_unchecked17h4cba87c5ead1eb17E",
    "__ZN14dioxus_signals6global19Global$LT$T$C$R$GT$5write17h2228387cbea56f90E",
    "__ZN7harness11GlobalInner28_$u7b$$u7b$closure$u7d$$u7d$17hb42c5660948e5f3bE",
    "__ZN11dioxus_core6events26Callback$LT$Args$C$Ret$GT$3new28_$u7b$$u7b$closure$u7d$$u7d$17h6f96a569a9f12b13E",
    "l___unnamed_9_harness-df4868ea1b5cadad.egexdem49eejgynie32zwugcu.rcgu.o",
    "__ZN11dioxus_core6events26Callback$LT$Args$C$Ret$GT$3new17he13b8bd10ebc92d6E",
    "__ZN169_$LT$dioxus_core..events..Callback$LT$Args$C$Ret$GT$$u20$as$u20$dioxus_core..properties..SuperFrom$LT$Function$C$dioxus_core..events..MarkerWrapper$LT$Marker$GT$$GT$$GT$10super_from17h0f0cdd7a8468e271E",
    "__ZN69_$LT$T$u20$as$u20$dioxus_core..properties..SuperInto$LT$O$C$M$GT$$GT$10super_into17he799bb527ae17417E",
    "__ZN11dioxus_html6events5mouse7onclick28_$u7b$$u7b$closure$u7d$$u7d$17hcda8013b3fb0a7b1E",
    "__ZN11dioxus_core16generational_box10with_owner17hb0ca740788bcf0beE",
    "__ZN11dioxus_html6events5mouse7onclick17hcc75453cf267d2c1E",
    "__ZN11dioxus_html6events5mouse7onclick26call_with_explicit_closure17hc65524ea0f855dd4E",
    "__ZN7harness11GlobalInner17h56fe43aa3656219bE",
    "__ZN4core3ops8function2Fn4call17h3c8f851ee4dd175bE",
    "__ZN119_$LT$F$u20$as$u20$dioxus_core..properties..ComponentFunction$LT$$LP$$RP$$C$dioxus_core..properties..EmptyMarker$GT$$GT$7rebuild17hf7f1250efa3fb04cE",
    "__ZN100_$LT$dioxus_core..any_props..VProps$LT$F$C$P$C$M$GT$$u20$as$u20$dioxus_core..any_props..AnyProps$GT$6render28_$u7b$$u7b$closure$u7d$$u7d$17h025de8e22280b207E",
    "__ZN4core3ops8function6FnOnce9call_once17h371dcf20a99f261bE",
    "__ZN115_$LT$core..panic..unwind_safe..AssertUnwindSafe$LT$F$GT$$u20$as$u20$core..ops..function..FnOnce$LT$$LP$$RP$$GT$$GT$9call_once17h25a92dc564e3d7ffE",
    "__ZN3std9panicking3try7do_call17ha023efa9fb2ba8f7E",
    "__ZN3std5panic12catch_unwind17h48b71dec49934bf1E",
    "__ZN100_$LT$dioxus_core..any_props..VProps$LT$F$C$P$C$M$GT$$u20$as$u20$dioxus_core..any_props..AnyProps$GT$6render17h543a97c06bfefa3bE",
    "l___unnamed_4_harness-df4868ea1b5cadad.e382ndox9j839chz9esswif6u.rcgu.o",
    "__ZN100_$LT$dioxus_core..any_props..VProps$LT$F$C$P$C$M$GT$$u20$as$u20$dioxus_core..any_props..AnyProps$GT$9duplicate17h675ac73f4925ce25E",
    "l___unnamed_4_harness-df4868ea1b5cadad.c6wmz0dxwkc7r3o02wr81u9oy.rcgu.o",
    "__ZN11dioxus_core5nodes10VComponent3new17h993f8b3d9eb93954E",
    "__ZN11dioxus_core10properties10Properties15into_vcomponent17h965196ec13444056E",
    "__ZN7harness5Child17h2b32aeaba0b4c00dE",
    "__ZN4core3ops8function2Fn4call17hf86b26e1f09dbfc5E",
    "__ZN73_$LT$F$u20$as$u20$dioxus_core..properties..ComponentFunction$LT$P$GT$$GT$7rebuild17hdcc2e237eec08339E",
    "__ZN100_$LT$dioxus_core..any_props..VProps$LT$F$C$P$C$M$GT$$u20$as$u20$dioxus_core..any_props..AnyProps$GT$6render28_$u7b$$u7b$closure$u7d$$u7d$17hfbf53ec21013c460E",
    "__ZN4core3ops8function6FnOnce9call_once17hb1250f82ab822998E",
    "__ZN115_$LT$core..panic..unwind_safe..AssertUnwindSafe$LT$F$GT$$u20$as$u20$core..ops..function..FnOnce$LT$$LP$$RP$$GT$$GT$9call_once17h156df01ab880499cE",
    "__ZN3std9panicking3try7do_call17h12b00f5c1afca0e5E",
    "__ZN3std5panic12catch_unwind17h9623dc210b33032cE",
    "__ZN100_$LT$dioxus_core..any_props..VProps$LT$F$C$P$C$M$GT$$u20$as$u20$dioxus_core..any_props..AnyProps$GT$6render17h724478bd10ae45abE",
    "l___unnamed_8_harness-df4868ea1b5cadad.e382ndox9j839chz9esswif6u.rcgu.o",
    "__ZN100_$LT$dioxus_core..any_props..VProps$LT$F$C$P$C$M$GT$$u20$as$u20$dioxus_core..any_props..AnyProps$GT$9duplicate17hbcc315160800576aE",
    "l___unnamed_2_harness-df4868ea1b5cadad.c6wmz0dxwkc7r3o02wr81u9oy.rcgu.o",
    "__ZN11dioxus_core5nodes10VComponent3new17h64d3a0812e77f0edE",
    "__ZN11dioxus_core10properties10Properties15into_vcomponent17h7753673354bc1edfE",
    "__ZN7harness13zoom_controls17h3a73844835917e06E",
    "__ZN4core3ops8function2Fn4call17heb220dff9cb64346E",
    "__ZN119_$LT$F$u20$as$u20$dioxus_core..properties..ComponentFunction$LT$$LP$$RP$$C$dioxus_core..properties..EmptyMarker$GT$$GT$7rebuild17h1485b718be4dcc97E",
    "__ZN100_$LT$dioxus_core..any_props..VProps$LT$F$C$P$C$M$GT$$u20$as$u20$dioxus_core..any_props..AnyProps$GT$6render28_$u7b$$u7b$closure$u7d$$u7d$17h5f5c31c2c4fcd3edE",
    "__ZN4core3ops8function6FnOnce9call_once17haf610c889d773240E",
    "__ZN115_$LT$core..panic..unwind_safe..AssertUnwindSafe$LT$F$GT$$u20$as$u20$core..ops..function..FnOnce$LT$$LP$$RP$$GT$$GT$9call_once17he0621d6d235d0c08E",
    "__ZN3std9panicking3try7do_call17h8e7a94c382a5e60cE",
    "__ZN3std5panic12catch_unwind17h1f6291afe955bbfcE",
    "__ZN100_$LT$dioxus_core..any_props..VProps$LT$F$C$P$C$M$GT$$u20$as$u20$dioxus_core..any_props..AnyProps$GT$6render17h45480eba660d5148E",
    "l___unnamed_7_harness-df4868ea1b5cadad.c6wmz0dxwkc7r3o02wr81u9oy.rcgu.o",
    "__ZN11dioxus_core5nodes10VComponent3new17hcaaa6729c16dc137E",
    "__ZN11dioxus_core10properties10Properties15into_vcomponent17h79bafc80aea2aab7E",
    "___hotreload_start_app",
    "__ZN7harness3app17h400735d18e59eec4E",
    "__ZN7harness4main17h4654d77b3f37379bE",
    "_main",
]
__ZN68_$LT$core..cell..Ref$LT$T$GT$$u20$as$u20$core..ops..deref..Deref$GT$5deref17h0cc7865ec4cb7eabE
[
    "__ZN68_$LT$core..cell..Ref$LT$T$GT$$u20$as$u20$core..ops..deref..Deref$GT$5deref17h0cc7865ec4cb7eabE",
    "__ZN98_$LT$generational_box..references..GenerationalRef$LT$R$GT$$u20$as$u20$core..ops..deref..Deref$GT$5deref17hffb77a876c2bf20dE",
    "__ZN14dioxus_signals8warnings41__signal_read_and_write_in_reactive_scope23__Callable$LT$T$C$S$GT$16__run_if_enabled28_$u7b$$u7b$closure$u7d$$u7d$39signal_read_and_write_in_reactive_scope17h1ad309ff6660ea62E",
    "__ZN14dioxus_signals8warnings41__signal_read_and_write_in_reactive_scope23__Callable$LT$T$C$S$GT$16__run_if_enabled28_$u7b$$u7b$closure$u7d$$u7d$17h1b0f83081d19009bE",
    "__ZN8warnings8warnings9WarningId10if_enabled17ha6ef6cba53b085f6E",
    "__ZN14dioxus_signals8warnings41__signal_read_and_write_in_reactive_scope23__Callable$LT$T$C$S$GT$16__run_if_enabled17he99b0af967ae97feE",
    "l___unnamed_2_harness-df4868ea1b5cadad.a64hlspyskaofkyts3cee93he.rcgu.o",
    "__ZN136_$LT$dioxus_signals..warnings..__signal_read_and_write_in_reactive_scope..__Callable$LT$T$C$S$GT$$u20$as$u20$core..ops..deref..Deref$GT$5deref17h86c7f97abc3f6c06E",
    "__ZN99_$LT$dioxus_signals..signal..SignalSubscriberDrop$LT$T$C$S$GT$$u20$as$u20$core..ops..drop..Drop$GT$4drop17h330fbe4f6664ee0bE",
    "__ZN4core3ptr118drop_in_place$LT$dioxus_signals..signal..SignalSubscriberDrop$LT$i64$C$generational_box..unsync..UnsyncStorage$GT$$GT$17h25b2886afdcde067E",
    "l___unnamed_21_harness-df4868ea1b5cadad.5qrn0xfhbv2rouh4f52itu55i.rcgu.o",
    "__ZN95_$LT$dioxus_signals..signal..Signal$LT$T$C$S$GT$$u20$as$u20$dioxus_signals..write..Writable$GT$19try_write_unchecked28_$u7b$$u7b$closure$u7d$$u7d$17he1b9191098da229cE",
    "__ZN4core6result19Result$LT$T$C$E$GT$3map17he4a924266e5e9d5aE",
    "__ZN95_$LT$dioxus_signals..signal..Signal$LT$T$C$S$GT$$u20$as$u20$dioxus_signals..write..Writable$GT$19try_write_unchecked17h4cba87c5ead1eb17E",
    "__ZN14dioxus_signals6global19Global$LT$T$C$R$GT$5write17h2228387cbea56f90E",
    "__ZN7harness11GlobalInner28_$u7b$$u7b$closure$u7d$$u7d$17hb42c5660948e5f3bE",
    "__ZN11dioxus_core6events26Callback$LT$Args$C$Ret$GT$3new28_$u7b$$u7b$closure$u7d$$u7d$17h6f96a569a9f12b13E",
    "l___unnamed_9_harness-df4868ea1b5cadad.egexdem49eejgynie32zwugcu.rcgu.o",
    "__ZN11dioxus_core6events26Callback$LT$Args$C$Ret$GT$3new17he13b8bd10ebc92d6E",
    "__ZN169_$LT$dioxus_core..events..Callback$LT$Args$C$Ret$GT$$u20$as$u20$dioxus_core..properties..SuperFrom$LT$Function$C$dioxus_core..events..MarkerWrapper$LT$Marker$GT$$GT$$GT$10super_from17h0f0cdd7a8468e271E",
    "__ZN69_$LT$T$u20$as$u20$dioxus_core..properties..SuperInto$LT$O$C$M$GT$$GT$10super_into17he799bb527ae17417E",
    "__ZN11dioxus_html6events5mouse7onclick28_$u7b$$u7b$closure$u7d$$u7d$17hcda8013b3fb0a7b1E",
    "__ZN11dioxus_core16generational_box10with_owner17hb0ca740788bcf0beE",
    "__ZN11dioxus_html6events5mouse7onclick17hcc75453cf267d2c1E",
    "__ZN11dioxus_html6events5mouse7onclick26call_with_explicit_closure17hc65524ea0f855dd4E",
    "__ZN7harness11GlobalInner17h56fe43aa3656219bE",
    "__ZN4core3ops8function2Fn4call17h3c8f851ee4dd175bE",
    "__ZN119_$LT$F$u20$as$u20$dioxus_core..properties..ComponentFunction$LT$$LP$$RP$$C$dioxus_core..properties..EmptyMarker$GT$$GT$7rebuild17hf7f1250efa3fb04cE",
    "__ZN100_$LT$dioxus_core..any_props..VProps$LT$F$C$P$C$M$GT$$u20$as$u20$dioxus_core..any_props..AnyProps$GT$6render28_$u7b$$u7b$closure$u7d$$u7d$17h025de8e22280b207E",
    "__ZN4core3ops8function6FnOnce9call_once17h371dcf20a99f261bE",
    "__ZN115_$LT$core..panic..unwind_safe..AssertUnwindSafe$LT$F$GT$$u20$as$u20$core..ops..function..FnOnce$LT$$LP$$RP$$GT$$GT$9call_once17h25a92dc564e3d7ffE",
    "__ZN3std9panicking3try7do_call17ha023efa9fb2ba8f7E",
    "__ZN3std5panic12catch_unwind17h48b71dec49934bf1E",
    "__ZN100_$LT$dioxus_core..any_props..VProps$LT$F$C$P$C$M$GT$$u20$as$u20$dioxus_core..any_props..AnyProps$GT$6render17h543a97c06bfefa3bE",
    "l___unnamed_4_harness-df4868ea1b5cadad.e382ndox9j839chz9esswif6u.rcgu.o",
    "__ZN100_$LT$dioxus_core..any_props..VProps$LT$F$C$P$C$M$GT$$u20$as$u20$dioxus_core..any_props..AnyProps$GT$9duplicate17h675ac73f4925ce25E",
    "l___unnamed_4_harness-df4868ea1b5cadad.c6wmz0dxwkc7r3o02wr81u9oy.rcgu.o",
    "__ZN11dioxus_core5nodes10VComponent3new17h993f8b3d9eb93954E",
    "__ZN11dioxus_core10properties10Properties15into_vcomponent17h965196ec13444056E",
    "__ZN7harness5Child17h2b32aeaba0b4c00dE",
    "__ZN4core3ops8function2Fn4call17hf86b26e1f09dbfc5E",
    "__ZN73_$LT$F$u20$as$u20$dioxus_core..properties..ComponentFunction$LT$P$GT$$GT$7rebuild17hdcc2e237eec08339E",
    "__ZN100_$LT$dioxus_core..any_props..VProps$LT$F$C$P$C$M$GT$$u20$as$u20$dioxus_core..any_props..AnyProps$GT$6render28_$u7b$$u7b$closure$u7d$$u7d$17hfbf53ec21013c460E",
    "__ZN4core3ops8function6FnOnce9call_once17hb1250f82ab822998E",
    "__ZN115_$LT$core..panic..unwind_safe..AssertUnwindSafe$LT$F$GT$$u20$as$u20$core..ops..function..FnOnce$LT$$LP$$RP$$GT$$GT$9call_once17h156df01ab880499cE",
    "__ZN3std9panicking3try7do_call17h12b00f5c1afca0e5E",
    "__ZN3std5panic12catch_unwind17h9623dc210b33032cE",
    "__ZN100_$LT$dioxus_core..any_props..VProps$LT$F$C$P$C$M$GT$$u20$as$u20$dioxus_core..any_props..AnyProps$GT$6render17h724478bd10ae45abE",
    "l___unnamed_8_harness-df4868ea1b5cadad.e382ndox9j839chz9esswif6u.rcgu.o",
    "__ZN100_$LT$dioxus_core..any_props..VProps$LT$F$C$P$C$M$GT$$u20$as$u20$dioxus_core..any_props..AnyProps$GT$9duplicate17hbcc315160800576aE",
    "l___unnamed_2_harness-df4868ea1b5cadad.c6wmz0dxwkc7r3o02wr81u9oy.rcgu.o",
    "__ZN11dioxus_core5nodes10VComponent3new17h64d3a0812e77f0edE",
    "__ZN11dioxus_core10properties10Properties15into_vcomponent17h7753673354bc1edfE",
    "__ZN7harness13zoom_controls17h3a73844835917e06E",
    "__ZN4core3ops8function2Fn4call17heb220dff9cb64346E",
    "__ZN119_$LT$F$u20$as$u20$dioxus_core..properties..ComponentFunction$LT$$LP$$RP$$C$dioxus_core..properties..EmptyMarker$GT$$GT$7rebuild17h1485b718be4dcc97E",
    "__ZN100_$LT$dioxus_core..any_props..VProps$LT$F$C$P$C$M$GT$$u20$as$u20$dioxus_core..any_props..AnyProps$GT$6render28_$u7b$$u7b$closure$u7d$$u7d$17h5f5c31c2c4fcd3edE",
    "__ZN4core3ops8function6FnOnce9call_once17haf610c889d773240E",
    "__ZN115_$LT$core..panic..unwind_safe..AssertUnwindSafe$LT$F$GT$$u20$as$u20$core..ops..function..FnOnce$LT$$LP$$RP$$GT$$GT$9call_once17he0621d6d235d0c08E",
    "__ZN3std9panicking3try7do_call17h8e7a94c382a5e60cE",
    "__ZN3std5panic12catch_unwind17h1f6291afe955bbfcE",
    "__ZN100_$LT$dioxus_core..any_props..VProps$LT$F$C$P$C$M$GT$$u20$as$u20$dioxus_core..any_props..AnyProps$GT$6render17h45480eba660d5148E",
    "l___unnamed_7_harness-df4868ea1b5cadad.c6wmz0dxwkc7r3o02wr81u9oy.rcgu.o",
    "__ZN11dioxus_core5nodes10VComponent3new17hcaaa6729c16dc137E",
    "__ZN11dioxus_core10properties10Properties15into_vcomponent17h79bafc80aea2aab7E",
    "___hotreload_start_app",
    "__ZN7harness3app17h400735d18e59eec4E",
    "__ZN7harness4main17h4654d77b3f37379bE",
    "_main",
]
__ZN101_$LT$dioxus_signals..copy_value..CopyValue$LT$T$C$S$GT$$u20$as$u20$dioxus_signals..read..Readable$GT$18try_read_unchecked17hcbacf7f4f84ff432E
[
    "__ZN101_$LT$dioxus_signals..copy_value..CopyValue$LT$T$C$S$GT$$u20$as$u20$dioxus_signals..read..Readable$GT$18try_read_unchecked17hcbacf7f4f84ff432E",
    "__ZN14dioxus_signals4read8Readable8try_read17h3f53ef44cef9d75bE",
    "__ZN14dioxus_signals8warnings41__signal_read_and_write_in_reactive_scope23__Callable$LT$T$C$S$GT$16__run_if_enabled28_$u7b$$u7b$closure$u7d$$u7d$39signal_read_and_write_in_reactive_scope17h1ad309ff6660ea62E",
    "__ZN14dioxus_signals8warnings41__signal_read_and_write_in_reactive_scope23__Callable$LT$T$C$S$GT$16__run_if_enabled28_$u7b$$u7b$closure$u7d$$u7d$17h1b0f83081d19009bE",
    "__ZN8warnings8warnings9WarningId10if_enabled17ha6ef6cba53b085f6E",
    "__ZN14dioxus_signals8warnings41__signal_read_and_write_in_reactive_scope23__Callable$LT$T$C$S$GT$16__run_if_enabled17he99b0af967ae97feE",
    "l___unnamed_2_harness-df4868ea1b5cadad.a64hlspyskaofkyts3cee93he.rcgu.o",
    "__ZN136_$LT$dioxus_signals..warnings..__signal_read_and_write_in_reactive_scope..__Callable$LT$T$C$S$GT$$u20$as$u20$core..ops..deref..Deref$GT$5deref17h86c7f97abc3f6c06E",
    "__ZN99_$LT$dioxus_signals..signal..SignalSubscriberDrop$LT$T$C$S$GT$$u20$as$u20$core..ops..drop..Drop$GT$4drop17h330fbe4f6664ee0bE",
    "__ZN4core3ptr118drop_in_place$LT$dioxus_signals..signal..SignalSubscriberDrop$LT$i64$C$generational_box..unsync..UnsyncStorage$GT$$GT$17h25b2886afdcde067E",
    "l___unnamed_21_harness-df4868ea1b5cadad.5qrn0xfhbv2rouh4f52itu55i.rcgu.o",
    "__ZN95_$LT$dioxus_signals..signal..Signal$LT$T$C$S$GT$$u20$as$u20$dioxus_signals..write..Writable$GT$19try_write_unchecked28_$u7b$$u7b$closure$u7d$$u7d$17he1b9191098da229cE",
    "__ZN4core6result19Result$LT$T$C$E$GT$3map17he4a924266e5e9d5aE",
    "__ZN95_$LT$dioxus_signals..signal..Signal$LT$T$C$S$GT$$u20$as$u20$dioxus_signals..write..Writable$GT$19try_write_unchecked17h4cba87c5ead1eb17E",
    "__ZN14dioxus_signals6global19Global$LT$T$C$R$GT$5write17h2228387cbea56f90E",
    "__ZN7harness11GlobalInner28_$u7b$$u7b$closure$u7d$$u7d$17hb42c5660948e5f3bE",
    "__ZN11dioxus_core6events26Callback$LT$Args$C$Ret$GT$3new28_$u7b$$u7b$closure$u7d$$u7d$17h6f96a569a9f12b13E",
    "l___unnamed_9_harness-df4868ea1b5cadad.egexdem49eejgynie32zwugcu.rcgu.o",
    "__ZN11dioxus_core6events26Callback$LT$Args$C$Ret$GT$3new17he13b8bd10ebc92d6E",
    "__ZN169_$LT$dioxus_core..events..Callback$LT$Args$C$Ret$GT$$u20$as$u20$dioxus_core..properties..SuperFrom$LT$Function$C$dioxus_core..events..MarkerWrapper$LT$Marker$GT$$GT$$GT$10super_from17h0f0cdd7a8468e271E",
    "__ZN69_$LT$T$u20$as$u20$dioxus_core..properties..SuperInto$LT$O$C$M$GT$$GT$10super_into17he799bb527ae17417E",
    "__ZN11dioxus_html6events5mouse7onclick28_$u7b$$u7b$closure$u7d$$u7d$17hcda8013b3fb0a7b1E",
    "__ZN11dioxus_core16generational_box10with_owner17hb0ca740788bcf0beE",
    "__ZN11dioxus_html6events5mouse7onclick17hcc75453cf267d2c1E",
    "__ZN11dioxus_html6events5mouse7onclick26call_with_explicit_closure17hc65524ea0f855dd4E",
    "__ZN7harness11GlobalInner17h56fe43aa3656219bE",
    "__ZN4core3ops8function2Fn4call17h3c8f851ee4dd175bE",
    "__ZN119_$LT$F$u20$as$u20$dioxus_core..properties..ComponentFunction$LT$$LP$$RP$$C$dioxus_core..properties..EmptyMarker$GT$$GT$7rebuild17hf7f1250efa3fb04cE",
    "__ZN100_$LT$dioxus_core..any_props..VProps$LT$F$C$P$C$M$GT$$u20$as$u20$dioxus_core..any_props..AnyProps$GT$6render28_$u7b$$u7b$closure$u7d$$u7d$17h025de8e22280b207E",
    "__ZN4core3ops8function6FnOnce9call_once17h371dcf20a99f261bE",
    "__ZN115_$LT$core..panic..unwind_safe..AssertUnwindSafe$LT$F$GT$$u20$as$u20$core..ops..function..FnOnce$LT$$LP$$RP$$GT$$GT$9call_once17h25a92dc564e3d7ffE",
    "__ZN3std9panicking3try7do_call17ha023efa9fb2ba8f7E",
    "__ZN3std5panic12catch_unwind17h48b71dec49934bf1E",
    "__ZN100_$LT$dioxus_core..any_props..VProps$LT$F$C$P$C$M$GT$$u20$as$u20$dioxus_core..any_props..AnyProps$GT$6render17h543a97c06bfefa3bE",
    "l___unnamed_4_harness-df4868ea1b5cadad.e382ndox9j839chz9esswif6u.rcgu.o",
    "__ZN100_$LT$dioxus_core..any_props..VProps$LT$F$C$P$C$M$GT$$u20$as$u20$dioxus_core..any_props..AnyProps$GT$9duplicate17h675ac73f4925ce25E",
    "l___unnamed_4_harness-df4868ea1b5cadad.c6wmz0dxwkc7r3o02wr81u9oy.rcgu.o",
    "__ZN11dioxus_core5nodes10VComponent3new17h993f8b3d9eb93954E",
    "__ZN11dioxus_core10properties10Properties15into_vcomponent17h965196ec13444056E",
    "__ZN7harness5Child17h2b32aeaba0b4c00dE",
    "__ZN4core3ops8function2Fn4call17hf86b26e1f09dbfc5E",
    "__ZN73_$LT$F$u20$as$u20$dioxus_core..properties..ComponentFunction$LT$P$GT$$GT$7rebuild17hdcc2e237eec08339E",
    "__ZN100_$LT$dioxus_core..any_props..VProps$LT$F$C$P$C$M$GT$$u20$as$u20$dioxus_core..any_props..AnyProps$GT$6render28_$u7b$$u7b$closure$u7d$$u7d$17hfbf53ec21013c460E",
    "__ZN4core3ops8function6FnOnce9call_once17hb1250f82ab822998E",
    "__ZN115_$LT$core..panic..unwind_safe..AssertUnwindSafe$LT$F$GT$$u20$as$u20$core..ops..function..FnOnce$LT$$LP$$RP$$GT$$GT$9call_once17h156df01ab880499cE",
    "__ZN3std9panicking3try7do_call17h12b00f5c1afca0e5E",
    "__ZN3std5panic12catch_unwind17h9623dc210b33032cE",
    "__ZN100_$LT$dioxus_core..any_props..VProps$LT$F$C$P$C$M$GT$$u20$as$u20$dioxus_core..any_props..AnyProps$GT$6render17h724478bd10ae45abE",
    "l___unnamed_8_harness-df4868ea1b5cadad.e382ndox9j839chz9esswif6u.rcgu.o",
    "__ZN100_$LT$dioxus_core..any_props..VProps$LT$F$C$P$C$M$GT$$u20$as$u20$dioxus_core..any_props..AnyProps$GT$9duplicate17hbcc315160800576aE",
    "l___unnamed_2_harness-df4868ea1b5cadad.c6wmz0dxwkc7r3o02wr81u9oy.rcgu.o",
    "__ZN11dioxus_core5nodes10VComponent3new17h64d3a0812e77f0edE",
    "__ZN11dioxus_core10properties10Properties15into_vcomponent17h7753673354bc1edfE",
    "__ZN7harness13zoom_controls17h3a73844835917e06E",
    "__ZN4core3ops8function2Fn4call17heb220dff9cb64346E",
    "__ZN119_$LT$F$u20$as$u20$dioxus_core..properties..ComponentFunction$LT$$LP$$RP$$C$dioxus_core..properties..EmptyMarker$GT$$GT$7rebuild17h1485b718be4dcc97E",
    "__ZN100_$LT$dioxus_core..any_props..VProps$LT$F$C$P$C$M$GT$$u20$as$u20$dioxus_core..any_props..AnyProps$GT$6render28_$u7b$$u7b$closure$u7d$$u7d$17h5f5c31c2c4fcd3edE",
    "__ZN4core3ops8function6FnOnce9call_once17haf610c889d773240E",
    "__ZN115_$LT$core..panic..unwind_safe..AssertUnwindSafe$LT$F$GT$$u20$as$u20$core..ops..function..FnOnce$LT$$LP$$RP$$GT$$GT$9call_once17he0621d6d235d0c08E",
    "__ZN3std9panicking3try7do_call17h8e7a94c382a5e60cE",
    "__ZN3std5panic12catch_unwind17h1f6291afe955bbfcE",
    "__ZN100_$LT$dioxus_core..any_props..VProps$LT$F$C$P$C$M$GT$$u20$as$u20$dioxus_core..any_props..AnyProps$GT$6render17h45480eba660d5148E",
    "l___unnamed_7_harness-df4868ea1b5cadad.c6wmz0dxwkc7r3o02wr81u9oy.rcgu.o",
    "__ZN11dioxus_core5nodes10VComponent3new17hcaaa6729c16dc137E",
    "__ZN11dioxus_core10properties10Properties15into_vcomponent17h79bafc80aea2aab7E",
    "___hotreload_start_app",
    "__ZN7harness3app17h400735d18e59eec4E",
    "__ZN7harness4main17h4654d77b3f37379bE",
    "_main",
]
l___unnamed_13_harness-df4868ea1b5cadad.cvbn14ab4uo17p1ckzp14p9v7.rcgu.o
[
    "l___unnamed_13_harness-df4868ea1b5cadad.cvbn14ab4uo17p1ckzp14p9v7.rcgu.o",
    "l___unnamed_8_harness-df4868ea1b5cadad.cvbn14ab4uo17p1ckzp14p9v7.rcgu.o",
    "__ZN14dioxus_signals6global19Global$LT$T$C$R$GT$7resolve17hfca595143252f355E",
    "__ZN94_$LT$dioxus_signals..global..Global$LT$T$C$R$GT$$u20$as$u20$dioxus_signals..read..Readable$GT$18try_read_unchecked17hdf66837701d74a96E",
    "__ZN14dioxus_signals4read8Readable8try_read17h4c98c1be567ce532E",
    "__ZN14dioxus_signals4read8Readable4read17he797328ed7d7b867E",
    "__ZN14dioxus_signals4read8Readable4with17h40ffefba83cf26acE",
    "__ZN14dioxus_signals6global6signal130_$LT$impl$u20$core..fmt..Display$u20$for$u20$dioxus_signals..global..Global$LT$dioxus_signals..signal..Signal$LT$T$GT$$C$T$GT$$GT$3fmt17h9bae2be454d81459E",
    "__ZN14dioxus_signals6global6signal130_$LT$impl$u20$core..fmt..Display$u20$for$u20$dioxus_signals..global..Global$LT$dioxus_signals..signal..Signal$LT$T$GT$$C$T$GT$$GT$33fmt$u7b$$u7b$reify.shim$u7d$$u7d$17h6614528e6ee54eebE",
    "__ZN7harness11GlobalInner17h56fe43aa3656219bE",
    "__ZN4core3ops8function2Fn4call17h3c8f851ee4dd175bE",
    "__ZN119_$LT$F$u20$as$u20$dioxus_core..properties..ComponentFunction$LT$$LP$$RP$$C$dioxus_core..properties..EmptyMarker$GT$$GT$7rebuild17hf7f1250efa3fb04cE",
    "__ZN100_$LT$dioxus_core..any_props..VProps$LT$F$C$P$C$M$GT$$u20$as$u20$dioxus_core..any_props..AnyProps$GT$6render28_$u7b$$u7b$closure$u7d$$u7d$17h025de8e22280b207E",
    "__ZN4core3ops8function6FnOnce9call_once17h371dcf20a99f261bE",
    "__ZN115_$LT$core..panic..unwind_safe..AssertUnwindSafe$LT$F$GT$$u20$as$u20$core..ops..function..FnOnce$LT$$LP$$RP$$GT$$GT$9call_once17h25a92dc564e3d7ffE",
    "__ZN3std9panicking3try7do_call17ha023efa9fb2ba8f7E",
    "__ZN3std5panic12catch_unwind17h48b71dec49934bf1E",
    "__ZN100_$LT$dioxus_core..any_props..VProps$LT$F$C$P$C$M$GT$$u20$as$u20$dioxus_core..any_props..AnyProps$GT$6render17h543a97c06bfefa3bE",
    "l___unnamed_4_harness-df4868ea1b5cadad.e382ndox9j839chz9esswif6u.rcgu.o",
    "__ZN100_$LT$dioxus_core..any_props..VProps$LT$F$C$P$C$M$GT$$u20$as$u20$dioxus_core..any_props..AnyProps$GT$9duplicate17h675ac73f4925ce25E",
    "l___unnamed_4_harness-df4868ea1b5cadad.c6wmz0dxwkc7r3o02wr81u9oy.rcgu.o",
    "__ZN11dioxus_core5nodes10VComponent3new17h993f8b3d9eb93954E",
    "__ZN11dioxus_core10properties10Properties15into_vcomponent17h965196ec13444056E",
    "__ZN7harness5Child17h2b32aeaba0b4c00dE",
    "__ZN4core3ops8function2Fn4call17hf86b26e1f09dbfc5E",
    "__ZN73_$LT$F$u20$as$u20$dioxus_core..properties..ComponentFunction$LT$P$GT$$GT$7rebuild17hdcc2e237eec08339E",
    "__ZN100_$LT$dioxus_core..any_props..VProps$LT$F$C$P$C$M$GT$$u20$as$u20$dioxus_core..any_props..AnyProps$GT$6render28_$u7b$$u7b$closure$u7d$$u7d$17hfbf53ec21013c460E",
    "__ZN4core3ops8function6FnOnce9call_once17hb1250f82ab822998E",
    "__ZN115_$LT$core..panic..unwind_safe..AssertUnwindSafe$LT$F$GT$$u20$as$u20$core..ops..function..FnOnce$LT$$LP$$RP$$GT$$GT$9call_once17h156df01ab880499cE",
    "__ZN3std9panicking3try7do_call17h12b00f5c1afca0e5E",
    "__ZN3std5panic12catch_unwind17h9623dc210b33032cE",
    "__ZN100_$LT$dioxus_core..any_props..VProps$LT$F$C$P$C$M$GT$$u20$as$u20$dioxus_core..any_props..AnyProps$GT$6render17h724478bd10ae45abE",
    "l___unnamed_8_harness-df4868ea1b5cadad.e382ndox9j839chz9esswif6u.rcgu.o",
    "__ZN100_$LT$dioxus_core..any_props..VProps$LT$F$C$P$C$M$GT$$u20$as$u20$dioxus_core..any_props..AnyProps$GT$9duplicate17hbcc315160800576aE",
    "l___unnamed_2_harness-df4868ea1b5cadad.c6wmz0dxwkc7r3o02wr81u9oy.rcgu.o",
    "__ZN11dioxus_core5nodes10VComponent3new17h64d3a0812e77f0edE",
    "__ZN11dioxus_core10properties10Properties15into_vcomponent17h7753673354bc1edfE",
    "__ZN7harness13zoom_controls17h3a73844835917e06E",
    "__ZN4core3ops8function2Fn4call17heb220dff9cb64346E",
    "__ZN119_$LT$F$u20$as$u20$dioxus_core..properties..ComponentFunction$LT$$LP$$RP$$C$dioxus_core..properties..EmptyMarker$GT$$GT$7rebuild17h1485b718be4dcc97E",
    "__ZN100_$LT$dioxus_core..any_props..VProps$LT$F$C$P$C$M$GT$$u20$as$u20$dioxus_core..any_props..AnyProps$GT$6render28_$u7b$$u7b$closure$u7d$$u7d$17h5f5c31c2c4fcd3edE",
    "__ZN4core3ops8function6FnOnce9call_once17haf610c889d773240E",
    "__ZN115_$LT$core..panic..unwind_safe..AssertUnwindSafe$LT$F$GT$$u20$as$u20$core..ops..function..FnOnce$LT$$LP$$RP$$GT$$GT$9call_once17he0621d6d235d0c08E",
    "__ZN3std9panicking3try7do_call17h8e7a94c382a5e60cE",
    "__ZN3std5panic12catch_unwind17h1f6291afe955bbfcE",
    "__ZN100_$LT$dioxus_core..any_props..VProps$LT$F$C$P$C$M$GT$$u20$as$u20$dioxus_core..any_props..AnyProps$GT$6render17h45480eba660d5148E",
    "l___unnamed_7_harness-df4868ea1b5cadad.c6wmz0dxwkc7r3o02wr81u9oy.rcgu.o",
    "__ZN11dioxus_core5nodes10VComponent3new17hcaaa6729c16dc137E",
    "__ZN11dioxus_core10properties10Properties15into_vcomponent17h79bafc80aea2aab7E",
    "___hotreload_start_app",
    "__ZN7harness3app17h400735d18e59eec4E",
    "__ZN7harness4main17h4654d77b3f37379bE",
    "_main",
]
__ZN16generational_box28GenerationalBox$LT$T$C$S$GT$10created_at17h91c3783feec44598E
[
    "__ZN16generational_box28GenerationalBox$LT$T$C$S$GT$10created_at17h91c3783feec44598E",
    "__ZN14dioxus_signals8warnings20__copy_value_hoisted23__Callable$LT$T$C$S$GT$16__run_if_enabled28_$u7b$$u7b$closure$u7d$$u7d$18copy_value_hoisted17h0527a627c5bd33efE",
    "__ZN14dioxus_signals8warnings20__copy_value_hoisted23__Callable$LT$T$C$S$GT$16__run_if_enabled28_$u7b$$u7b$closure$u7d$$u7d$17h34ba434c7e412c6eE",
    "__ZN8warnings8warnings9WarningId10if_enabled17h1c488e65130df26eE",
    "__ZN14dioxus_signals8warnings20__copy_value_hoisted23__Callable$LT$T$C$S$GT$16__run_if_enabled17ha36d84debd7d7620E",
    "l___unnamed_5_harness-df4868ea1b5cadad.57p783wz0mdr6vmpci89msrb7.rcgu.o",
    "__ZN115_$LT$dioxus_signals..warnings..__copy_value_hoisted..__Callable$LT$T$C$S$GT$$u20$as$u20$core..ops..deref..Deref$GT$5deref17hab58e9f55bd3c5deE",
    "__ZN101_$LT$dioxus_signals..copy_value..CopyValue$LT$T$C$S$GT$$u20$as$u20$dioxus_signals..read..Readable$GT$18try_read_unchecked17hcbacf7f4f84ff432E",
    "__ZN14dioxus_signals4read8Readable8try_read17h3f53ef44cef9d75bE",
    "__ZN14dioxus_signals8warnings41__signal_read_and_write_in_reactive_scope23__Callable$LT$T$C$S$GT$16__run_if_enabled28_$u7b$$u7b$closure$u7d$$u7d$39signal_read_and_write_in_reactive_scope17h1ad309ff6660ea62E",
    "__ZN14dioxus_signals8warnings41__signal_read_and_write_in_reactive_scope23__Callable$LT$T$C$S$GT$16__run_if_enabled28_$u7b$$u7b$closure$u7d$$u7d$17h1b0f83081d19009bE",
    "__ZN8warnings8warnings9WarningId10if_enabled17ha6ef6cba53b085f6E",
    "__ZN14dioxus_signals8warnings41__signal_read_and_write_in_reactive_scope23__Callable$LT$T$C$S$GT$16__run_if_enabled17he99b0af967ae97feE",
    "l___unnamed_2_harness-df4868ea1b5cadad.a64hlspyskaofkyts3cee93he.rcgu.o",
    "__ZN136_$LT$dioxus_signals..warnings..__signal_read_and_write_in_reactive_scope..__Callable$LT$T$C$S$GT$$u20$as$u20$core..ops..deref..Deref$GT$5deref17h86c7f97abc3f6c06E",
    "__ZN99_$LT$dioxus_signals..signal..SignalSubscriberDrop$LT$T$C$S$GT$$u20$as$u20$core..ops..drop..Drop$GT$4drop17h330fbe4f6664ee0bE",
    "__ZN4core3ptr118drop_in_place$LT$dioxus_signals..signal..SignalSubscriberDrop$LT$i64$C$generational_box..unsync..UnsyncStorage$GT$$GT$17h25b2886afdcde067E",
    "l___unnamed_21_harness-df4868ea1b5cadad.5qrn0xfhbv2rouh4f52itu55i.rcgu.o",
    "__ZN95_$LT$dioxus_signals..signal..Signal$LT$T$C$S$GT$$u20$as$u20$dioxus_signals..write..Writable$GT$19try_write_unchecked28_$u7b$$u7b$closure$u7d$$u7d$17he1b9191098da229cE",
    "__ZN4core6result19Result$LT$T$C$E$GT$3map17he4a924266e5e9d5aE",
    "__ZN95_$LT$dioxus_signals..signal..Signal$LT$T$C$S$GT$$u20$as$u20$dioxus_signals..write..Writable$GT$19try_write_unchecked17h4cba87c5ead1eb17E",
    "__ZN14dioxus_signals6global19Global$LT$T$C$R$GT$5write17h2228387cbea56f90E",
    "__ZN7harness11GlobalInner28_$u7b$$u7b$closure$u7d$$u7d$17hb42c5660948e5f3bE",
    "__ZN11dioxus_core6events26Callback$LT$Args$C$Ret$GT$3new28_$u7b$$u7b$closure$u7d$$u7d$17h6f96a569a9f12b13E",
    "l___unnamed_9_harness-df4868ea1b5cadad.egexdem49eejgynie32zwugcu.rcgu.o",
    "__ZN11dioxus_core6events26Callback$LT$Args$C$Ret$GT$3new17he13b8bd10ebc92d6E",
    "__ZN169_$LT$dioxus_core..events..Callback$LT$Args$C$Ret$GT$$u20$as$u20$dioxus_core..properties..SuperFrom$LT$Function$C$dioxus_core..events..MarkerWrapper$LT$Marker$GT$$GT$$GT$10super_from17h0f0cdd7a8468e271E",
    "__ZN69_$LT$T$u20$as$u20$dioxus_core..properties..SuperInto$LT$O$C$M$GT$$GT$10super_into17he799bb527ae17417E",
    "__ZN11dioxus_html6events5mouse7onclick28_$u7b$$u7b$closure$u7d$$u7d$17hcda8013b3fb0a7b1E",
    "__ZN11dioxus_core16generational_box10with_owner17hb0ca740788bcf0beE",
    "__ZN11dioxus_html6events5mouse7onclick17hcc75453cf267d2c1E",
    "__ZN11dioxus_html6events5mouse7onclick26call_with_explicit_closure17hc65524ea0f855dd4E",
    "__ZN7harness11GlobalInner17h56fe43aa3656219bE",
    "__ZN4core3ops8function2Fn4call17h3c8f851ee4dd175bE",
    "__ZN119_$LT$F$u20$as$u20$dioxus_core..properties..ComponentFunction$LT$$LP$$RP$$C$dioxus_core..properties..EmptyMarker$GT$$GT$7rebuild17hf7f1250efa3fb04cE",
    "__ZN100_$LT$dioxus_core..any_props..VProps$LT$F$C$P$C$M$GT$$u20$as$u20$dioxus_core..any_props..AnyProps$GT$6render28_$u7b$$u7b$closure$u7d$$u7d$17h025de8e22280b207E",
    "__ZN4core3ops8function6FnOnce9call_once17h371dcf20a99f261bE",
    "__ZN115_$LT$core..panic..unwind_safe..AssertUnwindSafe$LT$F$GT$$u20$as$u20$core..ops..function..FnOnce$LT$$LP$$RP$$GT$$GT$9call_once17h25a92dc564e3d7ffE",
    "__ZN3std9panicking3try7do_call17ha023efa9fb2ba8f7E",
    "__ZN3std5panic12catch_unwind17h48b71dec49934bf1E",
    "__ZN100_$LT$dioxus_core..any_props..VProps$LT$F$C$P$C$M$GT$$u20$as$u20$dioxus_core..any_props..AnyProps$GT$6render17h543a97c06bfefa3bE",
    "l___unnamed_4_harness-df4868ea1b5cadad.e382ndox9j839chz9esswif6u.rcgu.o",
    "__ZN100_$LT$dioxus_core..any_props..VProps$LT$F$C$P$C$M$GT$$u20$as$u20$dioxus_core..any_props..AnyProps$GT$9duplicate17h675ac73f4925ce25E",
    "l___unnamed_4_harness-df4868ea1b5cadad.c6wmz0dxwkc7r3o02wr81u9oy.rcgu.o",
    "__ZN11dioxus_core5nodes10VComponent3new17h993f8b3d9eb93954E",
    "__ZN11dioxus_core10properties10Properties15into_vcomponent17h965196ec13444056E",
    "__ZN7harness5Child17h2b32aeaba0b4c00dE",
    "__ZN4core3ops8function2Fn4call17hf86b26e1f09dbfc5E",
    "__ZN73_$LT$F$u20$as$u20$dioxus_core..properties..ComponentFunction$LT$P$GT$$GT$7rebuild17hdcc2e237eec08339E",
    "__ZN100_$LT$dioxus_core..any_props..VProps$LT$F$C$P$C$M$GT$$u20$as$u20$dioxus_core..any_props..AnyProps$GT$6render28_$u7b$$u7b$closure$u7d$$u7d$17hfbf53ec21013c460E",
    "__ZN4core3ops8function6FnOnce9call_once17hb1250f82ab822998E",
    "__ZN115_$LT$core..panic..unwind_safe..AssertUnwindSafe$LT$F$GT$$u20$as$u20$core..ops..function..FnOnce$LT$$LP$$RP$$GT$$GT$9call_once17h156df01ab880499cE",
    "__ZN3std9panicking3try7do_call17h12b00f5c1afca0e5E",
    "__ZN3std5panic12catch_unwind17h9623dc210b33032cE",
    "__ZN100_$LT$dioxus_core..any_props..VProps$LT$F$C$P$C$M$GT$$u20$as$u20$dioxus_core..any_props..AnyProps$GT$6render17h724478bd10ae45abE",
    "l___unnamed_8_harness-df4868ea1b5cadad.e382ndox9j839chz9esswif6u.rcgu.o",
    "__ZN100_$LT$dioxus_core..any_props..VProps$LT$F$C$P$C$M$GT$$u20$as$u20$dioxus_core..any_props..AnyProps$GT$9duplicate17hbcc315160800576aE",
    "l___unnamed_2_harness-df4868ea1b5cadad.c6wmz0dxwkc7r3o02wr81u9oy.rcgu.o",
    "__ZN11dioxus_core5nodes10VComponent3new17h64d3a0812e77f0edE",
    "__ZN11dioxus_core10properties10Properties15into_vcomponent17h7753673354bc1edfE",
    "__ZN7harness13zoom_controls17h3a73844835917e06E",
    "__ZN4core3ops8function2Fn4call17heb220dff9cb64346E",
    "__ZN119_$LT$F$u20$as$u20$dioxus_core..properties..ComponentFunction$LT$$LP$$RP$$C$dioxus_core..properties..EmptyMarker$GT$$GT$7rebuild17h1485b718be4dcc97E",
    "__ZN100_$LT$dioxus_core..any_props..VProps$LT$F$C$P$C$M$GT$$u20$as$u20$dioxus_core..any_props..AnyProps$GT$6render28_$u7b$$u7b$closure$u7d$$u7d$17h5f5c31c2c4fcd3edE",
    "__ZN4core3ops8function6FnOnce9call_once17haf610c889d773240E",
    "__ZN115_$LT$core..panic..unwind_safe..AssertUnwindSafe$LT$F$GT$$u20$as$u20$core..ops..function..FnOnce$LT$$LP$$RP$$GT$$GT$9call_once17he0621d6d235d0c08E",
    "__ZN3std9panicking3try7do_call17h8e7a94c382a5e60cE",
    "__ZN3std5panic12catch_unwind17h1f6291afe955bbfcE",
    "__ZN100_$LT$dioxus_core..any_props..VProps$LT$F$C$P$C$M$GT$$u20$as$u20$dioxus_core..any_props..AnyProps$GT$6render17h45480eba660d5148E",
    "l___unnamed_7_harness-df4868ea1b5cadad.c6wmz0dxwkc7r3o02wr81u9oy.rcgu.o",
    "__ZN11dioxus_core5nodes10VComponent3new17hcaaa6729c16dc137E",
    "__ZN11dioxus_core10properties10Properties15into_vcomponent17h79bafc80aea2aab7E",
    "___hotreload_start_app",
    "__ZN7harness3app17h400735d18e59eec4E",
    "__ZN7harness4main17h4654d77b3f37379bE",
    "_main",
]
GCC_except_table26
[]
GCC_except_table34
[]
ltmp4_harness-df4868ea1b5cadad.7esa1mq8nq08glihv42qdkl2b.rcgu.o
[]
GCC_except_table35
[]
GCC_except_table70
[]
ltmp3_harness-df4868ea1b5cadad.a64hlspyskaofkyts3cee93he.rcgu.o
[]
GCC_except_table16
[]
__ZN4core3ptr61drop_in_place$LT$dioxus_signals..signal..Write$LT$i64$GT$$GT$17hd62038bcc61cc8fcE
[
    "__ZN4core3ptr61drop_in_place$LT$dioxus_signals..signal..Write$LT$i64$GT$$GT$17hd62038bcc61cc8fcE",
    "__ZN7harness11GlobalInner28_$u7b$$u7b$closure$u7d$$u7d$17h83e23bc1b000aaddE",
    "__ZN11dioxus_core6events26Callback$LT$Args$C$Ret$GT$3new28_$u7b$$u7b$closure$u7d$$u7d$17h45d2ab00a1f86a5dE",
    "__ZN4core3ops8function6FnOnce9call_once17hb8db5bf4a298cf8dE",
    "__ZN4core3ops8function6FnOnce40call_once$u7b$$u7b$vtable.shim$u7d$$u7d$17hf30bfe7d413f9148E",
    "l___unnamed_7_harness-df4868ea1b5cadad.egexdem49eejgynie32zwugcu.rcgu.o",
    "__ZN11dioxus_core6events26Callback$LT$Args$C$Ret$GT$3new17h751af1161533626fE",
    "__ZN169_$LT$dioxus_core..events..Callback$LT$Args$C$Ret$GT$$u20$as$u20$dioxus_core..properties..SuperFrom$LT$Function$C$dioxus_core..events..MarkerWrapper$LT$Marker$GT$$GT$$GT$10super_from17haa22a4debecb6fe0E",
    "__ZN69_$LT$T$u20$as$u20$dioxus_core..properties..SuperInto$LT$O$C$M$GT$$GT$10super_into17hc6a6d6edb8ddce79E",
    "__ZN11dioxus_html6events5mouse7onclick28_$u7b$$u7b$closure$u7d$$u7d$17h6321f17b0a399ea5E",
    "__ZN11dioxus_core16generational_box10with_owner17h3e78be9c6f015de2E",
    "__ZN11dioxus_html6events5mouse7onclick17hcc8598b47cb1f19eE",
    "__ZN11dioxus_html6events5mouse7onclick26call_with_explicit_closure17h270194a35e38cf48E",
    "__ZN7harness11GlobalInner17h56fe43aa3656219bE",
    "__ZN4core3ops8function2Fn4call17h3c8f851ee4dd175bE",
    "__ZN119_$LT$F$u20$as$u20$dioxus_core..properties..ComponentFunction$LT$$LP$$RP$$C$dioxus_core..properties..EmptyMarker$GT$$GT$7rebuild17hf7f1250efa3fb04cE",
    "__ZN100_$LT$dioxus_core..any_props..VProps$LT$F$C$P$C$M$GT$$u20$as$u20$dioxus_core..any_props..AnyProps$GT$6render28_$u7b$$u7b$closure$u7d$$u7d$17h025de8e22280b207E",
    "__ZN4core3ops8function6FnOnce9call_once17h371dcf20a99f261bE",
    "__ZN115_$LT$core..panic..unwind_safe..AssertUnwindSafe$LT$F$GT$$u20$as$u20$core..ops..function..FnOnce$LT$$LP$$RP$$GT$$GT$9call_once17h25a92dc564e3d7ffE",
    "__ZN3std9panicking3try7do_call17ha023efa9fb2ba8f7E",
    "__ZN3std5panic12catch_unwind17h48b71dec49934bf1E",
    "__ZN100_$LT$dioxus_core..any_props..VProps$LT$F$C$P$C$M$GT$$u20$as$u20$dioxus_core..any_props..AnyProps$GT$6render17h543a97c06bfefa3bE",
    "l___unnamed_4_harness-df4868ea1b5cadad.e382ndox9j839chz9esswif6u.rcgu.o",
    "__ZN100_$LT$dioxus_core..any_props..VProps$LT$F$C$P$C$M$GT$$u20$as$u20$dioxus_core..any_props..AnyProps$GT$9duplicate17h675ac73f4925ce25E",
    "l___unnamed_4_harness-df4868ea1b5cadad.c6wmz0dxwkc7r3o02wr81u9oy.rcgu.o",
    "__ZN11dioxus_core5nodes10VComponent3new17h993f8b3d9eb93954E",
    "__ZN11dioxus_core10properties10Properties15into_vcomponent17h965196ec13444056E",
    "__ZN7harness5Child17h2b32aeaba0b4c00dE",
    "__ZN4core3ops8function2Fn4call17hf86b26e1f09dbfc5E",
    "__ZN73_$LT$F$u20$as$u20$dioxus_core..properties..ComponentFunction$LT$P$GT$$GT$7rebuild17hdcc2e237eec08339E",
    "__ZN100_$LT$dioxus_core..any_props..VProps$LT$F$C$P$C$M$GT$$u20$as$u20$dioxus_core..any_props..AnyProps$GT$6render28_$u7b$$u7b$closure$u7d$$u7d$17hfbf53ec21013c460E",
    "__ZN4core3ops8function6FnOnce9call_once17hb1250f82ab822998E",
    "__ZN115_$LT$core..panic..unwind_safe..AssertUnwindSafe$LT$F$GT$$u20$as$u20$core..ops..function..FnOnce$LT$$LP$$RP$$GT$$GT$9call_once17h156df01ab880499cE",
    "__ZN3std9panicking3try7do_call17h12b00f5c1afca0e5E",
    "__ZN3std5panic12catch_unwind17h9623dc210b33032cE",
    "__ZN100_$LT$dioxus_core..any_props..VProps$LT$F$C$P$C$M$GT$$u20$as$u20$dioxus_core..any_props..AnyProps$GT$6render17h724478bd10ae45abE",
    "l___unnamed_8_harness-df4868ea1b5cadad.e382ndox9j839chz9esswif6u.rcgu.o",
    "__ZN100_$LT$dioxus_core..any_props..VProps$LT$F$C$P$C$M$GT$$u20$as$u20$dioxus_core..any_props..AnyProps$GT$9duplicate17hbcc315160800576aE",
    "l___unnamed_2_harness-df4868ea1b5cadad.c6wmz0dxwkc7r3o02wr81u9oy.rcgu.o",
    "__ZN11dioxus_core5nodes10VComponent3new17h64d3a0812e77f0edE",
    "__ZN11dioxus_core10properties10Properties15into_vcomponent17h7753673354bc1edfE",
    "__ZN7harness13zoom_controls17h3a73844835917e06E",
    "__ZN4core3ops8function2Fn4call17heb220dff9cb64346E",
    "__ZN119_$LT$F$u20$as$u20$dioxus_core..properties..ComponentFunction$LT$$LP$$RP$$C$dioxus_core..properties..EmptyMarker$GT$$GT$7rebuild17h1485b718be4dcc97E",
    "__ZN100_$LT$dioxus_core..any_props..VProps$LT$F$C$P$C$M$GT$$u20$as$u20$dioxus_core..any_props..AnyProps$GT$6render28_$u7b$$u7b$closure$u7d$$u7d$17h5f5c31c2c4fcd3edE",
    "__ZN4core3ops8function6FnOnce9call_once17haf610c889d773240E",
    "__ZN115_$LT$core..panic..unwind_safe..AssertUnwindSafe$LT$F$GT$$u20$as$u20$core..ops..function..FnOnce$LT$$LP$$RP$$GT$$GT$9call_once17he0621d6d235d0c08E",
    "__ZN3std9panicking3try7do_call17h8e7a94c382a5e60cE",
    "__ZN3std5panic12catch_unwind17h1f6291afe955bbfcE",
    "__ZN100_$LT$dioxus_core..any_props..VProps$LT$F$C$P$C$M$GT$$u20$as$u20$dioxus_core..any_props..AnyProps$GT$6render17h45480eba660d5148E",
    "l___unnamed_7_harness-df4868ea1b5cadad.c6wmz0dxwkc7r3o02wr81u9oy.rcgu.o",
    "__ZN11dioxus_core5nodes10VComponent3new17hcaaa6729c16dc137E",
    "__ZN11dioxus_core10properties10Properties15into_vcomponent17h79bafc80aea2aab7E",
    "___hotreload_start_app",
    "__ZN7harness3app17h400735d18e59eec4E",
    "__ZN7harness4main17h4654d77b3f37379bE",
    "_main",
]
__ZN153_$LT$core..result..Result$LT$T$C$F$GT$$u20$as$u20$core..ops..try_trait..FromResidual$LT$core..result..Result$LT$core..convert..Infallible$C$E$GT$$GT$$GT$13from_residual17h6deec000ffea4da5E
[
    "__ZN153_$LT$core..result..Result$LT$T$C$F$GT$$u20$as$u20$core..ops..try_trait..FromResidual$LT$core..result..Result$LT$core..convert..Infallible$C$E$GT$$GT$$GT$13from_residual17h6deec000ffea4da5E",
    "__ZN94_$LT$dioxus_signals..signal..Signal$LT$T$C$S$GT$$u20$as$u20$dioxus_signals..read..Readable$GT$18try_read_unchecked17h9b44c3b9dae81db5E",
    "__ZN94_$LT$dioxus_signals..global..Global$LT$T$C$R$GT$$u20$as$u20$dioxus_signals..read..Readable$GT$18try_read_unchecked17hdf66837701d74a96E",
    "__ZN14dioxus_signals4read8Readable8try_read17h4c98c1be567ce532E",
    "__ZN14dioxus_signals4read8Readable4read17he797328ed7d7b867E",
    "__ZN14dioxus_signals4read8Readable4with17h40ffefba83cf26acE",
    "__ZN14dioxus_signals6global6signal130_$LT$impl$u20$core..fmt..Display$u20$for$u20$dioxus_signals..global..Global$LT$dioxus_signals..signal..Signal$LT$T$GT$$C$T$GT$$GT$3fmt17h9bae2be454d81459E",
    "__ZN14dioxus_signals6global6signal130_$LT$impl$u20$core..fmt..Display$u20$for$u20$dioxus_signals..global..Global$LT$dioxus_signals..signal..Signal$LT$T$GT$$C$T$GT$$GT$33fmt$u7b$$u7b$reify.shim$u7d$$u7d$17h6614528e6ee54eebE",
    "__ZN7harness11GlobalInner17h56fe43aa3656219bE",
    "__ZN4core3ops8function2Fn4call17h3c8f851ee4dd175bE",
    "__ZN119_$LT$F$u20$as$u20$dioxus_core..properties..ComponentFunction$LT$$LP$$RP$$C$dioxus_core..properties..EmptyMarker$GT$$GT$7rebuild17hf7f1250efa3fb04cE",
    "__ZN100_$LT$dioxus_core..any_props..VProps$LT$F$C$P$C$M$GT$$u20$as$u20$dioxus_core..any_props..AnyProps$GT$6render28_$u7b$$u7b$closure$u7d$$u7d$17h025de8e22280b207E",
    "__ZN4core3ops8function6FnOnce9call_once17h371dcf20a99f261bE",
    "__ZN115_$LT$core..panic..unwind_safe..AssertUnwindSafe$LT$F$GT$$u20$as$u20$core..ops..function..FnOnce$LT$$LP$$RP$$GT$$GT$9call_once17h25a92dc564e3d7ffE",
    "__ZN3std9panicking3try7do_call17ha023efa9fb2ba8f7E",
    "__ZN3std5panic12catch_unwind17h48b71dec49934bf1E",
    "__ZN100_$LT$dioxus_core..any_props..VProps$LT$F$C$P$C$M$GT$$u20$as$u20$dioxus_core..any_props..AnyProps$GT$6render17h543a97c06bfefa3bE",
    "l___unnamed_4_harness-df4868ea1b5cadad.e382ndox9j839chz9esswif6u.rcgu.o",
    "__ZN100_$LT$dioxus_core..any_props..VProps$LT$F$C$P$C$M$GT$$u20$as$u20$dioxus_core..any_props..AnyProps$GT$9duplicate17h675ac73f4925ce25E",
    "l___unnamed_4_harness-df4868ea1b5cadad.c6wmz0dxwkc7r3o02wr81u9oy.rcgu.o",
    "__ZN11dioxus_core5nodes10VComponent3new17h993f8b3d9eb93954E",
    "__ZN11dioxus_core10properties10Properties15into_vcomponent17h965196ec13444056E",
    "__ZN7harness5Child17h2b32aeaba0b4c00dE",
    "__ZN4core3ops8function2Fn4call17hf86b26e1f09dbfc5E",
    "__ZN73_$LT$F$u20$as$u20$dioxus_core..properties..ComponentFunction$LT$P$GT$$GT$7rebuild17hdcc2e237eec08339E",
    "__ZN100_$LT$dioxus_core..any_props..VProps$LT$F$C$P$C$M$GT$$u20$as$u20$dioxus_core..any_props..AnyProps$GT$6render28_$u7b$$u7b$closure$u7d$$u7d$17hfbf53ec21013c460E",
    "__ZN4core3ops8function6FnOnce9call_once17hb1250f82ab822998E",
    "__ZN115_$LT$core..panic..unwind_safe..AssertUnwindSafe$LT$F$GT$$u20$as$u20$core..ops..function..FnOnce$LT$$LP$$RP$$GT$$GT$9call_once17h156df01ab880499cE",
    "__ZN3std9panicking3try7do_call17h12b00f5c1afca0e5E",
    "__ZN3std5panic12catch_unwind17h9623dc210b33032cE",
    "__ZN100_$LT$dioxus_core..any_props..VProps$LT$F$C$P$C$M$GT$$u20$as$u20$dioxus_core..any_props..AnyProps$GT$6render17h724478bd10ae45abE",
    "l___unnamed_8_harness-df4868ea1b5cadad.e382ndox9j839chz9esswif6u.rcgu.o",
    "__ZN100_$LT$dioxus_core..any_props..VProps$LT$F$C$P$C$M$GT$$u20$as$u20$dioxus_core..any_props..AnyProps$GT$9duplicate17hbcc315160800576aE",
    "l___unnamed_2_harness-df4868ea1b5cadad.c6wmz0dxwkc7r3o02wr81u9oy.rcgu.o",
    "__ZN11dioxus_core5nodes10VComponent3new17h64d3a0812e77f0edE",
    "__ZN11dioxus_core10properties10Properties15into_vcomponent17h7753673354bc1edfE",
    "__ZN7harness13zoom_controls17h3a73844835917e06E",
    "__ZN4core3ops8function2Fn4call17heb220dff9cb64346E",
    "__ZN119_$LT$F$u20$as$u20$dioxus_core..properties..ComponentFunction$LT$$LP$$RP$$C$dioxus_core..properties..EmptyMarker$GT$$GT$7rebuild17h1485b718be4dcc97E",
    "__ZN100_$LT$dioxus_core..any_props..VProps$LT$F$C$P$C$M$GT$$u20$as$u20$dioxus_core..any_props..AnyProps$GT$6render28_$u7b$$u7b$closure$u7d$$u7d$17h5f5c31c2c4fcd3edE",
    "__ZN4core3ops8function6FnOnce9call_once17haf610c889d773240E",
    "__ZN115_$LT$core..panic..unwind_safe..AssertUnwindSafe$LT$F$GT$$u20$as$u20$core..ops..function..FnOnce$LT$$LP$$RP$$GT$$GT$9call_once17he0621d6d235d0c08E",
    "__ZN3std9panicking3try7do_call17h8e7a94c382a5e60cE",
    "__ZN3std5panic12catch_unwind17h1f6291afe955bbfcE",
    "__ZN100_$LT$dioxus_core..any_props..VProps$LT$F$C$P$C$M$GT$$u20$as$u20$dioxus_core..any_props..AnyProps$GT$6render17h45480eba660d5148E",
    "l___unnamed_7_harness-df4868ea1b5cadad.c6wmz0dxwkc7r3o02wr81u9oy.rcgu.o",
    "__ZN11dioxus_core5nodes10VComponent3new17hcaaa6729c16dc137E",
    "__ZN11dioxus_core10properties10Properties15into_vcomponent17h79bafc80aea2aab7E",
    "___hotreload_start_app",
    "__ZN7harness3app17h400735d18e59eec4E",
    "__ZN7harness4main17h4654d77b3f37379bE",
    "_main",
]
GCC_except_table159
[]
__ZN94_$LT$generational_box..unsync..UnsyncStorage$u20$as$u20$generational_box..Storage$LT$T$GT$$GT$6new_rc17h5b0d727b8be4efabE
[
    "__ZN94_$LT$generational_box..unsync..UnsyncStorage$u20$as$u20$generational_box..Storage$LT$T$GT$$GT$6new_rc17h5b0d727b8be4efabE",
    "__ZN16generational_box28GenerationalBox$LT$T$C$S$GT$7leak_rc17h852a87cacf161948E",
    "__ZN11dioxus_core6events26Callback$LT$Args$C$Ret$GT$4leak17head956ddb36d6964E",
    "__ZN11dioxus_core5nodes14AttributeValue8listener17h363484e596cab30dE",
    "__ZN11dioxus_html6events5mouse7onclick17h63b1d816c5d51a43E",
    "__ZN11dioxus_html6events5mouse7onclick26call_with_explicit_closure17hf29c25ce3f1dc3aeE",
    "__ZN7harness5Child17h2b32aeaba0b4c00dE",
    "__ZN4core3ops8function2Fn4call17hf86b26e1f09dbfc5E",
    "__ZN73_$LT$F$u20$as$u20$dioxus_core..properties..ComponentFunction$LT$P$GT$$GT$7rebuild17hdcc2e237eec08339E",
    "__ZN100_$LT$dioxus_core..any_props..VProps$LT$F$C$P$C$M$GT$$u20$as$u20$dioxus_core..any_props..AnyProps$GT$6render28_$u7b$$u7b$closure$u7d$$u7d$17hfbf53ec21013c460E",
    "__ZN4core3ops8function6FnOnce9call_once17hb1250f82ab822998E",
    "__ZN115_$LT$core..panic..unwind_safe..AssertUnwindSafe$LT$F$GT$$u20$as$u20$core..ops..function..FnOnce$LT$$LP$$RP$$GT$$GT$9call_once17h156df01ab880499cE",
    "__ZN3std9panicking3try7do_call17h12b00f5c1afca0e5E",
    "__ZN3std5panic12catch_unwind17h9623dc210b33032cE",
    "__ZN100_$LT$dioxus_core..any_props..VProps$LT$F$C$P$C$M$GT$$u20$as$u20$dioxus_core..any_props..AnyProps$GT$6render17h724478bd10ae45abE",
    "l___unnamed_8_harness-df4868ea1b5cadad.e382ndox9j839chz9esswif6u.rcgu.o",
    "__ZN100_$LT$dioxus_core..any_props..VProps$LT$F$C$P$C$M$GT$$u20$as$u20$dioxus_core..any_props..AnyProps$GT$9duplicate17hbcc315160800576aE",
    "l___unnamed_2_harness-df4868ea1b5cadad.c6wmz0dxwkc7r3o02wr81u9oy.rcgu.o",
    "__ZN11dioxus_core5nodes10VComponent3new17h64d3a0812e77f0edE",
    "__ZN11dioxus_core10properties10Properties15into_vcomponent17h7753673354bc1edfE",
    "__ZN7harness13zoom_controls17h3a73844835917e06E",
    "__ZN4core3ops8function2Fn4call17heb220dff9cb64346E",
    "__ZN119_$LT$F$u20$as$u20$dioxus_core..properties..ComponentFunction$LT$$LP$$RP$$C$dioxus_core..properties..EmptyMarker$GT$$GT$7rebuild17h1485b718be4dcc97E",
    "__ZN100_$LT$dioxus_core..any_props..VProps$LT$F$C$P$C$M$GT$$u20$as$u20$dioxus_core..any_props..AnyProps$GT$6render28_$u7b$$u7b$closure$u7d$$u7d$17h5f5c31c2c4fcd3edE",
    "__ZN4core3ops8function6FnOnce9call_once17haf610c889d773240E",
    "__ZN115_$LT$core..panic..unwind_safe..AssertUnwindSafe$LT$F$GT$$u20$as$u20$core..ops..function..FnOnce$LT$$LP$$RP$$GT$$GT$9call_once17he0621d6d235d0c08E",
    "__ZN3std9panicking3try7do_call17h8e7a94c382a5e60cE",
    "__ZN3std5panic12catch_unwind17h1f6291afe955bbfcE",
    "__ZN100_$LT$dioxus_core..any_props..VProps$LT$F$C$P$C$M$GT$$u20$as$u20$dioxus_core..any_props..AnyProps$GT$6render17h45480eba660d5148E",
    "l___unnamed_7_harness-df4868ea1b5cadad.c6wmz0dxwkc7r3o02wr81u9oy.rcgu.o",
    "__ZN11dioxus_core5nodes10VComponent3new17hcaaa6729c16dc137E",
    "__ZN11dioxus_core10properties10Properties15into_vcomponent17h79bafc80aea2aab7E",
    "___hotreload_start_app",
    "__ZN7harness3app17h400735d18e59eec4E",
    "__ZN7harness4main17h4654d77b3f37379bE",
    "_main",
]
__ZN82_$LT$dioxus_signals..signal..Signal$LT$T$C$S$GT$$u20$as$u20$core..clone..Clone$GT$5clone17hc922b1041fcdaa93E
[
    "__ZN82_$LT$dioxus_signals..signal..Signal$LT$T$C$S$GT$$u20$as$u20$core..clone..Clone$GT$5clone17hc922b1041fcdaa93E",
    "__ZN14dioxus_signals6global19Global$LT$T$C$R$GT$7resolve17hfca595143252f355E",
    "__ZN94_$LT$dioxus_signals..global..Global$LT$T$C$R$GT$$u20$as$u20$dioxus_signals..read..Readable$GT$18try_read_unchecked17hdf66837701d74a96E",
    "__ZN14dioxus_signals4read8Readable8try_read17h4c98c1be567ce532E",
    "__ZN14dioxus_signals4read8Readable4read17he797328ed7d7b867E",
    "__ZN14dioxus_signals4read8Readable4with17h40ffefba83cf26acE",
    "__ZN14dioxus_signals6global6signal130_$LT$impl$u20$core..fmt..Display$u20$for$u20$dioxus_signals..global..Global$LT$dioxus_signals..signal..Signal$LT$T$GT$$C$T$GT$$GT$3fmt17h9bae2be454d81459E",
    "__ZN14dioxus_signals6global6signal130_$LT$impl$u20$core..fmt..Display$u20$for$u20$dioxus_signals..global..Global$LT$dioxus_signals..signal..Signal$LT$T$GT$$C$T$GT$$GT$33fmt$u7b$$u7b$reify.shim$u7d$$u7d$17h6614528e6ee54eebE",
    "__ZN7harness11GlobalInner17h56fe43aa3656219bE",
    "__ZN4core3ops8function2Fn4call17h3c8f851ee4dd175bE",
    "__ZN119_$LT$F$u20$as$u20$dioxus_core..properties..ComponentFunction$LT$$LP$$RP$$C$dioxus_core..properties..EmptyMarker$GT$$GT$7rebuild17hf7f1250efa3fb04cE",
    "__ZN100_$LT$dioxus_core..any_props..VProps$LT$F$C$P$C$M$GT$$u20$as$u20$dioxus_core..any_props..AnyProps$GT$6render28_$u7b$$u7b$closure$u7d$$u7d$17h025de8e22280b207E",
    "__ZN4core3ops8function6FnOnce9call_once17h371dcf20a99f261bE",
    "__ZN115_$LT$core..panic..unwind_safe..AssertUnwindSafe$LT$F$GT$$u20$as$u20$core..ops..function..FnOnce$LT$$LP$$RP$$GT$$GT$9call_once17h25a92dc564e3d7ffE",
    "__ZN3std9panicking3try7do_call17ha023efa9fb2ba8f7E",
    "__ZN3std5panic12catch_unwind17h48b71dec49934bf1E",
    "__ZN100_$LT$dioxus_core..any_props..VProps$LT$F$C$P$C$M$GT$$u20$as$u20$dioxus_core..any_props..AnyProps$GT$6render17h543a97c06bfefa3bE",
    "l___unnamed_4_harness-df4868ea1b5cadad.e382ndox9j839chz9esswif6u.rcgu.o",
    "__ZN100_$LT$dioxus_core..any_props..VProps$LT$F$C$P$C$M$GT$$u20$as$u20$dioxus_core..any_props..AnyProps$GT$9duplicate17h675ac73f4925ce25E",
    "l___unnamed_4_harness-df4868ea1b5cadad.c6wmz0dxwkc7r3o02wr81u9oy.rcgu.o",
    "__ZN11dioxus_core5nodes10VComponent3new17h993f8b3d9eb93954E",
    "__ZN11dioxus_core10properties10Properties15into_vcomponent17h965196ec13444056E",
    "__ZN7harness5Child17h2b32aeaba0b4c00dE",
    "__ZN4core3ops8function2Fn4call17hf86b26e1f09dbfc5E",
    "__ZN73_$LT$F$u20$as$u20$dioxus_core..properties..ComponentFunction$LT$P$GT$$GT$7rebuild17hdcc2e237eec08339E",
    "__ZN100_$LT$dioxus_core..any_props..VProps$LT$F$C$P$C$M$GT$$u20$as$u20$dioxus_core..any_props..AnyProps$GT$6render28_$u7b$$u7b$closure$u7d$$u7d$17hfbf53ec21013c460E",
    "__ZN4core3ops8function6FnOnce9call_once17hb1250f82ab822998E",
    "__ZN115_$LT$core..panic..unwind_safe..AssertUnwindSafe$LT$F$GT$$u20$as$u20$core..ops..function..FnOnce$LT$$LP$$RP$$GT$$GT$9call_once17h156df01ab880499cE",
    "__ZN3std9panicking3try7do_call17h12b00f5c1afca0e5E",
    "__ZN3std5panic12catch_unwind17h9623dc210b33032cE",
    "__ZN100_$LT$dioxus_core..any_props..VProps$LT$F$C$P$C$M$GT$$u20$as$u20$dioxus_core..any_props..AnyProps$GT$6render17h724478bd10ae45abE",
    "l___unnamed_8_harness-df4868ea1b5cadad.e382ndox9j839chz9esswif6u.rcgu.o",
    "__ZN100_$LT$dioxus_core..any_props..VProps$LT$F$C$P$C$M$GT$$u20$as$u20$dioxus_core..any_props..AnyProps$GT$9duplicate17hbcc315160800576aE",
    "l___unnamed_2_harness-df4868ea1b5cadad.c6wmz0dxwkc7r3o02wr81u9oy.rcgu.o",
    "__ZN11dioxus_core5nodes10VComponent3new17h64d3a0812e77f0edE",
    "__ZN11dioxus_core10properties10Properties15into_vcomponent17h7753673354bc1edfE",
    "__ZN7harness13zoom_controls17h3a73844835917e06E",
    "__ZN4core3ops8function2Fn4call17heb220dff9cb64346E",
    "__ZN119_$LT$F$u20$as$u20$dioxus_core..properties..ComponentFunction$LT$$LP$$RP$$C$dioxus_core..properties..EmptyMarker$GT$$GT$7rebuild17h1485b718be4dcc97E",
    "__ZN100_$LT$dioxus_core..any_props..VProps$LT$F$C$P$C$M$GT$$u20$as$u20$dioxus_core..any_props..AnyProps$GT$6render28_$u7b$$u7b$closure$u7d$$u7d$17h5f5c31c2c4fcd3edE",
    "__ZN4core3ops8function6FnOnce9call_once17haf610c889d773240E",
    "__ZN115_$LT$core..panic..unwind_safe..AssertUnwindSafe$LT$F$GT$$u20$as$u20$core..ops..function..FnOnce$LT$$LP$$RP$$GT$$GT$9call_once17he0621d6d235d0c08E",
    "__ZN3std9panicking3try7do_call17h8e7a94c382a5e60cE",
    "__ZN3std5panic12catch_unwind17h1f6291afe955bbfcE",
    "__ZN100_$LT$dioxus_core..any_props..VProps$LT$F$C$P$C$M$GT$$u20$as$u20$dioxus_core..any_props..AnyProps$GT$6render17h45480eba660d5148E",
    "l___unnamed_7_harness-df4868ea1b5cadad.c6wmz0dxwkc7r3o02wr81u9oy.rcgu.o",
    "__ZN11dioxus_core5nodes10VComponent3new17hcaaa6729c16dc137E",
    "__ZN11dioxus_core10properties10Properties15into_vcomponent17h79bafc80aea2aab7E",
    "___hotreload_start_app",
    "__ZN7harness3app17h400735d18e59eec4E",
    "__ZN7harness4main17h4654d77b3f37379bE",
    "_main",
]
ltmp2_harness-df4868ea1b5cadad.5q2y12azl42i698m4ll5ujfsn.rcgu.o
[]
l___unnamed_9_harness-df4868ea1b5cadad.57p783wz0mdr6vmpci89msrb7.rcgu.o
[
    "l___unnamed_9_harness-df4868ea1b5cadad.57p783wz0mdr6vmpci89msrb7.rcgu.o",
    "__ZN14dioxus_signals8warnings20__copy_value_hoisted23__Callable$LT$T$C$S$GT$16__run_if_enabled28_$u7b$$u7b$closure$u7d$$u7d$18copy_value_hoisted17hdf86268674ab8f19E",
    "__ZN14dioxus_signals8warnings20__copy_value_hoisted23__Callable$LT$T$C$S$GT$16__run_if_enabled28_$u7b$$u7b$closure$u7d$$u7d$17h354519dfa852bdb2E",
    "__ZN8warnings8warnings9WarningId10if_enabled17h164d3c80a38a816fE",
    "__ZN14dioxus_signals8warnings20__copy_value_hoisted23__Callable$LT$T$C$S$GT$16__run_if_enabled17ha86ba76fd9c6207eE",
    "l___unnamed_3_harness-df4868ea1b5cadad.57p783wz0mdr6vmpci89msrb7.rcgu.o",
    "__ZN115_$LT$dioxus_signals..warnings..__copy_value_hoisted..__Callable$LT$T$C$S$GT$$u20$as$u20$core..ops..deref..Deref$GT$5deref17h6e65b88cf15cf560E",
    "__ZN101_$LT$dioxus_signals..copy_value..CopyValue$LT$T$C$S$GT$$u20$as$u20$dioxus_signals..read..Readable$GT$18try_read_unchecked17hd493c9170b107b83E",
    "__ZN94_$LT$dioxus_signals..signal..Signal$LT$T$C$S$GT$$u20$as$u20$dioxus_signals..read..Readable$GT$18try_read_unchecked17h9caebf6d767dd7c6E",
    "__ZN94_$LT$dioxus_signals..global..Global$LT$T$C$R$GT$$u20$as$u20$dioxus_signals..read..Readable$GT$18try_read_unchecked17he830ea5221f7a27cE",
    "__ZN14dioxus_signals4read8Readable8try_read17hfbc244474934b291E",
    "__ZN14dioxus_signals4read8Readable4read17h41524c064db5dd2dE",
    "__ZN7harness6NewKid28_$u7b$$u7b$closure$u7d$$u7d$17h9099a0c67cdd6532E",
    "__ZN4core6option15Option$LT$T$GT$3map17h4f41683f6525b5abE",
    "__ZN7harness6NewKid17h0d16723298cf84efE",
    "__ZN4core3ops8function2Fn4call17hd6479507223b4c30E",
    "__ZN119_$LT$F$u20$as$u20$dioxus_core..properties..ComponentFunction$LT$$LP$$RP$$C$dioxus_core..properties..EmptyMarker$GT$$GT$7rebuild17h25f10a7a9b0fb873E",
    "__ZN100_$LT$dioxus_core..any_props..VProps$LT$F$C$P$C$M$GT$$u20$as$u20$dioxus_core..any_props..AnyProps$GT$6render28_$u7b$$u7b$closure$u7d$$u7d$17h0318bf51e7e6a83cE",
    "__ZN4core3ops8function6FnOnce9call_once17hbe9788c77c8be23cE",
    "__ZN115_$LT$core..panic..unwind_safe..AssertUnwindSafe$LT$F$GT$$u20$as$u20$core..ops..function..FnOnce$LT$$LP$$RP$$GT$$GT$9call_once17h7d8a81a2add3fd41E",
    "__ZN3std9panicking3try7do_call17h409d49b92466a609E",
    "__ZN3std5panic12catch_unwind17hf276ac0d0c73ede9E",
    "__ZN100_$LT$dioxus_core..any_props..VProps$LT$F$C$P$C$M$GT$$u20$as$u20$dioxus_core..any_props..AnyProps$GT$6render17h435360213479f568E",
    "l___unnamed_5_harness-df4868ea1b5cadad.c6wmz0dxwkc7r3o02wr81u9oy.rcgu.o",
    "__ZN11dioxus_core5nodes10VComponent3new17hbb2f7915050d710cE",
    "__ZN11dioxus_core10properties10Properties15into_vcomponent17hd8eb584571a3a19eE",
    "__ZN7harness13zoom_controls17h3a73844835917e06E",
    "__ZN4core3ops8function2Fn4call17heb220dff9cb64346E",
    "__ZN119_$LT$F$u20$as$u20$dioxus_core..properties..ComponentFunction$LT$$LP$$RP$$C$dioxus_core..properties..EmptyMarker$GT$$GT$7rebuild17h1485b718be4dcc97E",
    "__ZN100_$LT$dioxus_core..any_props..VProps$LT$F$C$P$C$M$GT$$u20$as$u20$dioxus_core..any_props..AnyProps$GT$6render28_$u7b$$u7b$closure$u7d$$u7d$17h5f5c31c2c4fcd3edE",
    "__ZN4core3ops8function6FnOnce9call_once17haf610c889d773240E",
    "__ZN115_$LT$core..panic..unwind_safe..AssertUnwindSafe$LT$F$GT$$u20$as$u20$core..ops..function..FnOnce$LT$$LP$$RP$$GT$$GT$9call_once17he0621d6d235d0c08E",
    "__ZN3std9panicking3try7do_call17h8e7a94c382a5e60cE",
    "__ZN3std5panic12catch_unwind17h1f6291afe955bbfcE",
    "__ZN100_$LT$dioxus_core..any_props..VProps$LT$F$C$P$C$M$GT$$u20$as$u20$dioxus_core..any_props..AnyProps$GT$6render17h45480eba660d5148E",
    "l___unnamed_7_harness-df4868ea1b5cadad.c6wmz0dxwkc7r3o02wr81u9oy.rcgu.o",
    "__ZN11dioxus_core5nodes10VComponent3new17hcaaa6729c16dc137E",
    "__ZN11dioxus_core10properties10Properties15into_vcomponent17h79bafc80aea2aab7E",
    "___hotreload_start_app",
    "__ZN7harness3app17h400735d18e59eec4E",
    "__ZN7harness4main17h4654d77b3f37379bE",
    "_main",
]
__ZN153_$LT$core..result..Result$LT$T$C$F$GT$$u20$as$u20$core..ops..try_trait..FromResidual$LT$core..result..Result$LT$core..convert..Infallible$C$E$GT$$GT$$GT$13from_residual17h2e4bbf7a61a894e1E
[
    "__ZN153_$LT$core..result..Result$LT$T$C$F$GT$$u20$as$u20$core..ops..try_trait..FromResidual$LT$core..result..Result$LT$core..convert..Infallible$C$E$GT$$GT$$GT$13from_residual17h2e4bbf7a61a894e1E",
    "__ZN94_$LT$generational_box..unsync..UnsyncStorage$u20$as$u20$generational_box..Storage$LT$T$GT$$GT$8try_read17h016a876643561fa6E",
    "__ZN16generational_box28GenerationalPointer$LT$S$GT$8try_read17hdb8cc3b1a8fdba97E",
    "__ZN16generational_box28GenerationalBox$LT$T$C$S$GT$8try_read17h49094ce29cdca583E",
    "__ZN101_$LT$dioxus_signals..copy_value..CopyValue$LT$T$C$S$GT$$u20$as$u20$dioxus_signals..read..Readable$GT$18try_read_unchecked17hcbacf7f4f84ff432E",
    "__ZN14dioxus_signals4read8Readable8try_read17h3f53ef44cef9d75bE",
    "__ZN14dioxus_signals8warnings41__signal_read_and_write_in_reactive_scope23__Callable$LT$T$C$S$GT$16__run_if_enabled28_$u7b$$u7b$closure$u7d$$u7d$39signal_read_and_write_in_reactive_scope17h1ad309ff6660ea62E",
    "__ZN14dioxus_signals8warnings41__signal_read_and_write_in_reactive_scope23__Callable$LT$T$C$S$GT$16__run_if_enabled28_$u7b$$u7b$closure$u7d$$u7d$17h1b0f83081d19009bE",
    "__ZN8warnings8warnings9WarningId10if_enabled17ha6ef6cba53b085f6E",
    "__ZN14dioxus_signals8warnings41__signal_read_and_write_in_reactive_scope23__Callable$LT$T$C$S$GT$16__run_if_enabled17he99b0af967ae97feE",
    "l___unnamed_2_harness-df4868ea1b5cadad.a64hlspyskaofkyts3cee93he.rcgu.o",
    "__ZN136_$LT$dioxus_signals..warnings..__signal_read_and_write_in_reactive_scope..__Callable$LT$T$C$S$GT$$u20$as$u20$core..ops..deref..Deref$GT$5deref17h86c7f97abc3f6c06E",
    "__ZN99_$LT$dioxus_signals..signal..SignalSubscriberDrop$LT$T$C$S$GT$$u20$as$u20$core..ops..drop..Drop$GT$4drop17h330fbe4f6664ee0bE",
    "__ZN4core3ptr118drop_in_place$LT$dioxus_signals..signal..SignalSubscriberDrop$LT$i64$C$generational_box..unsync..UnsyncStorage$GT$$GT$17h25b2886afdcde067E",
    "l___unnamed_21_harness-df4868ea1b5cadad.5qrn0xfhbv2rouh4f52itu55i.rcgu.o",
    "__ZN95_$LT$dioxus_signals..signal..Signal$LT$T$C$S$GT$$u20$as$u20$dioxus_signals..write..Writable$GT$19try_write_unchecked28_$u7b$$u7b$closure$u7d$$u7d$17he1b9191098da229cE",
    "__ZN4core6result19Result$LT$T$C$E$GT$3map17he4a924266e5e9d5aE",
    "__ZN95_$LT$dioxus_signals..signal..Signal$LT$T$C$S$GT$$u20$as$u20$dioxus_signals..write..Writable$GT$19try_write_unchecked17h4cba87c5ead1eb17E",
    "__ZN14dioxus_signals6global19Global$LT$T$C$R$GT$5write17h2228387cbea56f90E",
    "__ZN7harness11GlobalInner28_$u7b$$u7b$closure$u7d$$u7d$17hb42c5660948e5f3bE",
    "__ZN11dioxus_core6events26Callback$LT$Args$C$Ret$GT$3new28_$u7b$$u7b$closure$u7d$$u7d$17h6f96a569a9f12b13E",
    "l___unnamed_9_harness-df4868ea1b5cadad.egexdem49eejgynie32zwugcu.rcgu.o",
    "__ZN11dioxus_core6events26Callback$LT$Args$C$Ret$GT$3new17he13b8bd10ebc92d6E",
    "__ZN169_$LT$dioxus_core..events..Callback$LT$Args$C$Ret$GT$$u20$as$u20$dioxus_core..properties..SuperFrom$LT$Function$C$dioxus_core..events..MarkerWrapper$LT$Marker$GT$$GT$$GT$10super_from17h0f0cdd7a8468e271E",
    "__ZN69_$LT$T$u20$as$u20$dioxus_core..properties..SuperInto$LT$O$C$M$GT$$GT$10super_into17he799bb527ae17417E",
    "__ZN11dioxus_html6events5mouse7onclick28_$u7b$$u7b$closure$u7d$$u7d$17hcda8013b3fb0a7b1E",
    "__ZN11dioxus_core16generational_box10with_owner17hb0ca740788bcf0beE",
    "__ZN11dioxus_html6events5mouse7onclick17hcc75453cf267d2c1E",
    "__ZN11dioxus_html6events5mouse7onclick26call_with_explicit_closure17hc65524ea0f855dd4E",
    "__ZN7harness11GlobalInner17h56fe43aa3656219bE",
    "__ZN4core3ops8function2Fn4call17h3c8f851ee4dd175bE",
    "__ZN119_$LT$F$u20$as$u20$dioxus_core..properties..ComponentFunction$LT$$LP$$RP$$C$dioxus_core..properties..EmptyMarker$GT$$GT$7rebuild17hf7f1250efa3fb04cE",
    "__ZN100_$LT$dioxus_core..any_props..VProps$LT$F$C$P$C$M$GT$$u20$as$u20$dioxus_core..any_props..AnyProps$GT$6render28_$u7b$$u7b$closure$u7d$$u7d$17h025de8e22280b207E",
    "__ZN4core3ops8function6FnOnce9call_once17h371dcf20a99f261bE",
    "__ZN115_$LT$core..panic..unwind_safe..AssertUnwindSafe$LT$F$GT$$u20$as$u20$core..ops..function..FnOnce$LT$$LP$$RP$$GT$$GT$9call_once17h25a92dc564e3d7ffE",
    "__ZN3std9panicking3try7do_call17ha023efa9fb2ba8f7E",
    "__ZN3std5panic12catch_unwind17h48b71dec49934bf1E",
    "__ZN100_$LT$dioxus_core..any_props..VProps$LT$F$C$P$C$M$GT$$u20$as$u20$dioxus_core..any_props..AnyProps$GT$6render17h543a97c06bfefa3bE",
    "l___unnamed_4_harness-df4868ea1b5cadad.e382ndox9j839chz9esswif6u.rcgu.o",
    "__ZN100_$LT$dioxus_core..any_props..VProps$LT$F$C$P$C$M$GT$$u20$as$u20$dioxus_core..any_props..AnyProps$GT$9duplicate17h675ac73f4925ce25E",
    "l___unnamed_4_harness-df4868ea1b5cadad.c6wmz0dxwkc7r3o02wr81u9oy.rcgu.o",
    "__ZN11dioxus_core5nodes10VComponent3new17h993f8b3d9eb93954E",
    "__ZN11dioxus_core10properties10Properties15into_vcomponent17h965196ec13444056E",
    "__ZN7harness5Child17h2b32aeaba0b4c00dE",
    "__ZN4core3ops8function2Fn4call17hf86b26e1f09dbfc5E",
    "__ZN73_$LT$F$u20$as$u20$dioxus_core..properties..ComponentFunction$LT$P$GT$$GT$7rebuild17hdcc2e237eec08339E",
    "__ZN100_$LT$dioxus_core..any_props..VProps$LT$F$C$P$C$M$GT$$u20$as$u20$dioxus_core..any_props..AnyProps$GT$6render28_$u7b$$u7b$closure$u7d$$u7d$17hfbf53ec21013c460E",
    "__ZN4core3ops8function6FnOnce9call_once17hb1250f82ab822998E",
    "__ZN115_$LT$core..panic..unwind_safe..AssertUnwindSafe$LT$F$GT$$u20$as$u20$core..ops..function..FnOnce$LT$$LP$$RP$$GT$$GT$9call_once17h156df01ab880499cE",
    "__ZN3std9panicking3try7do_call17h12b00f5c1afca0e5E",
    "__ZN3std5panic12catch_unwind17h9623dc210b33032cE",
    "__ZN100_$LT$dioxus_core..any_props..VProps$LT$F$C$P$C$M$GT$$u20$as$u20$dioxus_core..any_props..AnyProps$GT$6render17h724478bd10ae45abE",
    "l___unnamed_8_harness-df4868ea1b5cadad.e382ndox9j839chz9esswif6u.rcgu.o",
    "__ZN100_$LT$dioxus_core..any_props..VProps$LT$F$C$P$C$M$GT$$u20$as$u20$dioxus_core..any_props..AnyProps$GT$9duplicate17hbcc315160800576aE",
    "l___unnamed_2_harness-df4868ea1b5cadad.c6wmz0dxwkc7r3o02wr81u9oy.rcgu.o",
    "__ZN11dioxus_core5nodes10VComponent3new17h64d3a0812e77f0edE",
    "__ZN11dioxus_core10properties10Properties15into_vcomponent17h7753673354bc1edfE",
    "__ZN7harness13zoom_controls17h3a73844835917e06E",
    "__ZN4core3ops8function2Fn4call17heb220dff9cb64346E",
    "__ZN119_$LT$F$u20$as$u20$dioxus_core..properties..ComponentFunction$LT$$LP$$RP$$C$dioxus_core..properties..EmptyMarker$GT$$GT$7rebuild17h1485b718be4dcc97E",
    "__ZN100_$LT$dioxus_core..any_props..VProps$LT$F$C$P$C$M$GT$$u20$as$u20$dioxus_core..any_props..AnyProps$GT$6render28_$u7b$$u7b$closure$u7d$$u7d$17h5f5c31c2c4fcd3edE",
    "__ZN4core3ops8function6FnOnce9call_once17haf610c889d773240E",
    "__ZN115_$LT$core..panic..unwind_safe..AssertUnwindSafe$LT$F$GT$$u20$as$u20$core..ops..function..FnOnce$LT$$LP$$RP$$GT$$GT$9call_once17he0621d6d235d0c08E",
    "__ZN3std9panicking3try7do_call17h8e7a94c382a5e60cE",
    "__ZN3std5panic12catch_unwind17h1f6291afe955bbfcE",
    "__ZN100_$LT$dioxus_core..any_props..VProps$LT$F$C$P$C$M$GT$$u20$as$u20$dioxus_core..any_props..AnyProps$GT$6render17h45480eba660d5148E",
    "l___unnamed_7_harness-df4868ea1b5cadad.c6wmz0dxwkc7r3o02wr81u9oy.rcgu.o",
    "__ZN11dioxus_core5nodes10VComponent3new17hcaaa6729c16dc137E",
    "__ZN11dioxus_core10properties10Properties15into_vcomponent17h79bafc80aea2aab7E",
    "___hotreload_start_app",
    "__ZN7harness3app17h400735d18e59eec4E",
    "__ZN7harness4main17h4654d77b3f37379bE",
    "_main",
]
l___unnamed_7_harness-df4868ea1b5cadad.cvbn14ab4uo17p1ckzp14p9v7.rcgu.o
[
    "l___unnamed_7_harness-df4868ea1b5cadad.cvbn14ab4uo17p1ckzp14p9v7.rcgu.o",
    "__ZN14dioxus_signals6global19Global$LT$T$C$R$GT$7resolve17h264c66f9d0e4c233E",
    "__ZN94_$LT$dioxus_signals..global..Global$LT$T$C$R$GT$$u20$as$u20$dioxus_signals..read..Readable$GT$18try_read_unchecked17he830ea5221f7a27cE",
    "__ZN14dioxus_signals4read8Readable8try_read17hfbc244474934b291E",
    "__ZN14dioxus_signals4read8Readable4read17h41524c064db5dd2dE",
    "__ZN7harness6NewKid28_$u7b$$u7b$closure$u7d$$u7d$17h9099a0c67cdd6532E",
    "__ZN4core6option15Option$LT$T$GT$3map17h4f41683f6525b5abE",
    "__ZN7harness6NewKid17h0d16723298cf84efE",
    "__ZN4core3ops8function2Fn4call17hd6479507223b4c30E",
    "__ZN119_$LT$F$u20$as$u20$dioxus_core..properties..ComponentFunction$LT$$LP$$RP$$C$dioxus_core..properties..EmptyMarker$GT$$GT$7rebuild17h25f10a7a9b0fb873E",
    "__ZN100_$LT$dioxus_core..any_props..VProps$LT$F$C$P$C$M$GT$$u20$as$u20$dioxus_core..any_props..AnyProps$GT$6render28_$u7b$$u7b$closure$u7d$$u7d$17h0318bf51e7e6a83cE",
    "__ZN4core3ops8function6FnOnce9call_once17hbe9788c77c8be23cE",
    "__ZN115_$LT$core..panic..unwind_safe..AssertUnwindSafe$LT$F$GT$$u20$as$u20$core..ops..function..FnOnce$LT$$LP$$RP$$GT$$GT$9call_once17h7d8a81a2add3fd41E",
    "__ZN3std9panicking3try7do_call17h409d49b92466a609E",
    "__ZN3std5panic12catch_unwind17hf276ac0d0c73ede9E",
    "__ZN100_$LT$dioxus_core..any_props..VProps$LT$F$C$P$C$M$GT$$u20$as$u20$dioxus_core..any_props..AnyProps$GT$6render17h435360213479f568E",
    "l___unnamed_5_harness-df4868ea1b5cadad.c6wmz0dxwkc7r3o02wr81u9oy.rcgu.o",
    "__ZN11dioxus_core5nodes10VComponent3new17hbb2f7915050d710cE",
    "__ZN11dioxus_core10properties10Properties15into_vcomponent17hd8eb584571a3a19eE",
    "__ZN7harness13zoom_controls17h3a73844835917e06E",
    "__ZN4core3ops8function2Fn4call17heb220dff9cb64346E",
    "__ZN119_$LT$F$u20$as$u20$dioxus_core..properties..ComponentFunction$LT$$LP$$RP$$C$dioxus_core..properties..EmptyMarker$GT$$GT$7rebuild17h1485b718be4dcc97E",
    "__ZN100_$LT$dioxus_core..any_props..VProps$LT$F$C$P$C$M$GT$$u20$as$u20$dioxus_core..any_props..AnyProps$GT$6render28_$u7b$$u7b$closure$u7d$$u7d$17h5f5c31c2c4fcd3edE",
    "__ZN4core3ops8function6FnOnce9call_once17haf610c889d773240E",
    "__ZN115_$LT$core..panic..unwind_safe..AssertUnwindSafe$LT$F$GT$$u20$as$u20$core..ops..function..FnOnce$LT$$LP$$RP$$GT$$GT$9call_once17he0621d6d235d0c08E",
    "__ZN3std9panicking3try7do_call17h8e7a94c382a5e60cE",
    "__ZN3std5panic12catch_unwind17h1f6291afe955bbfcE",
    "__ZN100_$LT$dioxus_core..any_props..VProps$LT$F$C$P$C$M$GT$$u20$as$u20$dioxus_core..any_props..AnyProps$GT$6render17h45480eba660d5148E",
    "l___unnamed_7_harness-df4868ea1b5cadad.c6wmz0dxwkc7r3o02wr81u9oy.rcgu.o",
    "__ZN11dioxus_core5nodes10VComponent3new17hcaaa6729c16dc137E",
    "__ZN11dioxus_core10properties10Properties15into_vcomponent17h79bafc80aea2aab7E",
    "___hotreload_start_app",
    "__ZN7harness3app17h400735d18e59eec4E",
    "__ZN7harness4main17h4654d77b3f37379bE",
    "_main",
]
l___unnamed_15_harness-df4868ea1b5cadad.57p783wz0mdr6vmpci89msrb7.rcgu.o
[
    "l___unnamed_15_harness-df4868ea1b5cadad.57p783wz0mdr6vmpci89msrb7.rcgu.o",
    "__ZN14dioxus_signals8warnings20__copy_value_hoisted23__Callable$LT$T$C$S$GT$16__run_if_enabled28_$u7b$$u7b$closure$u7d$$u7d$18copy_value_hoisted17h4bcd4bf1c0d65963E",
    "__ZN14dioxus_signals8warnings20__copy_value_hoisted23__Callable$LT$T$C$S$GT$16__run_if_enabled28_$u7b$$u7b$closure$u7d$$u7d$17h19a8eb07ae274774E",
    "__ZN8warnings8warnings9WarningId10if_enabled17h6c5ef0372f8fde45E",
    "__ZN14dioxus_signals8warnings20__copy_value_hoisted23__Callable$LT$T$C$S$GT$16__run_if_enabled17h697dcbc98164d162E",
    "l___unnamed_4_harness-df4868ea1b5cadad.57p783wz0mdr6vmpci89msrb7.rcgu.o",
    "__ZN115_$LT$dioxus_signals..warnings..__copy_value_hoisted..__Callable$LT$T$C$S$GT$$u20$as$u20$core..ops..deref..Deref$GT$5deref17h864a251dc80c21cdE",
    "__ZN102_$LT$dioxus_signals..copy_value..CopyValue$LT$T$C$S$GT$$u20$as$u20$dioxus_signals..write..Writable$GT$19try_write_unchecked17h0259d3be568e3fb2E",
    "__ZN95_$LT$dioxus_signals..signal..Signal$LT$T$C$S$GT$$u20$as$u20$dioxus_signals..write..Writable$GT$19try_write_unchecked17hdcf2eb8de4478aeaE",
    "__ZN14dioxus_signals5write8Writable9try_write17hae765eca398f8ac5E",
    "__ZN14dioxus_signals5write8Writable5write17h4e8272cf09e11ce0E",
    "__ZN14dioxus_signals5write8Writable3set17h364d6451a18ce01cE",
    "__ZN7harness5Child28_$u7b$$u7b$closure$u7d$$u7d$17haa258cc19113625bE",
    "__ZN11dioxus_core6events26Callback$LT$Args$C$Ret$GT$3new28_$u7b$$u7b$closure$u7d$$u7d$17h29ff8d84f1464c02E",
    "__ZN4core3ops8function6FnOnce9call_once17h97fcd42365d86ecdE",
    "__ZN4core3ops8function6FnOnce40call_once$u7b$$u7b$vtable.shim$u7d$$u7d$17h3ad06f9e3bd1d3a5E",
    "l___unnamed_2_harness-df4868ea1b5cadad.egexdem49eejgynie32zwugcu.rcgu.o",
    "__ZN11dioxus_core6events26Callback$LT$Args$C$Ret$GT$3new17h05bc5bd9792aac62E",
    "__ZN169_$LT$dioxus_core..events..Callback$LT$Args$C$Ret$GT$$u20$as$u20$dioxus_core..properties..SuperFrom$LT$Function$C$dioxus_core..events..MarkerWrapper$LT$Marker$GT$$GT$$GT$10super_from17h1bd476b8f48d9334E",
    "__ZN69_$LT$T$u20$as$u20$dioxus_core..properties..SuperInto$LT$O$C$M$GT$$GT$10super_into17hb65f9379448067e8E",
    "__ZN11dioxus_html6events5mouse7onclick28_$u7b$$u7b$closure$u7d$$u7d$17hf727a1c1abe214abE",
    "__ZN11dioxus_core16generational_box10with_owner17h9d89806d02eff80dE",
    "__ZN11dioxus_html6events5mouse7onclick17h63b1d816c5d51a43E",
    "__ZN11dioxus_html6events5mouse7onclick26call_with_explicit_closure17hf29c25ce3f1dc3aeE",
    "__ZN7harness5Child17h2b32aeaba0b4c00dE",
    "__ZN4core3ops8function2Fn4call17hf86b26e1f09dbfc5E",
    "__ZN73_$LT$F$u20$as$u20$dioxus_core..properties..ComponentFunction$LT$P$GT$$GT$7rebuild17hdcc2e237eec08339E",
    "__ZN100_$LT$dioxus_core..any_props..VProps$LT$F$C$P$C$M$GT$$u20$as$u20$dioxus_core..any_props..AnyProps$GT$6render28_$u7b$$u7b$closure$u7d$$u7d$17hfbf53ec21013c460E",
    "__ZN4core3ops8function6FnOnce9call_once17hb1250f82ab822998E",
    "__ZN115_$LT$core..panic..unwind_safe..AssertUnwindSafe$LT$F$GT$$u20$as$u20$core..ops..function..FnOnce$LT$$LP$$RP$$GT$$GT$9call_once17h156df01ab880499cE",
    "__ZN3std9panicking3try7do_call17h12b00f5c1afca0e5E",
    "__ZN3std5panic12catch_unwind17h9623dc210b33032cE",
    "__ZN100_$LT$dioxus_core..any_props..VProps$LT$F$C$P$C$M$GT$$u20$as$u20$dioxus_core..any_props..AnyProps$GT$6render17h724478bd10ae45abE",
    "l___unnamed_8_harness-df4868ea1b5cadad.e382ndox9j839chz9esswif6u.rcgu.o",
    "__ZN100_$LT$dioxus_core..any_props..VProps$LT$F$C$P$C$M$GT$$u20$as$u20$dioxus_core..any_props..AnyProps$GT$9duplicate17hbcc315160800576aE",
    "l___unnamed_2_harness-df4868ea1b5cadad.c6wmz0dxwkc7r3o02wr81u9oy.rcgu.o",
    "__ZN11dioxus_core5nodes10VComponent3new17h64d3a0812e77f0edE",
    "__ZN11dioxus_core10properties10Properties15into_vcomponent17h7753673354bc1edfE",
    "__ZN7harness13zoom_controls17h3a73844835917e06E",
    "__ZN4core3ops8function2Fn4call17heb220dff9cb64346E",
    "__ZN119_$LT$F$u20$as$u20$dioxus_core..properties..ComponentFunction$LT$$LP$$RP$$C$dioxus_core..properties..EmptyMarker$GT$$GT$7rebuild17h1485b718be4dcc97E",
    "__ZN100_$LT$dioxus_core..any_props..VProps$LT$F$C$P$C$M$GT$$u20$as$u20$dioxus_core..any_props..AnyProps$GT$6render28_$u7b$$u7b$closure$u7d$$u7d$17h5f5c31c2c4fcd3edE",
    "__ZN4core3ops8function6FnOnce9call_once17haf610c889d773240E",
    "__ZN115_$LT$core..panic..unwind_safe..AssertUnwindSafe$LT$F$GT$$u20$as$u20$core..ops..function..FnOnce$LT$$LP$$RP$$GT$$GT$9call_once17he0621d6d235d0c08E",
    "__ZN3std9panicking3try7do_call17h8e7a94c382a5e60cE",
    "__ZN3std5panic12catch_unwind17h1f6291afe955bbfcE",
    "__ZN100_$LT$dioxus_core..any_props..VProps$LT$F$C$P$C$M$GT$$u20$as$u20$dioxus_core..any_props..AnyProps$GT$6render17h45480eba660d5148E",
    "l___unnamed_7_harness-df4868ea1b5cadad.c6wmz0dxwkc7r3o02wr81u9oy.rcgu.o",
    "__ZN11dioxus_core5nodes10VComponent3new17hcaaa6729c16dc137E",
    "__ZN11dioxus_core10properties10Properties15into_vcomponent17h79bafc80aea2aab7E",
    "___hotreload_start_app",
    "__ZN7harness3app17h400735d18e59eec4E",
    "__ZN7harness4main17h4654d77b3f37379bE",
    "_main",
]
l___unnamed_15_harness-df4868ea1b5cadad.a64hlspyskaofkyts3cee93he.rcgu.o
[]
ltmp5_harness-df4868ea1b5cadad.95u99pl8agyfcvz2zu9mukpze.rcgu.o
[]
GCC_except_table167
[]
__ZN99_$LT$dioxus_signals..signal..SignalSubscriberDrop$LT$T$C$S$GT$$u20$as$u20$core..ops..drop..Drop$GT$4drop28_$u7b$$u7b$closure$u7d$$u7d$17h5fa09af2b504505bE
[
    "__ZN99_$LT$dioxus_signals..signal..SignalSubscriberDrop$LT$T$C$S$GT$$u20$as$u20$core..ops..drop..Drop$GT$4drop28_$u7b$$u7b$closure$u7d$$u7d$17h5fa09af2b504505bE",
    "__ZN99_$LT$dioxus_signals..signal..SignalSubscriberDrop$LT$T$C$S$GT$$u20$as$u20$core..ops..drop..Drop$GT$4drop17h330fbe4f6664ee0bE",
    "__ZN4core3ptr118drop_in_place$LT$dioxus_signals..signal..SignalSubscriberDrop$LT$i64$C$generational_box..unsync..UnsyncStorage$GT$$GT$17h25b2886afdcde067E",
    "l___unnamed_21_harness-df4868ea1b5cadad.5qrn0xfhbv2rouh4f52itu55i.rcgu.o",
    "__ZN95_$LT$dioxus_signals..signal..Signal$LT$T$C$S$GT$$u20$as$u20$dioxus_signals..write..Writable$GT$19try_write_unchecked28_$u7b$$u7b$closure$u7d$$u7d$17he1b9191098da229cE",
    "__ZN4core6result19Result$LT$T$C$E$GT$3map17he4a924266e5e9d5aE",
    "__ZN95_$LT$dioxus_signals..signal..Signal$LT$T$C$S$GT$$u20$as$u20$dioxus_signals..write..Writable$GT$19try_write_unchecked17h4cba87c5ead1eb17E",
    "__ZN14dioxus_signals6global19Global$LT$T$C$R$GT$5write17h2228387cbea56f90E",
    "__ZN7harness11GlobalInner28_$u7b$$u7b$closure$u7d$$u7d$17hb42c5660948e5f3bE",
    "__ZN11dioxus_core6events26Callback$LT$Args$C$Ret$GT$3new28_$u7b$$u7b$closure$u7d$$u7d$17h6f96a569a9f12b13E",
    "l___unnamed_9_harness-df4868ea1b5cadad.egexdem49eejgynie32zwugcu.rcgu.o",
    "__ZN11dioxus_core6events26Callback$LT$Args$C$Ret$GT$3new17he13b8bd10ebc92d6E",
    "__ZN169_$LT$dioxus_core..events..Callback$LT$Args$C$Ret$GT$$u20$as$u20$dioxus_core..properties..SuperFrom$LT$Function$C$dioxus_core..events..MarkerWrapper$LT$Marker$GT$$GT$$GT$10super_from17h0f0cdd7a8468e271E",
    "__ZN69_$LT$T$u20$as$u20$dioxus_core..properties..SuperInto$LT$O$C$M$GT$$GT$10super_into17he799bb527ae17417E",
    "__ZN11dioxus_html6events5mouse7onclick28_$u7b$$u7b$closure$u7d$$u7d$17hcda8013b3fb0a7b1E",
    "__ZN11dioxus_core16generational_box10with_owner17hb0ca740788bcf0beE",
    "__ZN11dioxus_html6events5mouse7onclick17hcc75453cf267d2c1E",
    "__ZN11dioxus_html6events5mouse7onclick26call_with_explicit_closure17hc65524ea0f855dd4E",
    "__ZN7harness11GlobalInner17h56fe43aa3656219bE",
    "__ZN4core3ops8function2Fn4call17h3c8f851ee4dd175bE",
    "__ZN119_$LT$F$u20$as$u20$dioxus_core..properties..ComponentFunction$LT$$LP$$RP$$C$dioxus_core..properties..EmptyMarker$GT$$GT$7rebuild17hf7f1250efa3fb04cE",
    "__ZN100_$LT$dioxus_core..any_props..VProps$LT$F$C$P$C$M$GT$$u20$as$u20$dioxus_core..any_props..AnyProps$GT$6render28_$u7b$$u7b$closure$u7d$$u7d$17h025de8e22280b207E",
    "__ZN4core3ops8function6FnOnce9call_once17h371dcf20a99f261bE",
    "__ZN115_$LT$core..panic..unwind_safe..AssertUnwindSafe$LT$F$GT$$u20$as$u20$core..ops..function..FnOnce$LT$$LP$$RP$$GT$$GT$9call_once17h25a92dc564e3d7ffE",
    "__ZN3std9panicking3try7do_call17ha023efa9fb2ba8f7E",
    "__ZN3std5panic12catch_unwind17h48b71dec49934bf1E",
    "__ZN100_$LT$dioxus_core..any_props..VProps$LT$F$C$P$C$M$GT$$u20$as$u20$dioxus_core..any_props..AnyProps$GT$6render17h543a97c06bfefa3bE",
    "l___unnamed_4_harness-df4868ea1b5cadad.e382ndox9j839chz9esswif6u.rcgu.o",
    "__ZN100_$LT$dioxus_core..any_props..VProps$LT$F$C$P$C$M$GT$$u20$as$u20$dioxus_core..any_props..AnyProps$GT$9duplicate17h675ac73f4925ce25E",
    "l___unnamed_4_harness-df4868ea1b5cadad.c6wmz0dxwkc7r3o02wr81u9oy.rcgu.o",
    "__ZN11dioxus_core5nodes10VComponent3new17h993f8b3d9eb93954E",
    "__ZN11dioxus_core10properties10Properties15into_vcomponent17h965196ec13444056E",
    "__ZN7harness5Child17h2b32aeaba0b4c00dE",
    "__ZN4core3ops8function2Fn4call17hf86b26e1f09dbfc5E",
    "__ZN73_$LT$F$u20$as$u20$dioxus_core..properties..ComponentFunction$LT$P$GT$$GT$7rebuild17hdcc2e237eec08339E",
    "__ZN100_$LT$dioxus_core..any_props..VProps$LT$F$C$P$C$M$GT$$u20$as$u20$dioxus_core..any_props..AnyProps$GT$6render28_$u7b$$u7b$closure$u7d$$u7d$17hfbf53ec21013c460E",
    "__ZN4core3ops8function6FnOnce9call_once17hb1250f82ab822998E",
    "__ZN115_$LT$core..panic..unwind_safe..AssertUnwindSafe$LT$F$GT$$u20$as$u20$core..ops..function..FnOnce$LT$$LP$$RP$$GT$$GT$9call_once17h156df01ab880499cE",
    "__ZN3std9panicking3try7do_call17h12b00f5c1afca0e5E",
    "__ZN3std5panic12catch_unwind17h9623dc210b33032cE",
    "__ZN100_$LT$dioxus_core..any_props..VProps$LT$F$C$P$C$M$GT$$u20$as$u20$dioxus_core..any_props..AnyProps$GT$6render17h724478bd10ae45abE",
    "l___unnamed_8_harness-df4868ea1b5cadad.e382ndox9j839chz9esswif6u.rcgu.o",
    "__ZN100_$LT$dioxus_core..any_props..VProps$LT$F$C$P$C$M$GT$$u20$as$u20$dioxus_core..any_props..AnyProps$GT$9duplicate17hbcc315160800576aE",
    "l___unnamed_2_harness-df4868ea1b5cadad.c6wmz0dxwkc7r3o02wr81u9oy.rcgu.o",
    "__ZN11dioxus_core5nodes10VComponent3new17h64d3a0812e77f0edE",
    "__ZN11dioxus_core10properties10Properties15into_vcomponent17h7753673354bc1edfE",
    "__ZN7harness13zoom_controls17h3a73844835917e06E",
    "__ZN4core3ops8function2Fn4call17heb220dff9cb64346E",
    "__ZN119_$LT$F$u20$as$u20$dioxus_core..properties..ComponentFunction$LT$$LP$$RP$$C$dioxus_core..properties..EmptyMarker$GT$$GT$7rebuild17h1485b718be4dcc97E",
    "__ZN100_$LT$dioxus_core..any_props..VProps$LT$F$C$P$C$M$GT$$u20$as$u20$dioxus_core..any_props..AnyProps$GT$6render28_$u7b$$u7b$closure$u7d$$u7d$17h5f5c31c2c4fcd3edE",
    "__ZN4core3ops8function6FnOnce9call_once17haf610c889d773240E",
    "__ZN115_$LT$core..panic..unwind_safe..AssertUnwindSafe$LT$F$GT$$u20$as$u20$core..ops..function..FnOnce$LT$$LP$$RP$$GT$$GT$9call_once17he0621d6d235d0c08E",
    "__ZN3std9panicking3try7do_call17h8e7a94c382a5e60cE",
    "__ZN3std5panic12catch_unwind17h1f6291afe955bbfcE",
    "__ZN100_$LT$dioxus_core..any_props..VProps$LT$F$C$P$C$M$GT$$u20$as$u20$dioxus_core..any_props..AnyProps$GT$6render17h45480eba660d5148E",
    "l___unnamed_7_harness-df4868ea1b5cadad.c6wmz0dxwkc7r3o02wr81u9oy.rcgu.o",
    "__ZN11dioxus_core5nodes10VComponent3new17hcaaa6729c16dc137E",
    "__ZN11dioxus_core10properties10Properties15into_vcomponent17h79bafc80aea2aab7E",
    "___hotreload_start_app",
    "__ZN7harness3app17h400735d18e59eec4E",
    "__ZN7harness4main17h4654d77b3f37379bE",
    "_main",
]
GCC_except_table188
[]
GCC_except_table114
[]
__ZN153_$LT$core..result..Result$LT$T$C$F$GT$$u20$as$u20$core..ops..try_trait..FromResidual$LT$core..result..Result$LT$core..convert..Infallible$C$E$GT$$GT$$GT$13from_residual17hb87cef0acb7571a8E
[
    "__ZN153_$LT$core..result..Result$LT$T$C$F$GT$$u20$as$u20$core..ops..try_trait..FromResidual$LT$core..result..Result$LT$core..convert..Infallible$C$E$GT$$GT$$GT$13from_residual17hb87cef0acb7571a8E",
    "__ZN94_$LT$generational_box..unsync..UnsyncStorage$u20$as$u20$generational_box..Storage$LT$T$GT$$GT$9try_write17hbf4c3a686420c2f4E",
    "__ZN16generational_box28GenerationalPointer$LT$S$GT$9try_write17hae0222b657cc2ac8E",
    "__ZN16generational_box28GenerationalBox$LT$T$C$S$GT$9try_write17hcf63fbb652119ae9E",
    "__ZN102_$LT$dioxus_signals..copy_value..CopyValue$LT$T$C$S$GT$$u20$as$u20$dioxus_signals..write..Writable$GT$19try_write_unchecked17h42184b5e72236e49E",
    "__ZN95_$LT$dioxus_signals..signal..Signal$LT$T$C$S$GT$$u20$as$u20$dioxus_signals..write..Writable$GT$19try_write_unchecked17h4cba87c5ead1eb17E",
    "__ZN14dioxus_signals6global19Global$LT$T$C$R$GT$5write17h2228387cbea56f90E",
    "__ZN7harness11GlobalInner28_$u7b$$u7b$closure$u7d$$u7d$17hb42c5660948e5f3bE",
    "__ZN11dioxus_core6events26Callback$LT$Args$C$Ret$GT$3new28_$u7b$$u7b$closure$u7d$$u7d$17h6f96a569a9f12b13E",
    "l___unnamed_9_harness-df4868ea1b5cadad.egexdem49eejgynie32zwugcu.rcgu.o",
    "__ZN11dioxus_core6events26Callback$LT$Args$C$Ret$GT$3new17he13b8bd10ebc92d6E",
    "__ZN169_$LT$dioxus_core..events..Callback$LT$Args$C$Ret$GT$$u20$as$u20$dioxus_core..properties..SuperFrom$LT$Function$C$dioxus_core..events..MarkerWrapper$LT$Marker$GT$$GT$$GT$10super_from17h0f0cdd7a8468e271E",
    "__ZN69_$LT$T$u20$as$u20$dioxus_core..properties..SuperInto$LT$O$C$M$GT$$GT$10super_into17he799bb527ae17417E",
    "__ZN11dioxus_html6events5mouse7onclick28_$u7b$$u7b$closure$u7d$$u7d$17hcda8013b3fb0a7b1E",
    "__ZN11dioxus_core16generational_box10with_owner17hb0ca740788bcf0beE",
    "__ZN11dioxus_html6events5mouse7onclick17hcc75453cf267d2c1E",
    "__ZN11dioxus_html6events5mouse7onclick26call_with_explicit_closure17hc65524ea0f855dd4E",
    "__ZN7harness11GlobalInner17h56fe43aa3656219bE",
    "__ZN4core3ops8function2Fn4call17h3c8f851ee4dd175bE",
    "__ZN119_$LT$F$u20$as$u20$dioxus_core..properties..ComponentFunction$LT$$LP$$RP$$C$dioxus_core..properties..EmptyMarker$GT$$GT$7rebuild17hf7f1250efa3fb04cE",
    "__ZN100_$LT$dioxus_core..any_props..VProps$LT$F$C$P$C$M$GT$$u20$as$u20$dioxus_core..any_props..AnyProps$GT$6render28_$u7b$$u7b$closure$u7d$$u7d$17h025de8e22280b207E",
    "__ZN4core3ops8function6FnOnce9call_once17h371dcf20a99f261bE",
    "__ZN115_$LT$core..panic..unwind_safe..AssertUnwindSafe$LT$F$GT$$u20$as$u20$core..ops..function..FnOnce$LT$$LP$$RP$$GT$$GT$9call_once17h25a92dc564e3d7ffE",
    "__ZN3std9panicking3try7do_call17ha023efa9fb2ba8f7E",
    "__ZN3std5panic12catch_unwind17h48b71dec49934bf1E",
    "__ZN100_$LT$dioxus_core..any_props..VProps$LT$F$C$P$C$M$GT$$u20$as$u20$dioxus_core..any_props..AnyProps$GT$6render17h543a97c06bfefa3bE",
    "l___unnamed_4_harness-df4868ea1b5cadad.e382ndox9j839chz9esswif6u.rcgu.o",
    "__ZN100_$LT$dioxus_core..any_props..VProps$LT$F$C$P$C$M$GT$$u20$as$u20$dioxus_core..any_props..AnyProps$GT$9duplicate17h675ac73f4925ce25E",
    "l___unnamed_4_harness-df4868ea1b5cadad.c6wmz0dxwkc7r3o02wr81u9oy.rcgu.o",
    "__ZN11dioxus_core5nodes10VComponent3new17h993f8b3d9eb93954E",
    "__ZN11dioxus_core10properties10Properties15into_vcomponent17h965196ec13444056E",
    "__ZN7harness5Child17h2b32aeaba0b4c00dE",
    "__ZN4core3ops8function2Fn4call17hf86b26e1f09dbfc5E",
    "__ZN73_$LT$F$u20$as$u20$dioxus_core..properties..ComponentFunction$LT$P$GT$$GT$7rebuild17hdcc2e237eec08339E",
    "__ZN100_$LT$dioxus_core..any_props..VProps$LT$F$C$P$C$M$GT$$u20$as$u20$dioxus_core..any_props..AnyProps$GT$6render28_$u7b$$u7b$closure$u7d$$u7d$17hfbf53ec21013c460E",
    "__ZN4core3ops8function6FnOnce9call_once17hb1250f82ab822998E",
    "__ZN115_$LT$core..panic..unwind_safe..AssertUnwindSafe$LT$F$GT$$u20$as$u20$core..ops..function..FnOnce$LT$$LP$$RP$$GT$$GT$9call_once17h156df01ab880499cE",
    "__ZN3std9panicking3try7do_call17h12b00f5c1afca0e5E",
    "__ZN3std5panic12catch_unwind17h9623dc210b33032cE",
    "__ZN100_$LT$dioxus_core..any_props..VProps$LT$F$C$P$C$M$GT$$u20$as$u20$dioxus_core..any_props..AnyProps$GT$6render17h724478bd10ae45abE",
    "l___unnamed_8_harness-df4868ea1b5cadad.e382ndox9j839chz9esswif6u.rcgu.o",
    "__ZN100_$LT$dioxus_core..any_props..VProps$LT$F$C$P$C$M$GT$$u20$as$u20$dioxus_core..any_props..AnyProps$GT$9duplicate17hbcc315160800576aE",
    "l___unnamed_2_harness-df4868ea1b5cadad.c6wmz0dxwkc7r3o02wr81u9oy.rcgu.o",
    "__ZN11dioxus_core5nodes10VComponent3new17h64d3a0812e77f0edE",
    "__ZN11dioxus_core10properties10Properties15into_vcomponent17h7753673354bc1edfE",
    "__ZN7harness13zoom_controls17h3a73844835917e06E",
    "__ZN4core3ops8function2Fn4call17heb220dff9cb64346E",
    "__ZN119_$LT$F$u20$as$u20$dioxus_core..properties..ComponentFunction$LT$$LP$$RP$$C$dioxus_core..properties..EmptyMarker$GT$$GT$7rebuild17h1485b718be4dcc97E",
    "__ZN100_$LT$dioxus_core..any_props..VProps$LT$F$C$P$C$M$GT$$u20$as$u20$dioxus_core..any_props..AnyProps$GT$6render28_$u7b$$u7b$closure$u7d$$u7d$17h5f5c31c2c4fcd3edE",
    "__ZN4core3ops8function6FnOnce9call_once17haf610c889d773240E",
    "__ZN115_$LT$core..panic..unwind_safe..AssertUnwindSafe$LT$F$GT$$u20$as$u20$core..ops..function..FnOnce$LT$$LP$$RP$$GT$$GT$9call_once17he0621d6d235d0c08E",
    "__ZN3std9panicking3try7do_call17h8e7a94c382a5e60cE",
    "__ZN3std5panic12catch_unwind17h1f6291afe955bbfcE",
    "__ZN100_$LT$dioxus_core..any_props..VProps$LT$F$C$P$C$M$GT$$u20$as$u20$dioxus_core..any_props..AnyProps$GT$6render17h45480eba660d5148E",
    "l___unnamed_7_harness-df4868ea1b5cadad.c6wmz0dxwkc7r3o02wr81u9oy.rcgu.o",
    "__ZN11dioxus_core5nodes10VComponent3new17hcaaa6729c16dc137E",
    "__ZN11dioxus_core10properties10Properties15into_vcomponent17h79bafc80aea2aab7E",
    "___hotreload_start_app",
    "__ZN7harness3app17h400735d18e59eec4E",
    "__ZN7harness4main17h4654d77b3f37379bE",
    "_main",
]
GCC_except_table361
[]
__ZN14dioxus_signals6signal19Signal$LT$T$C$S$GT$18update_subscribers17h8c21e3c058415f01E
[
    "__ZN14dioxus_signals6signal19Signal$LT$T$C$S$GT$18update_subscribers17h8c21e3c058415f01E",
    "__ZN99_$LT$dioxus_signals..signal..SignalSubscriberDrop$LT$T$C$S$GT$$u20$as$u20$core..ops..drop..Drop$GT$4drop17h330fbe4f6664ee0bE",
    "__ZN4core3ptr118drop_in_place$LT$dioxus_signals..signal..SignalSubscriberDrop$LT$i64$C$generational_box..unsync..UnsyncStorage$GT$$GT$17h25b2886afdcde067E",
    "l___unnamed_21_harness-df4868ea1b5cadad.5qrn0xfhbv2rouh4f52itu55i.rcgu.o",
    "__ZN95_$LT$dioxus_signals..signal..Signal$LT$T$C$S$GT$$u20$as$u20$dioxus_signals..write..Writable$GT$19try_write_unchecked28_$u7b$$u7b$closure$u7d$$u7d$17he1b9191098da229cE",
    "__ZN4core6result19Result$LT$T$C$E$GT$3map17he4a924266e5e9d5aE",
    "__ZN95_$LT$dioxus_signals..signal..Signal$LT$T$C$S$GT$$u20$as$u20$dioxus_signals..write..Writable$GT$19try_write_unchecked17h4cba87c5ead1eb17E",
    "__ZN14dioxus_signals6global19Global$LT$T$C$R$GT$5write17h2228387cbea56f90E",
    "__ZN7harness11GlobalInner28_$u7b$$u7b$closure$u7d$$u7d$17hb42c5660948e5f3bE",
    "__ZN11dioxus_core6events26Callback$LT$Args$C$Ret$GT$3new28_$u7b$$u7b$closure$u7d$$u7d$17h6f96a569a9f12b13E",
    "l___unnamed_9_harness-df4868ea1b5cadad.egexdem49eejgynie32zwugcu.rcgu.o",
    "__ZN11dioxus_core6events26Callback$LT$Args$C$Ret$GT$3new17he13b8bd10ebc92d6E",
    "__ZN169_$LT$dioxus_core..events..Callback$LT$Args$C$Ret$GT$$u20$as$u20$dioxus_core..properties..SuperFrom$LT$Function$C$dioxus_core..events..MarkerWrapper$LT$Marker$GT$$GT$$GT$10super_from17h0f0cdd7a8468e271E",
    "__ZN69_$LT$T$u20$as$u20$dioxus_core..properties..SuperInto$LT$O$C$M$GT$$GT$10super_into17he799bb527ae17417E",
    "__ZN11dioxus_html6events5mouse7onclick28_$u7b$$u7b$closure$u7d$$u7d$17hcda8013b3fb0a7b1E",
    "__ZN11dioxus_core16generational_box10with_owner17hb0ca740788bcf0beE",
    "__ZN11dioxus_html6events5mouse7onclick17hcc75453cf267d2c1E",
    "__ZN11dioxus_html6events5mouse7onclick26call_with_explicit_closure17hc65524ea0f855dd4E",
    "__ZN7harness11GlobalInner17h56fe43aa3656219bE",
    "__ZN4core3ops8function2Fn4call17h3c8f851ee4dd175bE",
    "__ZN119_$LT$F$u20$as$u20$dioxus_core..properties..ComponentFunction$LT$$LP$$RP$$C$dioxus_core..properties..EmptyMarker$GT$$GT$7rebuild17hf7f1250efa3fb04cE",
    "__ZN100_$LT$dioxus_core..any_props..VProps$LT$F$C$P$C$M$GT$$u20$as$u20$dioxus_core..any_props..AnyProps$GT$6render28_$u7b$$u7b$closure$u7d$$u7d$17h025de8e22280b207E",
    "__ZN4core3ops8function6FnOnce9call_once17h371dcf20a99f261bE",
    "__ZN115_$LT$core..panic..unwind_safe..AssertUnwindSafe$LT$F$GT$$u20$as$u20$core..ops..function..FnOnce$LT$$LP$$RP$$GT$$GT$9call_once17h25a92dc564e3d7ffE",
    "__ZN3std9panicking3try7do_call17ha023efa9fb2ba8f7E",
    "__ZN3std5panic12catch_unwind17h48b71dec49934bf1E",
    "__ZN100_$LT$dioxus_core..any_props..VProps$LT$F$C$P$C$M$GT$$u20$as$u20$dioxus_core..any_props..AnyProps$GT$6render17h543a97c06bfefa3bE",
    "l___unnamed_4_harness-df4868ea1b5cadad.e382ndox9j839chz9esswif6u.rcgu.o",
    "__ZN100_$LT$dioxus_core..any_props..VProps$LT$F$C$P$C$M$GT$$u20$as$u20$dioxus_core..any_props..AnyProps$GT$9duplicate17h675ac73f4925ce25E",
    "l___unnamed_4_harness-df4868ea1b5cadad.c6wmz0dxwkc7r3o02wr81u9oy.rcgu.o",
    "__ZN11dioxus_core5nodes10VComponent3new17h993f8b3d9eb93954E",
    "__ZN11dioxus_core10properties10Properties15into_vcomponent17h965196ec13444056E",
    "__ZN7harness5Child17h2b32aeaba0b4c00dE",
    "__ZN4core3ops8function2Fn4call17hf86b26e1f09dbfc5E",
    "__ZN73_$LT$F$u20$as$u20$dioxus_core..properties..ComponentFunction$LT$P$GT$$GT$7rebuild17hdcc2e237eec08339E",
    "__ZN100_$LT$dioxus_core..any_props..VProps$LT$F$C$P$C$M$GT$$u20$as$u20$dioxus_core..any_props..AnyProps$GT$6render28_$u7b$$u7b$closure$u7d$$u7d$17hfbf53ec21013c460E",
    "__ZN4core3ops8function6FnOnce9call_once17hb1250f82ab822998E",
    "__ZN115_$LT$core..panic..unwind_safe..AssertUnwindSafe$LT$F$GT$$u20$as$u20$core..ops..function..FnOnce$LT$$LP$$RP$$GT$$GT$9call_once17h156df01ab880499cE",
    "__ZN3std9panicking3try7do_call17h12b00f5c1afca0e5E",
    "__ZN3std5panic12catch_unwind17h9623dc210b33032cE",
    "__ZN100_$LT$dioxus_core..any_props..VProps$LT$F$C$P$C$M$GT$$u20$as$u20$dioxus_core..any_props..AnyProps$GT$6render17h724478bd10ae45abE",
    "l___unnamed_8_harness-df4868ea1b5cadad.e382ndox9j839chz9esswif6u.rcgu.o",
    "__ZN100_$LT$dioxus_core..any_props..VProps$LT$F$C$P$C$M$GT$$u20$as$u20$dioxus_core..any_props..AnyProps$GT$9duplicate17hbcc315160800576aE",
    "l___unnamed_2_harness-df4868ea1b5cadad.c6wmz0dxwkc7r3o02wr81u9oy.rcgu.o",
    "__ZN11dioxus_core5nodes10VComponent3new17h64d3a0812e77f0edE",
    "__ZN11dioxus_core10properties10Properties15into_vcomponent17h7753673354bc1edfE",
    "__ZN7harness13zoom_controls17h3a73844835917e06E",
    "__ZN4core3ops8function2Fn4call17heb220dff9cb64346E",
    "__ZN119_$LT$F$u20$as$u20$dioxus_core..properties..ComponentFunction$LT$$LP$$RP$$C$dioxus_core..properties..EmptyMarker$GT$$GT$7rebuild17h1485b718be4dcc97E",
    "__ZN100_$LT$dioxus_core..any_props..VProps$LT$F$C$P$C$M$GT$$u20$as$u20$dioxus_core..any_props..AnyProps$GT$6render28_$u7b$$u7b$closure$u7d$$u7d$17h5f5c31c2c4fcd3edE",
    "__ZN4core3ops8function6FnOnce9call_once17haf610c889d773240E",
    "__ZN115_$LT$core..panic..unwind_safe..AssertUnwindSafe$LT$F$GT$$u20$as$u20$core..ops..function..FnOnce$LT$$LP$$RP$$GT$$GT$9call_once17he0621d6d235d0c08E",
    "__ZN3std9panicking3try7do_call17h8e7a94c382a5e60cE",
    "__ZN3std5panic12catch_unwind17h1f6291afe955bbfcE",
    "__ZN100_$LT$dioxus_core..any_props..VProps$LT$F$C$P$C$M$GT$$u20$as$u20$dioxus_core..any_props..AnyProps$GT$6render17h45480eba660d5148E",
    "l___unnamed_7_harness-df4868ea1b5cadad.c6wmz0dxwkc7r3o02wr81u9oy.rcgu.o",
    "__ZN11dioxus_core5nodes10VComponent3new17hcaaa6729c16dc137E",
    "__ZN11dioxus_core10properties10Properties15into_vcomponent17h79bafc80aea2aab7E",
    "___hotreload_start_app",
    "__ZN7harness3app17h400735d18e59eec4E",
    "__ZN7harness4main17h4654d77b3f37379bE",
    "_main",
]
l___unnamed_9_harness-df4868ea1b5cadad.82ypsbytozw3vin3um71rau5z.rcgu.o
[
    "l___unnamed_9_harness-df4868ea1b5cadad.82ypsbytozw3vin3um71rau5z.rcgu.o",
    "__ZN94_$LT$generational_box..unsync..UnsyncStorage$u20$as$u20$generational_box..Storage$LT$T$GT$$GT$6new_rc17hef6b7983239c9229E",
    "__ZN16generational_box14Owner$LT$S$GT$21insert_rc_with_caller17hea9da2512f0a10dfE",
    "__ZN14dioxus_signals10copy_value22CopyValue$LT$T$C$S$GT$15new_with_caller17h7f551e8a7f9430b2E",
    "__ZN14dioxus_signals6signal19Signal$LT$T$C$S$GT$15new_with_caller17h11b660f7cecdd9bfE",
    "__ZN12dioxus_hooks10use_signal21use_maybe_signal_sync28_$u7b$$u7b$closure$u7d$$u7d$17h6911717c33338b02E",
    "__ZN11dioxus_core13scope_context5Scope8use_hook17h443bc38e89703491E",
    "__ZN11dioxus_core14global_context8use_hook28_$u7b$$u7b$closure$u7d$$u7d$17h021654c4e0d5d637E",
    "__ZN11dioxus_core7runtime7Runtime18with_current_scope28_$u7b$$u7b$closure$u7d$$u7d$28_$u7b$$u7b$closure$u7d$$u7d$28_$u7b$$u7b$closure$u7d$$u7d$17h869a30600a4bfe26E",
    "__ZN4core6option15Option$LT$T$GT$3map17h3ef128bf57bb58c6E",
    "__ZN11dioxus_core7runtime7Runtime18with_current_scope28_$u7b$$u7b$closure$u7d$$u7d$28_$u7b$$u7b$closure$u7d$$u7d$17hc4512018f0f95d7bE",
    "__ZN4core6option15Option$LT$T$GT$8and_then17h321e4b4087299fdcE",
    "__ZN11dioxus_core7runtime7Runtime18with_current_scope28_$u7b$$u7b$closure$u7d$$u7d$17hd941a44972032b3cE",
    "__ZN11dioxus_core7runtime7Runtime4with28_$u7b$$u7b$closure$u7d$$u7d$17hb305dfb96cc2217eE",
    "__ZN4core6result19Result$LT$T$C$E$GT$3map17h08df46ee66c4e5e1E",
    "__ZN11dioxus_core7runtime7Runtime4with17h9026542e9e8366d1E",
    "__ZN11dioxus_core7runtime7Runtime18with_current_scope17hcd646d7213c28540E",
    "__ZN11dioxus_core14global_context8use_hook17h7a4491f11af20346E",
    "__ZN12dioxus_hooks10use_signal21use_maybe_signal_sync17hd06e6b2b6298532bE",
    "__ZN12dioxus_hooks10use_signal10use_signal17h6716081699c98cfeE",
    "__ZN7harness12AddingLogger17h283889c677656013E",
    "__ZN4core3ops8function2Fn4call17hc1d984302f90d6b5E",
    "__ZN119_$LT$F$u20$as$u20$dioxus_core..properties..ComponentFunction$LT$$LP$$RP$$C$dioxus_core..properties..EmptyMarker$GT$$GT$7rebuild17ha7658b769122d22aE",
    "__ZN100_$LT$dioxus_core..any_props..VProps$LT$F$C$P$C$M$GT$$u20$as$u20$dioxus_core..any_props..AnyProps$GT$6render28_$u7b$$u7b$closure$u7d$$u7d$17h90af567fab99d4f7E",
    "__ZN4core3ops8function6FnOnce9call_once17he98e8829e2ade214E",
    "__ZN115_$LT$core..panic..unwind_safe..AssertUnwindSafe$LT$F$GT$$u20$as$u20$core..ops..function..FnOnce$LT$$LP$$RP$$GT$$GT$9call_once17h8b675a067d6b378fE",
    "__ZN3std9panicking3try7do_call17h042d1df4c42c9398E",
    "__ZN3std5panic12catch_unwind17hebad81528f98f478E",
    "__ZN100_$LT$dioxus_core..any_props..VProps$LT$F$C$P$C$M$GT$$u20$as$u20$dioxus_core..any_props..AnyProps$GT$6render17h6d3194045a8447dcE",
    "l___unnamed_6_harness-df4868ea1b5cadad.c6wmz0dxwkc7r3o02wr81u9oy.rcgu.o",
    "__ZN11dioxus_core5nodes10VComponent3new17hc4f98269bb25b058E",
    "__ZN11dioxus_core10properties10Properties15into_vcomponent17had2a4ffa139fd691E",
    "__ZN7harness5Child17h2b32aeaba0b4c00dE",
    "__ZN4core3ops8function2Fn4call17hf86b26e1f09dbfc5E",
    "__ZN73_$LT$F$u20$as$u20$dioxus_core..properties..ComponentFunction$LT$P$GT$$GT$7rebuild17hdcc2e237eec08339E",
    "__ZN100_$LT$dioxus_core..any_props..VProps$LT$F$C$P$C$M$GT$$u20$as$u20$dioxus_core..any_props..AnyProps$GT$6render28_$u7b$$u7b$closure$u7d$$u7d$17hfbf53ec21013c460E",
    "__ZN4core3ops8function6FnOnce9call_once17hb1250f82ab822998E",
    "__ZN115_$LT$core..panic..unwind_safe..AssertUnwindSafe$LT$F$GT$$u20$as$u20$core..ops..function..FnOnce$LT$$LP$$RP$$GT$$GT$9call_once17h156df01ab880499cE",
    "__ZN3std9panicking3try7do_call17h12b00f5c1afca0e5E",
    "__ZN3std5panic12catch_unwind17h9623dc210b33032cE",
    "__ZN100_$LT$dioxus_core..any_props..VProps$LT$F$C$P$C$M$GT$$u20$as$u20$dioxus_core..any_props..AnyProps$GT$6render17h724478bd10ae45abE",
    "l___unnamed_8_harness-df4868ea1b5cadad.e382ndox9j839chz9esswif6u.rcgu.o",
    "__ZN100_$LT$dioxus_core..any_props..VProps$LT$F$C$P$C$M$GT$$u20$as$u20$dioxus_core..any_props..AnyProps$GT$9duplicate17hbcc315160800576aE",
    "l___unnamed_2_harness-df4868ea1b5cadad.c6wmz0dxwkc7r3o02wr81u9oy.rcgu.o",
    "__ZN11dioxus_core5nodes10VComponent3new17h64d3a0812e77f0edE",
    "__ZN11dioxus_core10properties10Properties15into_vcomponent17h7753673354bc1edfE",
    "__ZN7harness13zoom_controls17h3a73844835917e06E",
    "__ZN4core3ops8function2Fn4call17heb220dff9cb64346E",
    "__ZN119_$LT$F$u20$as$u20$dioxus_core..properties..ComponentFunction$LT$$LP$$RP$$C$dioxus_core..properties..EmptyMarker$GT$$GT$7rebuild17h1485b718be4dcc97E",
    "__ZN100_$LT$dioxus_core..any_props..VProps$LT$F$C$P$C$M$GT$$u20$as$u20$dioxus_core..any_props..AnyProps$GT$6render28_$u7b$$u7b$closure$u7d$$u7d$17h5f5c31c2c4fcd3edE",
    "__ZN4core3ops8function6FnOnce9call_once17haf610c889d773240E",
    "__ZN115_$LT$core..panic..unwind_safe..AssertUnwindSafe$LT$F$GT$$u20$as$u20$core..ops..function..FnOnce$LT$$LP$$RP$$GT$$GT$9call_once17he0621d6d235d0c08E",
    "__ZN3std9panicking3try7do_call17h8e7a94c382a5e60cE",
    "__ZN3std5panic12catch_unwind17h1f6291afe955bbfcE",
    "__ZN100_$LT$dioxus_core..any_props..VProps$LT$F$C$P$C$M$GT$$u20$as$u20$dioxus_core..any_props..AnyProps$GT$6render17h45480eba660d5148E",
    "l___unnamed_7_harness-df4868ea1b5cadad.c6wmz0dxwkc7r3o02wr81u9oy.rcgu.o",
    "__ZN11dioxus_core5nodes10VComponent3new17hcaaa6729c16dc137E",
    "__ZN11dioxus_core10properties10Properties15into_vcomponent17h79bafc80aea2aab7E",
    "___hotreload_start_app",
    "__ZN7harness3app17h400735d18e59eec4E",
    "__ZN7harness4main17h4654d77b3f37379bE",
    "_main",
]
l___unnamed_19_harness-df4868ea1b5cadad.57p783wz0mdr6vmpci89msrb7.rcgu.o
[
    "l___unnamed_19_harness-df4868ea1b5cadad.57p783wz0mdr6vmpci89msrb7.rcgu.o",
    "l___unnamed_13_harness-df4868ea1b5cadad.57p783wz0mdr6vmpci89msrb7.rcgu.o",
    "__ZN14dioxus_signals8warnings20__copy_value_hoisted23__Callable$LT$T$C$S$GT$16__run_if_enabled28_$u7b$$u7b$closure$u7d$$u7d$18copy_value_hoisted17h0527a627c5bd33efE",
    "__ZN14dioxus_signals8warnings20__copy_value_hoisted23__Callable$LT$T$C$S$GT$16__run_if_enabled28_$u7b$$u7b$closure$u7d$$u7d$17h34ba434c7e412c6eE",
    "__ZN8warnings8warnings9WarningId10if_enabled17h1c488e65130df26eE",
    "__ZN14dioxus_signals8warnings20__copy_value_hoisted23__Callable$LT$T$C$S$GT$16__run_if_enabled17ha36d84debd7d7620E",
    "l___unnamed_5_harness-df4868ea1b5cadad.57p783wz0mdr6vmpci89msrb7.rcgu.o",
    "__ZN115_$LT$dioxus_signals..warnings..__copy_value_hoisted..__Callable$LT$T$C$S$GT$$u20$as$u20$core..ops..deref..Deref$GT$5deref17hab58e9f55bd3c5deE",
    "__ZN101_$LT$dioxus_signals..copy_value..CopyValue$LT$T$C$S$GT$$u20$as$u20$dioxus_signals..read..Readable$GT$18try_read_unchecked17hcbacf7f4f84ff432E",
    "__ZN14dioxus_signals4read8Readable8try_read17h3f53ef44cef9d75bE",
    "__ZN14dioxus_signals8warnings41__signal_read_and_write_in_reactive_scope23__Callable$LT$T$C$S$GT$16__run_if_enabled28_$u7b$$u7b$closure$u7d$$u7d$39signal_read_and_write_in_reactive_scope17h1ad309ff6660ea62E",
    "__ZN14dioxus_signals8warnings41__signal_read_and_write_in_reactive_scope23__Callable$LT$T$C$S$GT$16__run_if_enabled28_$u7b$$u7b$closure$u7d$$u7d$17h1b0f83081d19009bE",
    "__ZN8warnings8warnings9WarningId10if_enabled17ha6ef6cba53b085f6E",
    "__ZN14dioxus_signals8warnings41__signal_read_and_write_in_reactive_scope23__Callable$LT$T$C$S$GT$16__run_if_enabled17he99b0af967ae97feE",
    "l___unnamed_2_harness-df4868ea1b5cadad.a64hlspyskaofkyts3cee93he.rcgu.o",
    "__ZN136_$LT$dioxus_signals..warnings..__signal_read_and_write_in_reactive_scope..__Callable$LT$T$C$S$GT$$u20$as$u20$core..ops..deref..Deref$GT$5deref17h86c7f97abc3f6c06E",
    "__ZN99_$LT$dioxus_signals..signal..SignalSubscriberDrop$LT$T$C$S$GT$$u20$as$u20$core..ops..drop..Drop$GT$4drop17h330fbe4f6664ee0bE",
    "__ZN4core3ptr118drop_in_place$LT$dioxus_signals..signal..SignalSubscriberDrop$LT$i64$C$generational_box..unsync..UnsyncStorage$GT$$GT$17h25b2886afdcde067E",
    "l___unnamed_21_harness-df4868ea1b5cadad.5qrn0xfhbv2rouh4f52itu55i.rcgu.o",
    "__ZN95_$LT$dioxus_signals..signal..Signal$LT$T$C$S$GT$$u20$as$u20$dioxus_signals..write..Writable$GT$19try_write_unchecked28_$u7b$$u7b$closure$u7d$$u7d$17he1b9191098da229cE",
    "__ZN4core6result19Result$LT$T$C$E$GT$3map17he4a924266e5e9d5aE",
    "__ZN95_$LT$dioxus_signals..signal..Signal$LT$T$C$S$GT$$u20$as$u20$dioxus_signals..write..Writable$GT$19try_write_unchecked17h4cba87c5ead1eb17E",
    "__ZN14dioxus_signals6global19Global$LT$T$C$R$GT$5write17h2228387cbea56f90E",
    "__ZN7harness11GlobalInner28_$u7b$$u7b$closure$u7d$$u7d$17hb42c5660948e5f3bE",
    "__ZN11dioxus_core6events26Callback$LT$Args$C$Ret$GT$3new28_$u7b$$u7b$closure$u7d$$u7d$17h6f96a569a9f12b13E",
    "l___unnamed_9_harness-df4868ea1b5cadad.egexdem49eejgynie32zwugcu.rcgu.o",
    "__ZN11dioxus_core6events26Callback$LT$Args$C$Ret$GT$3new17he13b8bd10ebc92d6E",
    "__ZN169_$LT$dioxus_core..events..Callback$LT$Args$C$Ret$GT$$u20$as$u20$dioxus_core..properties..SuperFrom$LT$Function$C$dioxus_core..events..MarkerWrapper$LT$Marker$GT$$GT$$GT$10super_from17h0f0cdd7a8468e271E",
    "__ZN69_$LT$T$u20$as$u20$dioxus_core..properties..SuperInto$LT$O$C$M$GT$$GT$10super_into17he799bb527ae17417E",
    "__ZN11dioxus_html6events5mouse7onclick28_$u7b$$u7b$closure$u7d$$u7d$17hcda8013b3fb0a7b1E",
    "__ZN11dioxus_core16generational_box10with_owner17hb0ca740788bcf0beE",
    "__ZN11dioxus_html6events5mouse7onclick17hcc75453cf267d2c1E",
    "__ZN11dioxus_html6events5mouse7onclick26call_with_explicit_closure17hc65524ea0f855dd4E",
    "__ZN7harness11GlobalInner17h56fe43aa3656219bE",
    "__ZN4core3ops8function2Fn4call17h3c8f851ee4dd175bE",
    "__ZN119_$LT$F$u20$as$u20$dioxus_core..properties..ComponentFunction$LT$$LP$$RP$$C$dioxus_core..properties..EmptyMarker$GT$$GT$7rebuild17hf7f1250efa3fb04cE",
    "__ZN100_$LT$dioxus_core..any_props..VProps$LT$F$C$P$C$M$GT$$u20$as$u20$dioxus_core..any_props..AnyProps$GT$6render28_$u7b$$u7b$closure$u7d$$u7d$17h025de8e22280b207E",
    "__ZN4core3ops8function6FnOnce9call_once17h371dcf20a99f261bE",
    "__ZN115_$LT$core..panic..unwind_safe..AssertUnwindSafe$LT$F$GT$$u20$as$u20$core..ops..function..FnOnce$LT$$LP$$RP$$GT$$GT$9call_once17h25a92dc564e3d7ffE",
    "__ZN3std9panicking3try7do_call17ha023efa9fb2ba8f7E",
    "__ZN3std5panic12catch_unwind17h48b71dec49934bf1E",
    "__ZN100_$LT$dioxus_core..any_props..VProps$LT$F$C$P$C$M$GT$$u20$as$u20$dioxus_core..any_props..AnyProps$GT$6render17h543a97c06bfefa3bE",
    "l___unnamed_4_harness-df4868ea1b5cadad.e382ndox9j839chz9esswif6u.rcgu.o",
    "__ZN100_$LT$dioxus_core..any_props..VProps$LT$F$C$P$C$M$GT$$u20$as$u20$dioxus_core..any_props..AnyProps$GT$9duplicate17h675ac73f4925ce25E",
    "l___unnamed_4_harness-df4868ea1b5cadad.c6wmz0dxwkc7r3o02wr81u9oy.rcgu.o",
    "__ZN11dioxus_core5nodes10VComponent3new17h993f8b3d9eb93954E",
    "__ZN11dioxus_core10properties10Properties15into_vcomponent17h965196ec13444056E",
    "__ZN7harness5Child17h2b32aeaba0b4c00dE",
    "__ZN4core3ops8function2Fn4call17hf86b26e1f09dbfc5E",
    "__ZN73_$LT$F$u20$as$u20$dioxus_core..properties..ComponentFunction$LT$P$GT$$GT$7rebuild17hdcc2e237eec08339E",
    "__ZN100_$LT$dioxus_core..any_props..VProps$LT$F$C$P$C$M$GT$$u20$as$u20$dioxus_core..any_props..AnyProps$GT$6render28_$u7b$$u7b$closure$u7d$$u7d$17hfbf53ec21013c460E",
    "__ZN4core3ops8function6FnOnce9call_once17hb1250f82ab822998E",
    "__ZN115_$LT$core..panic..unwind_safe..AssertUnwindSafe$LT$F$GT$$u20$as$u20$core..ops..function..FnOnce$LT$$LP$$RP$$GT$$GT$9call_once17h156df01ab880499cE",
    "__ZN3std9panicking3try7do_call17h12b00f5c1afca0e5E",
    "__ZN3std5panic12catch_unwind17h9623dc210b33032cE",
    "__ZN100_$LT$dioxus_core..any_props..VProps$LT$F$C$P$C$M$GT$$u20$as$u20$dioxus_core..any_props..AnyProps$GT$6render17h724478bd10ae45abE",
    "l___unnamed_8_harness-df4868ea1b5cadad.e382ndox9j839chz9esswif6u.rcgu.o",
    "__ZN100_$LT$dioxus_core..any_props..VProps$LT$F$C$P$C$M$GT$$u20$as$u20$dioxus_core..any_props..AnyProps$GT$9duplicate17hbcc315160800576aE",
    "l___unnamed_2_harness-df4868ea1b5cadad.c6wmz0dxwkc7r3o02wr81u9oy.rcgu.o",
    "__ZN11dioxus_core5nodes10VComponent3new17h64d3a0812e77f0edE",
    "__ZN11dioxus_core10properties10Properties15into_vcomponent17h7753673354bc1edfE",
    "__ZN7harness13zoom_controls17h3a73844835917e06E",
    "__ZN4core3ops8function2Fn4call17heb220dff9cb64346E",
    "__ZN119_$LT$F$u20$as$u20$dioxus_core..properties..ComponentFunction$LT$$LP$$RP$$C$dioxus_core..properties..EmptyMarker$GT$$GT$7rebuild17h1485b718be4dcc97E",
    "__ZN100_$LT$dioxus_core..any_props..VProps$LT$F$C$P$C$M$GT$$u20$as$u20$dioxus_core..any_props..AnyProps$GT$6render28_$u7b$$u7b$closure$u7d$$u7d$17h5f5c31c2c4fcd3edE",
    "__ZN4core3ops8function6FnOnce9call_once17haf610c889d773240E",
    "__ZN115_$LT$core..panic..unwind_safe..AssertUnwindSafe$LT$F$GT$$u20$as$u20$core..ops..function..FnOnce$LT$$LP$$RP$$GT$$GT$9call_once17he0621d6d235d0c08E",
    "__ZN3std9panicking3try7do_call17h8e7a94c382a5e60cE",
    "__ZN3std5panic12catch_unwind17h1f6291afe955bbfcE",
    "__ZN100_$LT$dioxus_core..any_props..VProps$LT$F$C$P$C$M$GT$$u20$as$u20$dioxus_core..any_props..AnyProps$GT$6render17h45480eba660d5148E",
    "l___unnamed_7_harness-df4868ea1b5cadad.c6wmz0dxwkc7r3o02wr81u9oy.rcgu.o",
    "__ZN11dioxus_core5nodes10VComponent3new17hcaaa6729c16dc137E",
    "__ZN11dioxus_core10properties10Properties15into_vcomponent17h79bafc80aea2aab7E",
    "___hotreload_start_app",
    "__ZN7harness3app17h400735d18e59eec4E",
    "__ZN7harness4main17h4654d77b3f37379bE",
    "_main",
]
__ZN99_$LT$dioxus_signals..signal..SignalSubscriberDrop$LT$T$C$S$GT$$u20$as$u20$core..ops..drop..Drop$GT$4drop17h330fbe4f6664ee0bE
[
    "__ZN99_$LT$dioxus_signals..signal..SignalSubscriberDrop$LT$T$C$S$GT$$u20$as$u20$core..ops..drop..Drop$GT$4drop17h330fbe4f6664ee0bE",
    "__ZN4core3ptr118drop_in_place$LT$dioxus_signals..signal..SignalSubscriberDrop$LT$i64$C$generational_box..unsync..UnsyncStorage$GT$$GT$17h25b2886afdcde067E",
    "l___unnamed_21_harness-df4868ea1b5cadad.5qrn0xfhbv2rouh4f52itu55i.rcgu.o",
    "__ZN95_$LT$dioxus_signals..signal..Signal$LT$T$C$S$GT$$u20$as$u20$dioxus_signals..write..Writable$GT$19try_write_unchecked28_$u7b$$u7b$closure$u7d$$u7d$17he1b9191098da229cE",
    "__ZN4core6result19Result$LT$T$C$E$GT$3map17he4a924266e5e9d5aE",
    "__ZN95_$LT$dioxus_signals..signal..Signal$LT$T$C$S$GT$$u20$as$u20$dioxus_signals..write..Writable$GT$19try_write_unchecked17h4cba87c5ead1eb17E",
    "__ZN14dioxus_signals6global19Global$LT$T$C$R$GT$5write17h2228387cbea56f90E",
    "__ZN7harness11GlobalInner28_$u7b$$u7b$closure$u7d$$u7d$17hb42c5660948e5f3bE",
    "__ZN11dioxus_core6events26Callback$LT$Args$C$Ret$GT$3new28_$u7b$$u7b$closure$u7d$$u7d$17h6f96a569a9f12b13E",
    "l___unnamed_9_harness-df4868ea1b5cadad.egexdem49eejgynie32zwugcu.rcgu.o",
    "__ZN11dioxus_core6events26Callback$LT$Args$C$Ret$GT$3new17he13b8bd10ebc92d6E",
    "__ZN169_$LT$dioxus_core..events..Callback$LT$Args$C$Ret$GT$$u20$as$u20$dioxus_core..properties..SuperFrom$LT$Function$C$dioxus_core..events..MarkerWrapper$LT$Marker$GT$$GT$$GT$10super_from17h0f0cdd7a8468e271E",
    "__ZN69_$LT$T$u20$as$u20$dioxus_core..properties..SuperInto$LT$O$C$M$GT$$GT$10super_into17he799bb527ae17417E",
    "__ZN11dioxus_html6events5mouse7onclick28_$u7b$$u7b$closure$u7d$$u7d$17hcda8013b3fb0a7b1E",
    "__ZN11dioxus_core16generational_box10with_owner17hb0ca740788bcf0beE",
    "__ZN11dioxus_html6events5mouse7onclick17hcc75453cf267d2c1E",
    "__ZN11dioxus_html6events5mouse7onclick26call_with_explicit_closure17hc65524ea0f855dd4E",
    "__ZN7harness11GlobalInner17h56fe43aa3656219bE",
    "__ZN4core3ops8function2Fn4call17h3c8f851ee4dd175bE",
    "__ZN119_$LT$F$u20$as$u20$dioxus_core..properties..ComponentFunction$LT$$LP$$RP$$C$dioxus_core..properties..EmptyMarker$GT$$GT$7rebuild17hf7f1250efa3fb04cE",
    "__ZN100_$LT$dioxus_core..any_props..VProps$LT$F$C$P$C$M$GT$$u20$as$u20$dioxus_core..any_props..AnyProps$GT$6render28_$u7b$$u7b$closure$u7d$$u7d$17h025de8e22280b207E",
    "__ZN4core3ops8function6FnOnce9call_once17h371dcf20a99f261bE",
    "__ZN115_$LT$core..panic..unwind_safe..AssertUnwindSafe$LT$F$GT$$u20$as$u20$core..ops..function..FnOnce$LT$$LP$$RP$$GT$$GT$9call_once17h25a92dc564e3d7ffE",
    "__ZN3std9panicking3try7do_call17ha023efa9fb2ba8f7E",
    "__ZN3std5panic12catch_unwind17h48b71dec49934bf1E",
    "__ZN100_$LT$dioxus_core..any_props..VProps$LT$F$C$P$C$M$GT$$u20$as$u20$dioxus_core..any_props..AnyProps$GT$6render17h543a97c06bfefa3bE",
    "l___unnamed_4_harness-df4868ea1b5cadad.e382ndox9j839chz9esswif6u.rcgu.o",
    "__ZN100_$LT$dioxus_core..any_props..VProps$LT$F$C$P$C$M$GT$$u20$as$u20$dioxus_core..any_props..AnyProps$GT$9duplicate17h675ac73f4925ce25E",
    "l___unnamed_4_harness-df4868ea1b5cadad.c6wmz0dxwkc7r3o02wr81u9oy.rcgu.o",
    "__ZN11dioxus_core5nodes10VComponent3new17h993f8b3d9eb93954E",
    "__ZN11dioxus_core10properties10Properties15into_vcomponent17h965196ec13444056E",
    "__ZN7harness5Child17h2b32aeaba0b4c00dE",
    "__ZN4core3ops8function2Fn4call17hf86b26e1f09dbfc5E",
    "__ZN73_$LT$F$u20$as$u20$dioxus_core..properties..ComponentFunction$LT$P$GT$$GT$7rebuild17hdcc2e237eec08339E",
    "__ZN100_$LT$dioxus_core..any_props..VProps$LT$F$C$P$C$M$GT$$u20$as$u20$dioxus_core..any_props..AnyProps$GT$6render28_$u7b$$u7b$closure$u7d$$u7d$17hfbf53ec21013c460E",
    "__ZN4core3ops8function6FnOnce9call_once17hb1250f82ab822998E",
    "__ZN115_$LT$core..panic..unwind_safe..AssertUnwindSafe$LT$F$GT$$u20$as$u20$core..ops..function..FnOnce$LT$$LP$$RP$$GT$$GT$9call_once17h156df01ab880499cE",
    "__ZN3std9panicking3try7do_call17h12b00f5c1afca0e5E",
    "__ZN3std5panic12catch_unwind17h9623dc210b33032cE",
    "__ZN100_$LT$dioxus_core..any_props..VProps$LT$F$C$P$C$M$GT$$u20$as$u20$dioxus_core..any_props..AnyProps$GT$6render17h724478bd10ae45abE",
    "l___unnamed_8_harness-df4868ea1b5cadad.e382ndox9j839chz9esswif6u.rcgu.o",
    "__ZN100_$LT$dioxus_core..any_props..VProps$LT$F$C$P$C$M$GT$$u20$as$u20$dioxus_core..any_props..AnyProps$GT$9duplicate17hbcc315160800576aE",
    "l___unnamed_2_harness-df4868ea1b5cadad.c6wmz0dxwkc7r3o02wr81u9oy.rcgu.o",
    "__ZN11dioxus_core5nodes10VComponent3new17h64d3a0812e77f0edE",
    "__ZN11dioxus_core10properties10Properties15into_vcomponent17h7753673354bc1edfE",
    "__ZN7harness13zoom_controls17h3a73844835917e06E",
    "__ZN4core3ops8function2Fn4call17heb220dff9cb64346E",
    "__ZN119_$LT$F$u20$as$u20$dioxus_core..properties..ComponentFunction$LT$$LP$$RP$$C$dioxus_core..properties..EmptyMarker$GT$$GT$7rebuild17h1485b718be4dcc97E",
    "__ZN100_$LT$dioxus_core..any_props..VProps$LT$F$C$P$C$M$GT$$u20$as$u20$dioxus_core..any_props..AnyProps$GT$6render28_$u7b$$u7b$closure$u7d$$u7d$17h5f5c31c2c4fcd3edE",
    "__ZN4core3ops8function6FnOnce9call_once17haf610c889d773240E",
    "__ZN115_$LT$core..panic..unwind_safe..AssertUnwindSafe$LT$F$GT$$u20$as$u20$core..ops..function..FnOnce$LT$$LP$$RP$$GT$$GT$9call_once17he0621d6d235d0c08E",
    "__ZN3std9panicking3try7do_call17h8e7a94c382a5e60cE",
    "__ZN3std5panic12catch_unwind17h1f6291afe955bbfcE",
    "__ZN100_$LT$dioxus_core..any_props..VProps$LT$F$C$P$C$M$GT$$u20$as$u20$dioxus_core..any_props..AnyProps$GT$6render17h45480eba660d5148E",
    "l___unnamed_7_harness-df4868ea1b5cadad.c6wmz0dxwkc7r3o02wr81u9oy.rcgu.o",
    "__ZN11dioxus_core5nodes10VComponent3new17hcaaa6729c16dc137E",
    "__ZN11dioxus_core10properties10Properties15into_vcomponent17h79bafc80aea2aab7E",
    "___hotreload_start_app",
    "__ZN7harness3app17h400735d18e59eec4E",
    "__ZN7harness4main17h4654d77b3f37379bE",
    "_main",
]
__ZN14dioxus_signals8warnings20__copy_value_hoisted23__Callable$LT$T$C$S$GT$16__run_if_enabled17ha86ba76fd9c6207eE
[
    "__ZN14dioxus_signals8warnings20__copy_value_hoisted23__Callable$LT$T$C$S$GT$16__run_if_enabled17ha86ba76fd9c6207eE",
    "l___unnamed_3_harness-df4868ea1b5cadad.57p783wz0mdr6vmpci89msrb7.rcgu.o",
    "__ZN115_$LT$dioxus_signals..warnings..__copy_value_hoisted..__Callable$LT$T$C$S$GT$$u20$as$u20$core..ops..deref..Deref$GT$5deref17h6e65b88cf15cf560E",
    "__ZN101_$LT$dioxus_signals..copy_value..CopyValue$LT$T$C$S$GT$$u20$as$u20$dioxus_signals..read..Readable$GT$18try_read_unchecked17hd493c9170b107b83E",
    "__ZN94_$LT$dioxus_signals..signal..Signal$LT$T$C$S$GT$$u20$as$u20$dioxus_signals..read..Readable$GT$18try_read_unchecked17h9caebf6d767dd7c6E",
    "__ZN94_$LT$dioxus_signals..global..Global$LT$T$C$R$GT$$u20$as$u20$dioxus_signals..read..Readable$GT$18try_read_unchecked17he830ea5221f7a27cE",
    "__ZN14dioxus_signals4read8Readable8try_read17hfbc244474934b291E",
    "__ZN14dioxus_signals4read8Readable4read17h41524c064db5dd2dE",
    "__ZN7harness6NewKid28_$u7b$$u7b$closure$u7d$$u7d$17h9099a0c67cdd6532E",
    "__ZN4core6option15Option$LT$T$GT$3map17h4f41683f6525b5abE",
    "__ZN7harness6NewKid17h0d16723298cf84efE",
    "__ZN4core3ops8function2Fn4call17hd6479507223b4c30E",
    "__ZN119_$LT$F$u20$as$u20$dioxus_core..properties..ComponentFunction$LT$$LP$$RP$$C$dioxus_core..properties..EmptyMarker$GT$$GT$7rebuild17h25f10a7a9b0fb873E",
    "__ZN100_$LT$dioxus_core..any_props..VProps$LT$F$C$P$C$M$GT$$u20$as$u20$dioxus_core..any_props..AnyProps$GT$6render28_$u7b$$u7b$closure$u7d$$u7d$17h0318bf51e7e6a83cE",
    "__ZN4core3ops8function6FnOnce9call_once17hbe9788c77c8be23cE",
    "__ZN115_$LT$core..panic..unwind_safe..AssertUnwindSafe$LT$F$GT$$u20$as$u20$core..ops..function..FnOnce$LT$$LP$$RP$$GT$$GT$9call_once17h7d8a81a2add3fd41E",
    "__ZN3std9panicking3try7do_call17h409d49b92466a609E",
    "__ZN3std5panic12catch_unwind17hf276ac0d0c73ede9E",
    "__ZN100_$LT$dioxus_core..any_props..VProps$LT$F$C$P$C$M$GT$$u20$as$u20$dioxus_core..any_props..AnyProps$GT$6render17h435360213479f568E",
    "l___unnamed_5_harness-df4868ea1b5cadad.c6wmz0dxwkc7r3o02wr81u9oy.rcgu.o",
    "__ZN11dioxus_core5nodes10VComponent3new17hbb2f7915050d710cE",
    "__ZN11dioxus_core10properties10Properties15into_vcomponent17hd8eb584571a3a19eE",
    "__ZN7harness13zoom_controls17h3a73844835917e06E",
    "__ZN4core3ops8function2Fn4call17heb220dff9cb64346E",
    "__ZN119_$LT$F$u20$as$u20$dioxus_core..properties..ComponentFunction$LT$$LP$$RP$$C$dioxus_core..properties..EmptyMarker$GT$$GT$7rebuild17h1485b718be4dcc97E",
    "__ZN100_$LT$dioxus_core..any_props..VProps$LT$F$C$P$C$M$GT$$u20$as$u20$dioxus_core..any_props..AnyProps$GT$6render28_$u7b$$u7b$closure$u7d$$u7d$17h5f5c31c2c4fcd3edE",
    "__ZN4core3ops8function6FnOnce9call_once17haf610c889d773240E",
    "__ZN115_$LT$core..panic..unwind_safe..AssertUnwindSafe$LT$F$GT$$u20$as$u20$core..ops..function..FnOnce$LT$$LP$$RP$$GT$$GT$9call_once17he0621d6d235d0c08E",
    "__ZN3std9panicking3try7do_call17h8e7a94c382a5e60cE",
    "__ZN3std5panic12catch_unwind17h1f6291afe955bbfcE",
    "__ZN100_$LT$dioxus_core..any_props..VProps$LT$F$C$P$C$M$GT$$u20$as$u20$dioxus_core..any_props..AnyProps$GT$6render17h45480eba660d5148E",
    "l___unnamed_7_harness-df4868ea1b5cadad.c6wmz0dxwkc7r3o02wr81u9oy.rcgu.o",
    "__ZN11dioxus_core5nodes10VComponent3new17hcaaa6729c16dc137E",
    "__ZN11dioxus_core10properties10Properties15into_vcomponent17h79bafc80aea2aab7E",
    "___hotreload_start_app",
    "__ZN7harness3app17h400735d18e59eec4E",
    "__ZN7harness4main17h4654d77b3f37379bE",
    "_main",
]
__ZN4core6option19Option$LT$$RF$T$GT$6cloned17h46ebf025398fb3d0E
[
    "__ZN4core6option19Option$LT$$RF$T$GT$6cloned17h46ebf025398fb3d0E",
    "__ZN14dioxus_signals6global19Global$LT$T$C$R$GT$7resolve17hfca595143252f355E",
    "__ZN94_$LT$dioxus_signals..global..Global$LT$T$C$R$GT$$u20$as$u20$dioxus_signals..read..Readable$GT$18try_read_unchecked17hdf66837701d74a96E",
    "__ZN14dioxus_signals4read8Readable8try_read17h4c98c1be567ce532E",
    "__ZN14dioxus_signals4read8Readable4read17he797328ed7d7b867E",
    "__ZN14dioxus_signals4read8Readable4with17h40ffefba83cf26acE",
    "__ZN14dioxus_signals6global6signal130_$LT$impl$u20$core..fmt..Display$u20$for$u20$dioxus_signals..global..Global$LT$dioxus_signals..signal..Signal$LT$T$GT$$C$T$GT$$GT$3fmt17h9bae2be454d81459E",
    "__ZN14dioxus_signals6global6signal130_$LT$impl$u20$core..fmt..Display$u20$for$u20$dioxus_signals..global..Global$LT$dioxus_signals..signal..Signal$LT$T$GT$$C$T$GT$$GT$33fmt$u7b$$u7b$reify.shim$u7d$$u7d$17h6614528e6ee54eebE",
    "__ZN7harness11GlobalInner17h56fe43aa3656219bE",
    "__ZN4core3ops8function2Fn4call17h3c8f851ee4dd175bE",
    "__ZN119_$LT$F$u20$as$u20$dioxus_core..properties..ComponentFunction$LT$$LP$$RP$$C$dioxus_core..properties..EmptyMarker$GT$$GT$7rebuild17hf7f1250efa3fb04cE",
    "__ZN100_$LT$dioxus_core..any_props..VProps$LT$F$C$P$C$M$GT$$u20$as$u20$dioxus_core..any_props..AnyProps$GT$6render28_$u7b$$u7b$closure$u7d$$u7d$17h025de8e22280b207E",
    "__ZN4core3ops8function6FnOnce9call_once17h371dcf20a99f261bE",
    "__ZN115_$LT$core..panic..unwind_safe..AssertUnwindSafe$LT$F$GT$$u20$as$u20$core..ops..function..FnOnce$LT$$LP$$RP$$GT$$GT$9call_once17h25a92dc564e3d7ffE",
    "__ZN3std9panicking3try7do_call17ha023efa9fb2ba8f7E",
    "__ZN3std5panic12catch_unwind17h48b71dec49934bf1E",
    "__ZN100_$LT$dioxus_core..any_props..VProps$LT$F$C$P$C$M$GT$$u20$as$u20$dioxus_core..any_props..AnyProps$GT$6render17h543a97c06bfefa3bE",
    "l___unnamed_4_harness-df4868ea1b5cadad.e382ndox9j839chz9esswif6u.rcgu.o",
    "__ZN100_$LT$dioxus_core..any_props..VProps$LT$F$C$P$C$M$GT$$u20$as$u20$dioxus_core..any_props..AnyProps$GT$9duplicate17h675ac73f4925ce25E",
    "l___unnamed_4_harness-df4868ea1b5cadad.c6wmz0dxwkc7r3o02wr81u9oy.rcgu.o",
    "__ZN11dioxus_core5nodes10VComponent3new17h993f8b3d9eb93954E",
    "__ZN11dioxus_core10properties10Properties15into_vcomponent17h965196ec13444056E",
    "__ZN7harness5Child17h2b32aeaba0b4c00dE",
    "__ZN4core3ops8function2Fn4call17hf86b26e1f09dbfc5E",
    "__ZN73_$LT$F$u20$as$u20$dioxus_core..properties..ComponentFunction$LT$P$GT$$GT$7rebuild17hdcc2e237eec08339E",
    "__ZN100_$LT$dioxus_core..any_props..VProps$LT$F$C$P$C$M$GT$$u20$as$u20$dioxus_core..any_props..AnyProps$GT$6render28_$u7b$$u7b$closure$u7d$$u7d$17hfbf53ec21013c460E",
    "__ZN4core3ops8function6FnOnce9call_once17hb1250f82ab822998E",
    "__ZN115_$LT$core..panic..unwind_safe..AssertUnwindSafe$LT$F$GT$$u20$as$u20$core..ops..function..FnOnce$LT$$LP$$RP$$GT$$GT$9call_once17h156df01ab880499cE",
    "__ZN3std9panicking3try7do_call17h12b00f5c1afca0e5E",
    "__ZN3std5panic12catch_unwind17h9623dc210b33032cE",
    "__ZN100_$LT$dioxus_core..any_props..VProps$LT$F$C$P$C$M$GT$$u20$as$u20$dioxus_core..any_props..AnyProps$GT$6render17h724478bd10ae45abE",
    "l___unnamed_8_harness-df4868ea1b5cadad.e382ndox9j839chz9esswif6u.rcgu.o",
    "__ZN100_$LT$dioxus_core..any_props..VProps$LT$F$C$P$C$M$GT$$u20$as$u20$dioxus_core..any_props..AnyProps$GT$9duplicate17hbcc315160800576aE",
    "l___unnamed_2_harness-df4868ea1b5cadad.c6wmz0dxwkc7r3o02wr81u9oy.rcgu.o",
    "__ZN11dioxus_core5nodes10VComponent3new17h64d3a0812e77f0edE",
    "__ZN11dioxus_core10properties10Properties15into_vcomponent17h7753673354bc1edfE",
    "__ZN7harness13zoom_controls17h3a73844835917e06E",
    "__ZN4core3ops8function2Fn4call17heb220dff9cb64346E",
    "__ZN119_$LT$F$u20$as$u20$dioxus_core..properties..ComponentFunction$LT$$LP$$RP$$C$dioxus_core..properties..EmptyMarker$GT$$GT$7rebuild17h1485b718be4dcc97E",
    "__ZN100_$LT$dioxus_core..any_props..VProps$LT$F$C$P$C$M$GT$$u20$as$u20$dioxus_core..any_props..AnyProps$GT$6render28_$u7b$$u7b$closure$u7d$$u7d$17h5f5c31c2c4fcd3edE",
    "__ZN4core3ops8function6FnOnce9call_once17haf610c889d773240E",
    "__ZN115_$LT$core..panic..unwind_safe..AssertUnwindSafe$LT$F$GT$$u20$as$u20$core..ops..function..FnOnce$LT$$LP$$RP$$GT$$GT$9call_once17he0621d6d235d0c08E",
    "__ZN3std9panicking3try7do_call17h8e7a94c382a5e60cE",
    "__ZN3std5panic12catch_unwind17h1f6291afe955bbfcE",
    "__ZN100_$LT$dioxus_core..any_props..VProps$LT$F$C$P$C$M$GT$$u20$as$u20$dioxus_core..any_props..AnyProps$GT$6render17h45480eba660d5148E",
    "l___unnamed_7_harness-df4868ea1b5cadad.c6wmz0dxwkc7r3o02wr81u9oy.rcgu.o",
    "__ZN11dioxus_core5nodes10VComponent3new17hcaaa6729c16dc137E",
    "__ZN11dioxus_core10properties10Properties15into_vcomponent17h79bafc80aea2aab7E",
    "___hotreload_start_app",
    "__ZN7harness3app17h400735d18e59eec4E",
    "__ZN7harness4main17h4654d77b3f37379bE",
    "_main",
]
GCC_except_table61
[]
__ZN98_$LT$generational_box..references..GenerationalRef$LT$R$GT$$u20$as$u20$core..ops..deref..Deref$GT$5deref17hffb77a876c2bf20dE
[
    "__ZN98_$LT$generational_box..references..GenerationalRef$LT$R$GT$$u20$as$u20$core..ops..deref..Deref$GT$5deref17hffb77a876c2bf20dE",
    "__ZN14dioxus_signals8warnings41__signal_read_and_write_in_reactive_scope23__Callable$LT$T$C$S$GT$16__run_if_enabled28_$u7b$$u7b$closure$u7d$$u7d$39signal_read_and_write_in_reactive_scope17h1ad309ff6660ea62E",
    "__ZN14dioxus_signals8warnings41__signal_read_and_write_in_reactive_scope23__Callable$LT$T$C$S$GT$16__run_if_enabled28_$u7b$$u7b$closure$u7d$$u7d$17h1b0f83081d19009bE",
    "__ZN8warnings8warnings9WarningId10if_enabled17ha6ef6cba53b085f6E",
    "__ZN14dioxus_signals8warnings41__signal_read_and_write_in_reactive_scope23__Callable$LT$T$C$S$GT$16__run_if_enabled17he99b0af967ae97feE",
    "l___unnamed_2_harness-df4868ea1b5cadad.a64hlspyskaofkyts3cee93he.rcgu.o",
    "__ZN136_$LT$dioxus_signals..warnings..__signal_read_and_write_in_reactive_scope..__Callable$LT$T$C$S$GT$$u20$as$u20$core..ops..deref..Deref$GT$5deref17h86c7f97abc3f6c06E",
    "__ZN99_$LT$dioxus_signals..signal..SignalSubscriberDrop$LT$T$C$S$GT$$u20$as$u20$core..ops..drop..Drop$GT$4drop17h330fbe4f6664ee0bE",
    "__ZN4core3ptr118drop_in_place$LT$dioxus_signals..signal..SignalSubscriberDrop$LT$i64$C$generational_box..unsync..UnsyncStorage$GT$$GT$17h25b2886afdcde067E",
    "l___unnamed_21_harness-df4868ea1b5cadad.5qrn0xfhbv2rouh4f52itu55i.rcgu.o",
    "__ZN95_$LT$dioxus_signals..signal..Signal$LT$T$C$S$GT$$u20$as$u20$dioxus_signals..write..Writable$GT$19try_write_unchecked28_$u7b$$u7b$closure$u7d$$u7d$17he1b9191098da229cE",
    "__ZN4core6result19Result$LT$T$C$E$GT$3map17he4a924266e5e9d5aE",
    "__ZN95_$LT$dioxus_signals..signal..Signal$LT$T$C$S$GT$$u20$as$u20$dioxus_signals..write..Writable$GT$19try_write_unchecked17h4cba87c5ead1eb17E",
    "__ZN14dioxus_signals6global19Global$LT$T$C$R$GT$5write17h2228387cbea56f90E",
    "__ZN7harness11GlobalInner28_$u7b$$u7b$closure$u7d$$u7d$17hb42c5660948e5f3bE",
    "__ZN11dioxus_core6events26Callback$LT$Args$C$Ret$GT$3new28_$u7b$$u7b$closure$u7d$$u7d$17h6f96a569a9f12b13E",
    "l___unnamed_9_harness-df4868ea1b5cadad.egexdem49eejgynie32zwugcu.rcgu.o",
    "__ZN11dioxus_core6events26Callback$LT$Args$C$Ret$GT$3new17he13b8bd10ebc92d6E",
    "__ZN169_$LT$dioxus_core..events..Callback$LT$Args$C$Ret$GT$$u20$as$u20$dioxus_core..properties..SuperFrom$LT$Function$C$dioxus_core..events..MarkerWrapper$LT$Marker$GT$$GT$$GT$10super_from17h0f0cdd7a8468e271E",
    "__ZN69_$LT$T$u20$as$u20$dioxus_core..properties..SuperInto$LT$O$C$M$GT$$GT$10super_into17he799bb527ae17417E",
    "__ZN11dioxus_html6events5mouse7onclick28_$u7b$$u7b$closure$u7d$$u7d$17hcda8013b3fb0a7b1E",
    "__ZN11dioxus_core16generational_box10with_owner17hb0ca740788bcf0beE",
    "__ZN11dioxus_html6events5mouse7onclick17hcc75453cf267d2c1E",
    "__ZN11dioxus_html6events5mouse7onclick26call_with_explicit_closure17hc65524ea0f855dd4E",
    "__ZN7harness11GlobalInner17h56fe43aa3656219bE",
    "__ZN4core3ops8function2Fn4call17h3c8f851ee4dd175bE",
    "__ZN119_$LT$F$u20$as$u20$dioxus_core..properties..ComponentFunction$LT$$LP$$RP$$C$dioxus_core..properties..EmptyMarker$GT$$GT$7rebuild17hf7f1250efa3fb04cE",
    "__ZN100_$LT$dioxus_core..any_props..VProps$LT$F$C$P$C$M$GT$$u20$as$u20$dioxus_core..any_props..AnyProps$GT$6render28_$u7b$$u7b$closure$u7d$$u7d$17h025de8e22280b207E",
    "__ZN4core3ops8function6FnOnce9call_once17h371dcf20a99f261bE",
    "__ZN115_$LT$core..panic..unwind_safe..AssertUnwindSafe$LT$F$GT$$u20$as$u20$core..ops..function..FnOnce$LT$$LP$$RP$$GT$$GT$9call_once17h25a92dc564e3d7ffE",
    "__ZN3std9panicking3try7do_call17ha023efa9fb2ba8f7E",
    "__ZN3std5panic12catch_unwind17h48b71dec49934bf1E",
    "__ZN100_$LT$dioxus_core..any_props..VProps$LT$F$C$P$C$M$GT$$u20$as$u20$dioxus_core..any_props..AnyProps$GT$6render17h543a97c06bfefa3bE",
    "l___unnamed_4_harness-df4868ea1b5cadad.e382ndox9j839chz9esswif6u.rcgu.o",
    "__ZN100_$LT$dioxus_core..any_props..VProps$LT$F$C$P$C$M$GT$$u20$as$u20$dioxus_core..any_props..AnyProps$GT$9duplicate17h675ac73f4925ce25E",
    "l___unnamed_4_harness-df4868ea1b5cadad.c6wmz0dxwkc7r3o02wr81u9oy.rcgu.o",
    "__ZN11dioxus_core5nodes10VComponent3new17h993f8b3d9eb93954E",
    "__ZN11dioxus_core10properties10Properties15into_vcomponent17h965196ec13444056E",
    "__ZN7harness5Child17h2b32aeaba0b4c00dE",
    "__ZN4core3ops8function2Fn4call17hf86b26e1f09dbfc5E",
    "__ZN73_$LT$F$u20$as$u20$dioxus_core..properties..ComponentFunction$LT$P$GT$$GT$7rebuild17hdcc2e237eec08339E",
    "__ZN100_$LT$dioxus_core..any_props..VProps$LT$F$C$P$C$M$GT$$u20$as$u20$dioxus_core..any_props..AnyProps$GT$6render28_$u7b$$u7b$closure$u7d$$u7d$17hfbf53ec21013c460E",
    "__ZN4core3ops8function6FnOnce9call_once17hb1250f82ab822998E",
    "__ZN115_$LT$core..panic..unwind_safe..AssertUnwindSafe$LT$F$GT$$u20$as$u20$core..ops..function..FnOnce$LT$$LP$$RP$$GT$$GT$9call_once17h156df01ab880499cE",
    "__ZN3std9panicking3try7do_call17h12b00f5c1afca0e5E",
    "__ZN3std5panic12catch_unwind17h9623dc210b33032cE",
    "__ZN100_$LT$dioxus_core..any_props..VProps$LT$F$C$P$C$M$GT$$u20$as$u20$dioxus_core..any_props..AnyProps$GT$6render17h724478bd10ae45abE",
    "l___unnamed_8_harness-df4868ea1b5cadad.e382ndox9j839chz9esswif6u.rcgu.o",
    "__ZN100_$LT$dioxus_core..any_props..VProps$LT$F$C$P$C$M$GT$$u20$as$u20$dioxus_core..any_props..AnyProps$GT$9duplicate17hbcc315160800576aE",
    "l___unnamed_2_harness-df4868ea1b5cadad.c6wmz0dxwkc7r3o02wr81u9oy.rcgu.o",
    "__ZN11dioxus_core5nodes10VComponent3new17h64d3a0812e77f0edE",
    "__ZN11dioxus_core10properties10Properties15into_vcomponent17h7753673354bc1edfE",
    "__ZN7harness13zoom_controls17h3a73844835917e06E",
    "__ZN4core3ops8function2Fn4call17heb220dff9cb64346E",
    "__ZN119_$LT$F$u20$as$u20$dioxus_core..properties..ComponentFunction$LT$$LP$$RP$$C$dioxus_core..properties..EmptyMarker$GT$$GT$7rebuild17h1485b718be4dcc97E",
    "__ZN100_$LT$dioxus_core..any_props..VProps$LT$F$C$P$C$M$GT$$u20$as$u20$dioxus_core..any_props..AnyProps$GT$6render28_$u7b$$u7b$closure$u7d$$u7d$17h5f5c31c2c4fcd3edE",
    "__ZN4core3ops8function6FnOnce9call_once17haf610c889d773240E",
    "__ZN115_$LT$core..panic..unwind_safe..AssertUnwindSafe$LT$F$GT$$u20$as$u20$core..ops..function..FnOnce$LT$$LP$$RP$$GT$$GT$9call_once17he0621d6d235d0c08E",
    "__ZN3std9panicking3try7do_call17h8e7a94c382a5e60cE",
    "__ZN3std5panic12catch_unwind17h1f6291afe955bbfcE",
    "__ZN100_$LT$dioxus_core..any_props..VProps$LT$F$C$P$C$M$GT$$u20$as$u20$dioxus_core..any_props..AnyProps$GT$6render17h45480eba660d5148E",
    "l___unnamed_7_harness-df4868ea1b5cadad.c6wmz0dxwkc7r3o02wr81u9oy.rcgu.o",
    "__ZN11dioxus_core5nodes10VComponent3new17hcaaa6729c16dc137E",
    "__ZN11dioxus_core10properties10Properties15into_vcomponent17h79bafc80aea2aab7E",
    "___hotreload_start_app",
    "__ZN7harness3app17h400735d18e59eec4E",
    "__ZN7harness4main17h4654d77b3f37379bE",
    "_main",
]
GCC_except_table37
[]
__ZN14dioxus_signals10copy_value22CopyValue$LT$T$C$S$GT$14new_maybe_sync17h1b6ad78b4df515afE
[
    "__ZN14dioxus_signals10copy_value22CopyValue$LT$T$C$S$GT$14new_maybe_sync17h1b6ad78b4df515afE",
    "__ZN14dioxus_signals6signal19Signal$LT$T$C$S$GT$14new_maybe_sync17ha7528862cb9c2381E",
    "__ZN14dioxus_signals6signal15Signal$LT$T$GT$3new17h7b6013ed01240d91E",
    "__ZN14dioxus_signals6global6signal125_$LT$impl$u20$dioxus_signals..global..InitializeFromFunction$LT$T$GT$$u20$for$u20$dioxus_signals..signal..Signal$LT$T$GT$$GT$24initialize_from_function17h7a63303ed51e7775E",
    "__ZN14dioxus_signals6global19Global$LT$T$C$R$GT$7resolve28_$u7b$$u7b$closure$u7d$$u7d$17h36e2699e94ee70c1E",
    "__ZN11dioxus_core7runtime7Runtime8on_scope17hdb6d3a3476122c40E",
    "__ZN11dioxus_core13scope_context46_$LT$impl$u20$dioxus_core..scopes..ScopeId$GT$10in_runtime17h8839846f97dbe1ddE",
    "__ZN14dioxus_signals6global19Global$LT$T$C$R$GT$7resolve17hfca595143252f355E",
    "__ZN94_$LT$dioxus_signals..global..Global$LT$T$C$R$GT$$u20$as$u20$dioxus_signals..read..Readable$GT$18try_read_unchecked17hdf66837701d74a96E",
    "__ZN14dioxus_signals4read8Readable8try_read17h4c98c1be567ce532E",
    "__ZN14dioxus_signals4read8Readable4read17he797328ed7d7b867E",
    "__ZN14dioxus_signals4read8Readable4with17h40ffefba83cf26acE",
    "__ZN14dioxus_signals6global6signal130_$LT$impl$u20$core..fmt..Display$u20$for$u20$dioxus_signals..global..Global$LT$dioxus_signals..signal..Signal$LT$T$GT$$C$T$GT$$GT$3fmt17h9bae2be454d81459E",
    "__ZN14dioxus_signals6global6signal130_$LT$impl$u20$core..fmt..Display$u20$for$u20$dioxus_signals..global..Global$LT$dioxus_signals..signal..Signal$LT$T$GT$$C$T$GT$$GT$33fmt$u7b$$u7b$reify.shim$u7d$$u7d$17h6614528e6ee54eebE",
    "__ZN7harness11GlobalInner17h56fe43aa3656219bE",
    "__ZN4core3ops8function2Fn4call17h3c8f851ee4dd175bE",
    "__ZN119_$LT$F$u20$as$u20$dioxus_core..properties..ComponentFunction$LT$$LP$$RP$$C$dioxus_core..properties..EmptyMarker$GT$$GT$7rebuild17hf7f1250efa3fb04cE",
    "__ZN100_$LT$dioxus_core..any_props..VProps$LT$F$C$P$C$M$GT$$u20$as$u20$dioxus_core..any_props..AnyProps$GT$6render28_$u7b$$u7b$closure$u7d$$u7d$17h025de8e22280b207E",
    "__ZN4core3ops8function6FnOnce9call_once17h371dcf20a99f261bE",
    "__ZN115_$LT$core..panic..unwind_safe..AssertUnwindSafe$LT$F$GT$$u20$as$u20$core..ops..function..FnOnce$LT$$LP$$RP$$GT$$GT$9call_once17h25a92dc564e3d7ffE",
    "__ZN3std9panicking3try7do_call17ha023efa9fb2ba8f7E",
    "__ZN3std5panic12catch_unwind17h48b71dec49934bf1E",
    "__ZN100_$LT$dioxus_core..any_props..VProps$LT$F$C$P$C$M$GT$$u20$as$u20$dioxus_core..any_props..AnyProps$GT$6render17h543a97c06bfefa3bE",
    "l___unnamed_4_harness-df4868ea1b5cadad.e382ndox9j839chz9esswif6u.rcgu.o",
    "__ZN100_$LT$dioxus_core..any_props..VProps$LT$F$C$P$C$M$GT$$u20$as$u20$dioxus_core..any_props..AnyProps$GT$9duplicate17h675ac73f4925ce25E",
    "l___unnamed_4_harness-df4868ea1b5cadad.c6wmz0dxwkc7r3o02wr81u9oy.rcgu.o",
    "__ZN11dioxus_core5nodes10VComponent3new17h993f8b3d9eb93954E",
    "__ZN11dioxus_core10properties10Properties15into_vcomponent17h965196ec13444056E",
    "__ZN7harness5Child17h2b32aeaba0b4c00dE",
    "__ZN4core3ops8function2Fn4call17hf86b26e1f09dbfc5E",
    "__ZN73_$LT$F$u20$as$u20$dioxus_core..properties..ComponentFunction$LT$P$GT$$GT$7rebuild17hdcc2e237eec08339E",
    "__ZN100_$LT$dioxus_core..any_props..VProps$LT$F$C$P$C$M$GT$$u20$as$u20$dioxus_core..any_props..AnyProps$GT$6render28_$u7b$$u7b$closure$u7d$$u7d$17hfbf53ec21013c460E",
    "__ZN4core3ops8function6FnOnce9call_once17hb1250f82ab822998E",
    "__ZN115_$LT$core..panic..unwind_safe..AssertUnwindSafe$LT$F$GT$$u20$as$u20$core..ops..function..FnOnce$LT$$LP$$RP$$GT$$GT$9call_once17h156df01ab880499cE",
    "__ZN3std9panicking3try7do_call17h12b00f5c1afca0e5E",
    "__ZN3std5panic12catch_unwind17h9623dc210b33032cE",
    "__ZN100_$LT$dioxus_core..any_props..VProps$LT$F$C$P$C$M$GT$$u20$as$u20$dioxus_core..any_props..AnyProps$GT$6render17h724478bd10ae45abE",
    "l___unnamed_8_harness-df4868ea1b5cadad.e382ndox9j839chz9esswif6u.rcgu.o",
    "__ZN100_$LT$dioxus_core..any_props..VProps$LT$F$C$P$C$M$GT$$u20$as$u20$dioxus_core..any_props..AnyProps$GT$9duplicate17hbcc315160800576aE",
